
Domaci_Priprava_I2C_Akcelerometr.elf:     file format elf32-littlearm

Sections:
Idx Name          Size      VMA       LMA       File off  Algn
  0 .isr_vector   00000198  08000000  08000000  00010000  2**0
                  CONTENTS, ALLOC, LOAD, READONLY, DATA
  1 .text         00005770  080001a0  080001a0  000101a0  2**4
                  CONTENTS, ALLOC, LOAD, READONLY, CODE
  2 .rodata       00000300  08005910  08005910  00015910  2**3
                  CONTENTS, ALLOC, LOAD, READONLY, DATA
  3 .ARM          00000008  08005c10  08005c10  00015c10  2**2
                  CONTENTS, ALLOC, LOAD, READONLY, DATA
  4 .init_array   00000004  08005c18  08005c18  00015c18  2**2
                  CONTENTS, ALLOC, LOAD, DATA
  5 .fini_array   00000004  08005c1c  08005c1c  00015c1c  2**2
                  CONTENTS, ALLOC, LOAD, DATA
  6 .data         00000674  20000000  08005c20  00020000  2**2
                  CONTENTS, ALLOC, LOAD, DATA
  7 .bss          00000068  20000674  08006294  00020674  2**2
                  ALLOC
  8 ._user_heap_stack 00000400  200006dc  08006294  000206dc  2**0
                  ALLOC
  9 .ARM.attributes 00000030  00000000  00000000  00020674  2**0
                  CONTENTS, READONLY
 10 .debug_info   00003c85  00000000  00000000  000206a4  2**0
                  CONTENTS, READONLY, DEBUGGING
 11 .debug_abbrev 00000ae1  00000000  00000000  00024329  2**0
                  CONTENTS, READONLY, DEBUGGING
 12 .debug_aranges 00000248  00000000  00000000  00024e10  2**3
                  CONTENTS, READONLY, DEBUGGING
 13 .debug_ranges 000001e0  00000000  00000000  00025058  2**3
                  CONTENTS, READONLY, DEBUGGING
 14 .debug_line   00001024  00000000  00000000  00025238  2**0
                  CONTENTS, READONLY, DEBUGGING
 15 .debug_str    0000112f  00000000  00000000  0002625c  2**0
                  CONTENTS, READONLY, DEBUGGING
 16 .comment      0000007c  00000000  00000000  0002738b  2**0
                  CONTENTS, READONLY
 17 .debug_frame  000018c0  00000000  00000000  00027408  2**2
                  CONTENTS, READONLY, DEBUGGING

Disassembly of section .text:

080001a0 <__do_global_dtors_aux>:
 80001a0:	b510      	push	{r4, lr}
 80001a2:	4c05      	ldr	r4, [pc, #20]	; (80001b8 <__do_global_dtors_aux+0x18>)
 80001a4:	7823      	ldrb	r3, [r4, #0]
 80001a6:	b933      	cbnz	r3, 80001b6 <__do_global_dtors_aux+0x16>
 80001a8:	4b04      	ldr	r3, [pc, #16]	; (80001bc <__do_global_dtors_aux+0x1c>)
 80001aa:	b113      	cbz	r3, 80001b2 <__do_global_dtors_aux+0x12>
 80001ac:	4804      	ldr	r0, [pc, #16]	; (80001c0 <__do_global_dtors_aux+0x20>)
 80001ae:	f3af 8000 	nop.w
 80001b2:	2301      	movs	r3, #1
 80001b4:	7023      	strb	r3, [r4, #0]
 80001b6:	bd10      	pop	{r4, pc}
 80001b8:	20000674 	.word	0x20000674
 80001bc:	00000000 	.word	0x00000000
 80001c0:	080058f8 	.word	0x080058f8

080001c4 <frame_dummy>:
 80001c4:	b508      	push	{r3, lr}
 80001c6:	4b03      	ldr	r3, [pc, #12]	; (80001d4 <frame_dummy+0x10>)
 80001c8:	b11b      	cbz	r3, 80001d2 <frame_dummy+0xe>
 80001ca:	4903      	ldr	r1, [pc, #12]	; (80001d8 <frame_dummy+0x14>)
 80001cc:	4803      	ldr	r0, [pc, #12]	; (80001dc <frame_dummy+0x18>)
 80001ce:	f3af 8000 	nop.w
 80001d2:	bd08      	pop	{r3, pc}
 80001d4:	00000000 	.word	0x00000000
 80001d8:	20000678 	.word	0x20000678
 80001dc:	080058f8 	.word	0x080058f8

080001e0 <strlen>:
 80001e0:	4603      	mov	r3, r0
 80001e2:	f813 2b01 	ldrb.w	r2, [r3], #1
 80001e6:	2a00      	cmp	r2, #0
 80001e8:	d1fb      	bne.n	80001e2 <strlen+0x2>
 80001ea:	1a18      	subs	r0, r3, r0
 80001ec:	3801      	subs	r0, #1
 80001ee:	4770      	bx	lr

080001f0 <memchr>:
 80001f0:	f001 01ff 	and.w	r1, r1, #255	; 0xff
 80001f4:	2a10      	cmp	r2, #16
 80001f6:	db2b      	blt.n	8000250 <memchr+0x60>
 80001f8:	f010 0f07 	tst.w	r0, #7
 80001fc:	d008      	beq.n	8000210 <memchr+0x20>
 80001fe:	f810 3b01 	ldrb.w	r3, [r0], #1
 8000202:	3a01      	subs	r2, #1
 8000204:	428b      	cmp	r3, r1
 8000206:	d02d      	beq.n	8000264 <memchr+0x74>
 8000208:	f010 0f07 	tst.w	r0, #7
 800020c:	b342      	cbz	r2, 8000260 <memchr+0x70>
 800020e:	d1f6      	bne.n	80001fe <memchr+0xe>
 8000210:	b4f0      	push	{r4, r5, r6, r7}
 8000212:	ea41 2101 	orr.w	r1, r1, r1, lsl #8
 8000216:	ea41 4101 	orr.w	r1, r1, r1, lsl #16
 800021a:	f022 0407 	bic.w	r4, r2, #7
 800021e:	f07f 0700 	mvns.w	r7, #0
 8000222:	2300      	movs	r3, #0
 8000224:	e8f0 5602 	ldrd	r5, r6, [r0], #8
 8000228:	3c08      	subs	r4, #8
 800022a:	ea85 0501 	eor.w	r5, r5, r1
 800022e:	ea86 0601 	eor.w	r6, r6, r1
 8000232:	fa85 f547 	uadd8	r5, r5, r7
 8000236:	faa3 f587 	sel	r5, r3, r7
 800023a:	fa86 f647 	uadd8	r6, r6, r7
 800023e:	faa5 f687 	sel	r6, r5, r7
 8000242:	b98e      	cbnz	r6, 8000268 <memchr+0x78>
 8000244:	d1ee      	bne.n	8000224 <memchr+0x34>
 8000246:	bcf0      	pop	{r4, r5, r6, r7}
 8000248:	f001 01ff 	and.w	r1, r1, #255	; 0xff
 800024c:	f002 0207 	and.w	r2, r2, #7
 8000250:	b132      	cbz	r2, 8000260 <memchr+0x70>
 8000252:	f810 3b01 	ldrb.w	r3, [r0], #1
 8000256:	3a01      	subs	r2, #1
 8000258:	ea83 0301 	eor.w	r3, r3, r1
 800025c:	b113      	cbz	r3, 8000264 <memchr+0x74>
 800025e:	d1f8      	bne.n	8000252 <memchr+0x62>
 8000260:	2000      	movs	r0, #0
 8000262:	4770      	bx	lr
 8000264:	3801      	subs	r0, #1
 8000266:	4770      	bx	lr
 8000268:	2d00      	cmp	r5, #0
 800026a:	bf06      	itte	eq
 800026c:	4635      	moveq	r5, r6
 800026e:	3803      	subeq	r0, #3
 8000270:	3807      	subne	r0, #7
 8000272:	f015 0f01 	tst.w	r5, #1
 8000276:	d107      	bne.n	8000288 <memchr+0x98>
 8000278:	3001      	adds	r0, #1
 800027a:	f415 7f80 	tst.w	r5, #256	; 0x100
 800027e:	bf02      	ittt	eq
 8000280:	3001      	addeq	r0, #1
 8000282:	f415 3fc0 	tsteq.w	r5, #98304	; 0x18000
 8000286:	3001      	addeq	r0, #1
 8000288:	bcf0      	pop	{r4, r5, r6, r7}
 800028a:	3801      	subs	r0, #1
 800028c:	4770      	bx	lr
 800028e:	bf00      	nop

08000290 <__aeabi_drsub>:
 8000290:	f081 4100 	eor.w	r1, r1, #2147483648	; 0x80000000
 8000294:	e002      	b.n	800029c <__adddf3>
 8000296:	bf00      	nop

08000298 <__aeabi_dsub>:
 8000298:	f083 4300 	eor.w	r3, r3, #2147483648	; 0x80000000

0800029c <__adddf3>:
 800029c:	b530      	push	{r4, r5, lr}
 800029e:	ea4f 0441 	mov.w	r4, r1, lsl #1
 80002a2:	ea4f 0543 	mov.w	r5, r3, lsl #1
 80002a6:	ea94 0f05 	teq	r4, r5
 80002aa:	bf08      	it	eq
 80002ac:	ea90 0f02 	teqeq	r0, r2
 80002b0:	bf1f      	itttt	ne
 80002b2:	ea54 0c00 	orrsne.w	ip, r4, r0
 80002b6:	ea55 0c02 	orrsne.w	ip, r5, r2
 80002ba:	ea7f 5c64 	mvnsne.w	ip, r4, asr #21
 80002be:	ea7f 5c65 	mvnsne.w	ip, r5, asr #21
 80002c2:	f000 80e2 	beq.w	800048a <__adddf3+0x1ee>
 80002c6:	ea4f 5454 	mov.w	r4, r4, lsr #21
 80002ca:	ebd4 5555 	rsbs	r5, r4, r5, lsr #21
 80002ce:	bfb8      	it	lt
 80002d0:	426d      	neglt	r5, r5
 80002d2:	dd0c      	ble.n	80002ee <__adddf3+0x52>
 80002d4:	442c      	add	r4, r5
 80002d6:	ea80 0202 	eor.w	r2, r0, r2
 80002da:	ea81 0303 	eor.w	r3, r1, r3
 80002de:	ea82 0000 	eor.w	r0, r2, r0
 80002e2:	ea83 0101 	eor.w	r1, r3, r1
 80002e6:	ea80 0202 	eor.w	r2, r0, r2
 80002ea:	ea81 0303 	eor.w	r3, r1, r3
 80002ee:	2d36      	cmp	r5, #54	; 0x36
 80002f0:	bf88      	it	hi
 80002f2:	bd30      	pophi	{r4, r5, pc}
 80002f4:	f011 4f00 	tst.w	r1, #2147483648	; 0x80000000
 80002f8:	ea4f 3101 	mov.w	r1, r1, lsl #12
 80002fc:	f44f 1c80 	mov.w	ip, #1048576	; 0x100000
 8000300:	ea4c 3111 	orr.w	r1, ip, r1, lsr #12
 8000304:	d002      	beq.n	800030c <__adddf3+0x70>
 8000306:	4240      	negs	r0, r0
 8000308:	eb61 0141 	sbc.w	r1, r1, r1, lsl #1
 800030c:	f013 4f00 	tst.w	r3, #2147483648	; 0x80000000
 8000310:	ea4f 3303 	mov.w	r3, r3, lsl #12
 8000314:	ea4c 3313 	orr.w	r3, ip, r3, lsr #12
 8000318:	d002      	beq.n	8000320 <__adddf3+0x84>
 800031a:	4252      	negs	r2, r2
 800031c:	eb63 0343 	sbc.w	r3, r3, r3, lsl #1
 8000320:	ea94 0f05 	teq	r4, r5
 8000324:	f000 80a7 	beq.w	8000476 <__adddf3+0x1da>
 8000328:	f1a4 0401 	sub.w	r4, r4, #1
 800032c:	f1d5 0e20 	rsbs	lr, r5, #32
 8000330:	db0d      	blt.n	800034e <__adddf3+0xb2>
 8000332:	fa02 fc0e 	lsl.w	ip, r2, lr
 8000336:	fa22 f205 	lsr.w	r2, r2, r5
 800033a:	1880      	adds	r0, r0, r2
 800033c:	f141 0100 	adc.w	r1, r1, #0
 8000340:	fa03 f20e 	lsl.w	r2, r3, lr
 8000344:	1880      	adds	r0, r0, r2
 8000346:	fa43 f305 	asr.w	r3, r3, r5
 800034a:	4159      	adcs	r1, r3
 800034c:	e00e      	b.n	800036c <__adddf3+0xd0>
 800034e:	f1a5 0520 	sub.w	r5, r5, #32
 8000352:	f10e 0e20 	add.w	lr, lr, #32
 8000356:	2a01      	cmp	r2, #1
 8000358:	fa03 fc0e 	lsl.w	ip, r3, lr
 800035c:	bf28      	it	cs
 800035e:	f04c 0c02 	orrcs.w	ip, ip, #2
 8000362:	fa43 f305 	asr.w	r3, r3, r5
 8000366:	18c0      	adds	r0, r0, r3
 8000368:	eb51 71e3 	adcs.w	r1, r1, r3, asr #31
 800036c:	f001 4500 	and.w	r5, r1, #2147483648	; 0x80000000
 8000370:	d507      	bpl.n	8000382 <__adddf3+0xe6>
 8000372:	f04f 0e00 	mov.w	lr, #0
 8000376:	f1dc 0c00 	rsbs	ip, ip, #0
 800037a:	eb7e 0000 	sbcs.w	r0, lr, r0
 800037e:	eb6e 0101 	sbc.w	r1, lr, r1
 8000382:	f5b1 1f80 	cmp.w	r1, #1048576	; 0x100000
 8000386:	d31b      	bcc.n	80003c0 <__adddf3+0x124>
 8000388:	f5b1 1f00 	cmp.w	r1, #2097152	; 0x200000
 800038c:	d30c      	bcc.n	80003a8 <__adddf3+0x10c>
 800038e:	0849      	lsrs	r1, r1, #1
 8000390:	ea5f 0030 	movs.w	r0, r0, rrx
 8000394:	ea4f 0c3c 	mov.w	ip, ip, rrx
 8000398:	f104 0401 	add.w	r4, r4, #1
 800039c:	ea4f 5244 	mov.w	r2, r4, lsl #21
 80003a0:	f512 0f80 	cmn.w	r2, #4194304	; 0x400000
 80003a4:	f080 809a 	bcs.w	80004dc <__adddf3+0x240>
 80003a8:	f1bc 4f00 	cmp.w	ip, #2147483648	; 0x80000000
 80003ac:	bf08      	it	eq
 80003ae:	ea5f 0c50 	movseq.w	ip, r0, lsr #1
 80003b2:	f150 0000 	adcs.w	r0, r0, #0
 80003b6:	eb41 5104 	adc.w	r1, r1, r4, lsl #20
 80003ba:	ea41 0105 	orr.w	r1, r1, r5
 80003be:	bd30      	pop	{r4, r5, pc}
 80003c0:	ea5f 0c4c 	movs.w	ip, ip, lsl #1
 80003c4:	4140      	adcs	r0, r0
 80003c6:	eb41 0101 	adc.w	r1, r1, r1
 80003ca:	f411 1f80 	tst.w	r1, #1048576	; 0x100000
 80003ce:	f1a4 0401 	sub.w	r4, r4, #1
 80003d2:	d1e9      	bne.n	80003a8 <__adddf3+0x10c>
 80003d4:	f091 0f00 	teq	r1, #0
 80003d8:	bf04      	itt	eq
 80003da:	4601      	moveq	r1, r0
 80003dc:	2000      	moveq	r0, #0
 80003de:	fab1 f381 	clz	r3, r1
 80003e2:	bf08      	it	eq
 80003e4:	3320      	addeq	r3, #32
 80003e6:	f1a3 030b 	sub.w	r3, r3, #11
 80003ea:	f1b3 0220 	subs.w	r2, r3, #32
 80003ee:	da0c      	bge.n	800040a <__adddf3+0x16e>
 80003f0:	320c      	adds	r2, #12
 80003f2:	dd08      	ble.n	8000406 <__adddf3+0x16a>
 80003f4:	f102 0c14 	add.w	ip, r2, #20
 80003f8:	f1c2 020c 	rsb	r2, r2, #12
 80003fc:	fa01 f00c 	lsl.w	r0, r1, ip
 8000400:	fa21 f102 	lsr.w	r1, r1, r2
 8000404:	e00c      	b.n	8000420 <__adddf3+0x184>
 8000406:	f102 0214 	add.w	r2, r2, #20
 800040a:	bfd8      	it	le
 800040c:	f1c2 0c20 	rsble	ip, r2, #32
 8000410:	fa01 f102 	lsl.w	r1, r1, r2
 8000414:	fa20 fc0c 	lsr.w	ip, r0, ip
 8000418:	bfdc      	itt	le
 800041a:	ea41 010c 	orrle.w	r1, r1, ip
 800041e:	4090      	lslle	r0, r2
 8000420:	1ae4      	subs	r4, r4, r3
 8000422:	bfa2      	ittt	ge
 8000424:	eb01 5104 	addge.w	r1, r1, r4, lsl #20
 8000428:	4329      	orrge	r1, r5
 800042a:	bd30      	popge	{r4, r5, pc}
 800042c:	ea6f 0404 	mvn.w	r4, r4
 8000430:	3c1f      	subs	r4, #31
 8000432:	da1c      	bge.n	800046e <__adddf3+0x1d2>
 8000434:	340c      	adds	r4, #12
 8000436:	dc0e      	bgt.n	8000456 <__adddf3+0x1ba>
 8000438:	f104 0414 	add.w	r4, r4, #20
 800043c:	f1c4 0220 	rsb	r2, r4, #32
 8000440:	fa20 f004 	lsr.w	r0, r0, r4
 8000444:	fa01 f302 	lsl.w	r3, r1, r2
 8000448:	ea40 0003 	orr.w	r0, r0, r3
 800044c:	fa21 f304 	lsr.w	r3, r1, r4
 8000450:	ea45 0103 	orr.w	r1, r5, r3
 8000454:	bd30      	pop	{r4, r5, pc}
 8000456:	f1c4 040c 	rsb	r4, r4, #12
 800045a:	f1c4 0220 	rsb	r2, r4, #32
 800045e:	fa20 f002 	lsr.w	r0, r0, r2
 8000462:	fa01 f304 	lsl.w	r3, r1, r4
 8000466:	ea40 0003 	orr.w	r0, r0, r3
 800046a:	4629      	mov	r1, r5
 800046c:	bd30      	pop	{r4, r5, pc}
 800046e:	fa21 f004 	lsr.w	r0, r1, r4
 8000472:	4629      	mov	r1, r5
 8000474:	bd30      	pop	{r4, r5, pc}
 8000476:	f094 0f00 	teq	r4, #0
 800047a:	f483 1380 	eor.w	r3, r3, #1048576	; 0x100000
 800047e:	bf06      	itte	eq
 8000480:	f481 1180 	eoreq.w	r1, r1, #1048576	; 0x100000
 8000484:	3401      	addeq	r4, #1
 8000486:	3d01      	subne	r5, #1
 8000488:	e74e      	b.n	8000328 <__adddf3+0x8c>
 800048a:	ea7f 5c64 	mvns.w	ip, r4, asr #21
 800048e:	bf18      	it	ne
 8000490:	ea7f 5c65 	mvnsne.w	ip, r5, asr #21
 8000494:	d029      	beq.n	80004ea <__adddf3+0x24e>
 8000496:	ea94 0f05 	teq	r4, r5
 800049a:	bf08      	it	eq
 800049c:	ea90 0f02 	teqeq	r0, r2
 80004a0:	d005      	beq.n	80004ae <__adddf3+0x212>
 80004a2:	ea54 0c00 	orrs.w	ip, r4, r0
 80004a6:	bf04      	itt	eq
 80004a8:	4619      	moveq	r1, r3
 80004aa:	4610      	moveq	r0, r2
 80004ac:	bd30      	pop	{r4, r5, pc}
 80004ae:	ea91 0f03 	teq	r1, r3
 80004b2:	bf1e      	ittt	ne
 80004b4:	2100      	movne	r1, #0
 80004b6:	2000      	movne	r0, #0
 80004b8:	bd30      	popne	{r4, r5, pc}
 80004ba:	ea5f 5c54 	movs.w	ip, r4, lsr #21
 80004be:	d105      	bne.n	80004cc <__adddf3+0x230>
 80004c0:	0040      	lsls	r0, r0, #1
 80004c2:	4149      	adcs	r1, r1
 80004c4:	bf28      	it	cs
 80004c6:	f041 4100 	orrcs.w	r1, r1, #2147483648	; 0x80000000
 80004ca:	bd30      	pop	{r4, r5, pc}
 80004cc:	f514 0480 	adds.w	r4, r4, #4194304	; 0x400000
 80004d0:	bf3c      	itt	cc
 80004d2:	f501 1180 	addcc.w	r1, r1, #1048576	; 0x100000
 80004d6:	bd30      	popcc	{r4, r5, pc}
 80004d8:	f001 4500 	and.w	r5, r1, #2147483648	; 0x80000000
 80004dc:	f045 41fe 	orr.w	r1, r5, #2130706432	; 0x7f000000
 80004e0:	f441 0170 	orr.w	r1, r1, #15728640	; 0xf00000
 80004e4:	f04f 0000 	mov.w	r0, #0
 80004e8:	bd30      	pop	{r4, r5, pc}
 80004ea:	ea7f 5c64 	mvns.w	ip, r4, asr #21
 80004ee:	bf1a      	itte	ne
 80004f0:	4619      	movne	r1, r3
 80004f2:	4610      	movne	r0, r2
 80004f4:	ea7f 5c65 	mvnseq.w	ip, r5, asr #21
 80004f8:	bf1c      	itt	ne
 80004fa:	460b      	movne	r3, r1
 80004fc:	4602      	movne	r2, r0
 80004fe:	ea50 3401 	orrs.w	r4, r0, r1, lsl #12
 8000502:	bf06      	itte	eq
 8000504:	ea52 3503 	orrseq.w	r5, r2, r3, lsl #12
 8000508:	ea91 0f03 	teqeq	r1, r3
 800050c:	f441 2100 	orrne.w	r1, r1, #524288	; 0x80000
 8000510:	bd30      	pop	{r4, r5, pc}
 8000512:	bf00      	nop

08000514 <__aeabi_ui2d>:
 8000514:	f090 0f00 	teq	r0, #0
 8000518:	bf04      	itt	eq
 800051a:	2100      	moveq	r1, #0
 800051c:	4770      	bxeq	lr
 800051e:	b530      	push	{r4, r5, lr}
 8000520:	f44f 6480 	mov.w	r4, #1024	; 0x400
 8000524:	f104 0432 	add.w	r4, r4, #50	; 0x32
 8000528:	f04f 0500 	mov.w	r5, #0
 800052c:	f04f 0100 	mov.w	r1, #0
 8000530:	e750      	b.n	80003d4 <__adddf3+0x138>
 8000532:	bf00      	nop

08000534 <__aeabi_i2d>:
 8000534:	f090 0f00 	teq	r0, #0
 8000538:	bf04      	itt	eq
 800053a:	2100      	moveq	r1, #0
 800053c:	4770      	bxeq	lr
 800053e:	b530      	push	{r4, r5, lr}
 8000540:	f44f 6480 	mov.w	r4, #1024	; 0x400
 8000544:	f104 0432 	add.w	r4, r4, #50	; 0x32
 8000548:	f010 4500 	ands.w	r5, r0, #2147483648	; 0x80000000
 800054c:	bf48      	it	mi
 800054e:	4240      	negmi	r0, r0
 8000550:	f04f 0100 	mov.w	r1, #0
 8000554:	e73e      	b.n	80003d4 <__adddf3+0x138>
 8000556:	bf00      	nop

08000558 <__aeabi_f2d>:
 8000558:	0042      	lsls	r2, r0, #1
 800055a:	ea4f 01e2 	mov.w	r1, r2, asr #3
 800055e:	ea4f 0131 	mov.w	r1, r1, rrx
 8000562:	ea4f 7002 	mov.w	r0, r2, lsl #28
 8000566:	bf1f      	itttt	ne
 8000568:	f012 437f 	andsne.w	r3, r2, #4278190080	; 0xff000000
 800056c:	f093 4f7f 	teqne	r3, #4278190080	; 0xff000000
 8000570:	f081 5160 	eorne.w	r1, r1, #939524096	; 0x38000000
 8000574:	4770      	bxne	lr
 8000576:	f092 0f00 	teq	r2, #0
 800057a:	bf14      	ite	ne
 800057c:	f093 4f7f 	teqne	r3, #4278190080	; 0xff000000
 8000580:	4770      	bxeq	lr
 8000582:	b530      	push	{r4, r5, lr}
 8000584:	f44f 7460 	mov.w	r4, #896	; 0x380
 8000588:	f001 4500 	and.w	r5, r1, #2147483648	; 0x80000000
 800058c:	f021 4100 	bic.w	r1, r1, #2147483648	; 0x80000000
 8000590:	e720      	b.n	80003d4 <__adddf3+0x138>
 8000592:	bf00      	nop

08000594 <__aeabi_ul2d>:
 8000594:	ea50 0201 	orrs.w	r2, r0, r1
 8000598:	bf08      	it	eq
 800059a:	4770      	bxeq	lr
 800059c:	b530      	push	{r4, r5, lr}
 800059e:	f04f 0500 	mov.w	r5, #0
 80005a2:	e00a      	b.n	80005ba <__aeabi_l2d+0x16>

080005a4 <__aeabi_l2d>:
 80005a4:	ea50 0201 	orrs.w	r2, r0, r1
 80005a8:	bf08      	it	eq
 80005aa:	4770      	bxeq	lr
 80005ac:	b530      	push	{r4, r5, lr}
 80005ae:	f011 4500 	ands.w	r5, r1, #2147483648	; 0x80000000
 80005b2:	d502      	bpl.n	80005ba <__aeabi_l2d+0x16>
 80005b4:	4240      	negs	r0, r0
 80005b6:	eb61 0141 	sbc.w	r1, r1, r1, lsl #1
 80005ba:	f44f 6480 	mov.w	r4, #1024	; 0x400
 80005be:	f104 0432 	add.w	r4, r4, #50	; 0x32
 80005c2:	ea5f 5c91 	movs.w	ip, r1, lsr #22
 80005c6:	f43f aedc 	beq.w	8000382 <__adddf3+0xe6>
 80005ca:	f04f 0203 	mov.w	r2, #3
 80005ce:	ea5f 0cdc 	movs.w	ip, ip, lsr #3
 80005d2:	bf18      	it	ne
 80005d4:	3203      	addne	r2, #3
 80005d6:	ea5f 0cdc 	movs.w	ip, ip, lsr #3
 80005da:	bf18      	it	ne
 80005dc:	3203      	addne	r2, #3
 80005de:	eb02 02dc 	add.w	r2, r2, ip, lsr #3
 80005e2:	f1c2 0320 	rsb	r3, r2, #32
 80005e6:	fa00 fc03 	lsl.w	ip, r0, r3
 80005ea:	fa20 f002 	lsr.w	r0, r0, r2
 80005ee:	fa01 fe03 	lsl.w	lr, r1, r3
 80005f2:	ea40 000e 	orr.w	r0, r0, lr
 80005f6:	fa21 f102 	lsr.w	r1, r1, r2
 80005fa:	4414      	add	r4, r2
 80005fc:	e6c1      	b.n	8000382 <__adddf3+0xe6>
 80005fe:	bf00      	nop

08000600 <__aeabi_dmul>:
 8000600:	b570      	push	{r4, r5, r6, lr}
 8000602:	f04f 0cff 	mov.w	ip, #255	; 0xff
 8000606:	f44c 6ce0 	orr.w	ip, ip, #1792	; 0x700
 800060a:	ea1c 5411 	ands.w	r4, ip, r1, lsr #20
 800060e:	bf1d      	ittte	ne
 8000610:	ea1c 5513 	andsne.w	r5, ip, r3, lsr #20
 8000614:	ea94 0f0c 	teqne	r4, ip
 8000618:	ea95 0f0c 	teqne	r5, ip
 800061c:	f000 f8de 	bleq	80007dc <__aeabi_dmul+0x1dc>
 8000620:	442c      	add	r4, r5
 8000622:	ea81 0603 	eor.w	r6, r1, r3
 8000626:	ea21 514c 	bic.w	r1, r1, ip, lsl #21
 800062a:	ea23 534c 	bic.w	r3, r3, ip, lsl #21
 800062e:	ea50 3501 	orrs.w	r5, r0, r1, lsl #12
 8000632:	bf18      	it	ne
 8000634:	ea52 3503 	orrsne.w	r5, r2, r3, lsl #12
 8000638:	f441 1180 	orr.w	r1, r1, #1048576	; 0x100000
 800063c:	f443 1380 	orr.w	r3, r3, #1048576	; 0x100000
 8000640:	d038      	beq.n	80006b4 <__aeabi_dmul+0xb4>
 8000642:	fba0 ce02 	umull	ip, lr, r0, r2
 8000646:	f04f 0500 	mov.w	r5, #0
 800064a:	fbe1 e502 	umlal	lr, r5, r1, r2
 800064e:	f006 4200 	and.w	r2, r6, #2147483648	; 0x80000000
 8000652:	fbe0 e503 	umlal	lr, r5, r0, r3
 8000656:	f04f 0600 	mov.w	r6, #0
 800065a:	fbe1 5603 	umlal	r5, r6, r1, r3
 800065e:	f09c 0f00 	teq	ip, #0
 8000662:	bf18      	it	ne
 8000664:	f04e 0e01 	orrne.w	lr, lr, #1
 8000668:	f1a4 04ff 	sub.w	r4, r4, #255	; 0xff
 800066c:	f5b6 7f00 	cmp.w	r6, #512	; 0x200
 8000670:	f564 7440 	sbc.w	r4, r4, #768	; 0x300
 8000674:	d204      	bcs.n	8000680 <__aeabi_dmul+0x80>
 8000676:	ea5f 0e4e 	movs.w	lr, lr, lsl #1
 800067a:	416d      	adcs	r5, r5
 800067c:	eb46 0606 	adc.w	r6, r6, r6
 8000680:	ea42 21c6 	orr.w	r1, r2, r6, lsl #11
 8000684:	ea41 5155 	orr.w	r1, r1, r5, lsr #21
 8000688:	ea4f 20c5 	mov.w	r0, r5, lsl #11
 800068c:	ea40 505e 	orr.w	r0, r0, lr, lsr #21
 8000690:	ea4f 2ece 	mov.w	lr, lr, lsl #11
 8000694:	f1b4 0cfd 	subs.w	ip, r4, #253	; 0xfd
 8000698:	bf88      	it	hi
 800069a:	f5bc 6fe0 	cmphi.w	ip, #1792	; 0x700
 800069e:	d81e      	bhi.n	80006de <__aeabi_dmul+0xde>
 80006a0:	f1be 4f00 	cmp.w	lr, #2147483648	; 0x80000000
 80006a4:	bf08      	it	eq
 80006a6:	ea5f 0e50 	movseq.w	lr, r0, lsr #1
 80006aa:	f150 0000 	adcs.w	r0, r0, #0
 80006ae:	eb41 5104 	adc.w	r1, r1, r4, lsl #20
 80006b2:	bd70      	pop	{r4, r5, r6, pc}
 80006b4:	f006 4600 	and.w	r6, r6, #2147483648	; 0x80000000
 80006b8:	ea46 0101 	orr.w	r1, r6, r1
 80006bc:	ea40 0002 	orr.w	r0, r0, r2
 80006c0:	ea81 0103 	eor.w	r1, r1, r3
 80006c4:	ebb4 045c 	subs.w	r4, r4, ip, lsr #1
 80006c8:	bfc2      	ittt	gt
 80006ca:	ebd4 050c 	rsbsgt	r5, r4, ip
 80006ce:	ea41 5104 	orrgt.w	r1, r1, r4, lsl #20
 80006d2:	bd70      	popgt	{r4, r5, r6, pc}
 80006d4:	f441 1180 	orr.w	r1, r1, #1048576	; 0x100000
 80006d8:	f04f 0e00 	mov.w	lr, #0
 80006dc:	3c01      	subs	r4, #1
 80006de:	f300 80ab 	bgt.w	8000838 <__aeabi_dmul+0x238>
 80006e2:	f114 0f36 	cmn.w	r4, #54	; 0x36
 80006e6:	bfde      	ittt	le
 80006e8:	2000      	movle	r0, #0
 80006ea:	f001 4100 	andle.w	r1, r1, #2147483648	; 0x80000000
 80006ee:	bd70      	pople	{r4, r5, r6, pc}
 80006f0:	f1c4 0400 	rsb	r4, r4, #0
 80006f4:	3c20      	subs	r4, #32
 80006f6:	da35      	bge.n	8000764 <__aeabi_dmul+0x164>
 80006f8:	340c      	adds	r4, #12
 80006fa:	dc1b      	bgt.n	8000734 <__aeabi_dmul+0x134>
 80006fc:	f104 0414 	add.w	r4, r4, #20
 8000700:	f1c4 0520 	rsb	r5, r4, #32
 8000704:	fa00 f305 	lsl.w	r3, r0, r5
 8000708:	fa20 f004 	lsr.w	r0, r0, r4
 800070c:	fa01 f205 	lsl.w	r2, r1, r5
 8000710:	ea40 0002 	orr.w	r0, r0, r2
 8000714:	f001 4200 	and.w	r2, r1, #2147483648	; 0x80000000
 8000718:	f021 4100 	bic.w	r1, r1, #2147483648	; 0x80000000
 800071c:	eb10 70d3 	adds.w	r0, r0, r3, lsr #31
 8000720:	fa21 f604 	lsr.w	r6, r1, r4
 8000724:	eb42 0106 	adc.w	r1, r2, r6
 8000728:	ea5e 0e43 	orrs.w	lr, lr, r3, lsl #1
 800072c:	bf08      	it	eq
 800072e:	ea20 70d3 	biceq.w	r0, r0, r3, lsr #31
 8000732:	bd70      	pop	{r4, r5, r6, pc}
 8000734:	f1c4 040c 	rsb	r4, r4, #12
 8000738:	f1c4 0520 	rsb	r5, r4, #32
 800073c:	fa00 f304 	lsl.w	r3, r0, r4
 8000740:	fa20 f005 	lsr.w	r0, r0, r5
 8000744:	fa01 f204 	lsl.w	r2, r1, r4
 8000748:	ea40 0002 	orr.w	r0, r0, r2
 800074c:	f001 4100 	and.w	r1, r1, #2147483648	; 0x80000000
 8000750:	eb10 70d3 	adds.w	r0, r0, r3, lsr #31
 8000754:	f141 0100 	adc.w	r1, r1, #0
 8000758:	ea5e 0e43 	orrs.w	lr, lr, r3, lsl #1
 800075c:	bf08      	it	eq
 800075e:	ea20 70d3 	biceq.w	r0, r0, r3, lsr #31
 8000762:	bd70      	pop	{r4, r5, r6, pc}
 8000764:	f1c4 0520 	rsb	r5, r4, #32
 8000768:	fa00 f205 	lsl.w	r2, r0, r5
 800076c:	ea4e 0e02 	orr.w	lr, lr, r2
 8000770:	fa20 f304 	lsr.w	r3, r0, r4
 8000774:	fa01 f205 	lsl.w	r2, r1, r5
 8000778:	ea43 0302 	orr.w	r3, r3, r2
 800077c:	fa21 f004 	lsr.w	r0, r1, r4
 8000780:	f001 4100 	and.w	r1, r1, #2147483648	; 0x80000000
 8000784:	fa21 f204 	lsr.w	r2, r1, r4
 8000788:	ea20 0002 	bic.w	r0, r0, r2
 800078c:	eb00 70d3 	add.w	r0, r0, r3, lsr #31
 8000790:	ea5e 0e43 	orrs.w	lr, lr, r3, lsl #1
 8000794:	bf08      	it	eq
 8000796:	ea20 70d3 	biceq.w	r0, r0, r3, lsr #31
 800079a:	bd70      	pop	{r4, r5, r6, pc}
 800079c:	f094 0f00 	teq	r4, #0
 80007a0:	d10f      	bne.n	80007c2 <__aeabi_dmul+0x1c2>
 80007a2:	f001 4600 	and.w	r6, r1, #2147483648	; 0x80000000
 80007a6:	0040      	lsls	r0, r0, #1
 80007a8:	eb41 0101 	adc.w	r1, r1, r1
 80007ac:	f411 1f80 	tst.w	r1, #1048576	; 0x100000
 80007b0:	bf08      	it	eq
 80007b2:	3c01      	subeq	r4, #1
 80007b4:	d0f7      	beq.n	80007a6 <__aeabi_dmul+0x1a6>
 80007b6:	ea41 0106 	orr.w	r1, r1, r6
 80007ba:	f095 0f00 	teq	r5, #0
 80007be:	bf18      	it	ne
 80007c0:	4770      	bxne	lr
 80007c2:	f003 4600 	and.w	r6, r3, #2147483648	; 0x80000000
 80007c6:	0052      	lsls	r2, r2, #1
 80007c8:	eb43 0303 	adc.w	r3, r3, r3
 80007cc:	f413 1f80 	tst.w	r3, #1048576	; 0x100000
 80007d0:	bf08      	it	eq
 80007d2:	3d01      	subeq	r5, #1
 80007d4:	d0f7      	beq.n	80007c6 <__aeabi_dmul+0x1c6>
 80007d6:	ea43 0306 	orr.w	r3, r3, r6
 80007da:	4770      	bx	lr
 80007dc:	ea94 0f0c 	teq	r4, ip
 80007e0:	ea0c 5513 	and.w	r5, ip, r3, lsr #20
 80007e4:	bf18      	it	ne
 80007e6:	ea95 0f0c 	teqne	r5, ip
 80007ea:	d00c      	beq.n	8000806 <__aeabi_dmul+0x206>
 80007ec:	ea50 0641 	orrs.w	r6, r0, r1, lsl #1
 80007f0:	bf18      	it	ne
 80007f2:	ea52 0643 	orrsne.w	r6, r2, r3, lsl #1
 80007f6:	d1d1      	bne.n	800079c <__aeabi_dmul+0x19c>
 80007f8:	ea81 0103 	eor.w	r1, r1, r3
 80007fc:	f001 4100 	and.w	r1, r1, #2147483648	; 0x80000000
 8000800:	f04f 0000 	mov.w	r0, #0
 8000804:	bd70      	pop	{r4, r5, r6, pc}
 8000806:	ea50 0641 	orrs.w	r6, r0, r1, lsl #1
 800080a:	bf06      	itte	eq
 800080c:	4610      	moveq	r0, r2
 800080e:	4619      	moveq	r1, r3
 8000810:	ea52 0643 	orrsne.w	r6, r2, r3, lsl #1
 8000814:	d019      	beq.n	800084a <__aeabi_dmul+0x24a>
 8000816:	ea94 0f0c 	teq	r4, ip
 800081a:	d102      	bne.n	8000822 <__aeabi_dmul+0x222>
 800081c:	ea50 3601 	orrs.w	r6, r0, r1, lsl #12
 8000820:	d113      	bne.n	800084a <__aeabi_dmul+0x24a>
 8000822:	ea95 0f0c 	teq	r5, ip
 8000826:	d105      	bne.n	8000834 <__aeabi_dmul+0x234>
 8000828:	ea52 3603 	orrs.w	r6, r2, r3, lsl #12
 800082c:	bf1c      	itt	ne
 800082e:	4610      	movne	r0, r2
 8000830:	4619      	movne	r1, r3
 8000832:	d10a      	bne.n	800084a <__aeabi_dmul+0x24a>
 8000834:	ea81 0103 	eor.w	r1, r1, r3
 8000838:	f001 4100 	and.w	r1, r1, #2147483648	; 0x80000000
 800083c:	f041 41fe 	orr.w	r1, r1, #2130706432	; 0x7f000000
 8000840:	f441 0170 	orr.w	r1, r1, #15728640	; 0xf00000
 8000844:	f04f 0000 	mov.w	r0, #0
 8000848:	bd70      	pop	{r4, r5, r6, pc}
 800084a:	f041 41fe 	orr.w	r1, r1, #2130706432	; 0x7f000000
 800084e:	f441 0178 	orr.w	r1, r1, #16252928	; 0xf80000
 8000852:	bd70      	pop	{r4, r5, r6, pc}

08000854 <__aeabi_ddiv>:
 8000854:	b570      	push	{r4, r5, r6, lr}
 8000856:	f04f 0cff 	mov.w	ip, #255	; 0xff
 800085a:	f44c 6ce0 	orr.w	ip, ip, #1792	; 0x700
 800085e:	ea1c 5411 	ands.w	r4, ip, r1, lsr #20
 8000862:	bf1d      	ittte	ne
 8000864:	ea1c 5513 	andsne.w	r5, ip, r3, lsr #20
 8000868:	ea94 0f0c 	teqne	r4, ip
 800086c:	ea95 0f0c 	teqne	r5, ip
 8000870:	f000 f8a7 	bleq	80009c2 <__aeabi_ddiv+0x16e>
 8000874:	eba4 0405 	sub.w	r4, r4, r5
 8000878:	ea81 0e03 	eor.w	lr, r1, r3
 800087c:	ea52 3503 	orrs.w	r5, r2, r3, lsl #12
 8000880:	ea4f 3101 	mov.w	r1, r1, lsl #12
 8000884:	f000 8088 	beq.w	8000998 <__aeabi_ddiv+0x144>
 8000888:	ea4f 3303 	mov.w	r3, r3, lsl #12
 800088c:	f04f 5580 	mov.w	r5, #268435456	; 0x10000000
 8000890:	ea45 1313 	orr.w	r3, r5, r3, lsr #4
 8000894:	ea43 6312 	orr.w	r3, r3, r2, lsr #24
 8000898:	ea4f 2202 	mov.w	r2, r2, lsl #8
 800089c:	ea45 1511 	orr.w	r5, r5, r1, lsr #4
 80008a0:	ea45 6510 	orr.w	r5, r5, r0, lsr #24
 80008a4:	ea4f 2600 	mov.w	r6, r0, lsl #8
 80008a8:	f00e 4100 	and.w	r1, lr, #2147483648	; 0x80000000
 80008ac:	429d      	cmp	r5, r3
 80008ae:	bf08      	it	eq
 80008b0:	4296      	cmpeq	r6, r2
 80008b2:	f144 04fd 	adc.w	r4, r4, #253	; 0xfd
 80008b6:	f504 7440 	add.w	r4, r4, #768	; 0x300
 80008ba:	d202      	bcs.n	80008c2 <__aeabi_ddiv+0x6e>
 80008bc:	085b      	lsrs	r3, r3, #1
 80008be:	ea4f 0232 	mov.w	r2, r2, rrx
 80008c2:	1ab6      	subs	r6, r6, r2
 80008c4:	eb65 0503 	sbc.w	r5, r5, r3
 80008c8:	085b      	lsrs	r3, r3, #1
 80008ca:	ea4f 0232 	mov.w	r2, r2, rrx
 80008ce:	f44f 1080 	mov.w	r0, #1048576	; 0x100000
 80008d2:	f44f 2c00 	mov.w	ip, #524288	; 0x80000
 80008d6:	ebb6 0e02 	subs.w	lr, r6, r2
 80008da:	eb75 0e03 	sbcs.w	lr, r5, r3
 80008de:	bf22      	ittt	cs
 80008e0:	1ab6      	subcs	r6, r6, r2
 80008e2:	4675      	movcs	r5, lr
 80008e4:	ea40 000c 	orrcs.w	r0, r0, ip
 80008e8:	085b      	lsrs	r3, r3, #1
 80008ea:	ea4f 0232 	mov.w	r2, r2, rrx
 80008ee:	ebb6 0e02 	subs.w	lr, r6, r2
 80008f2:	eb75 0e03 	sbcs.w	lr, r5, r3
 80008f6:	bf22      	ittt	cs
 80008f8:	1ab6      	subcs	r6, r6, r2
 80008fa:	4675      	movcs	r5, lr
 80008fc:	ea40 005c 	orrcs.w	r0, r0, ip, lsr #1
 8000900:	085b      	lsrs	r3, r3, #1
 8000902:	ea4f 0232 	mov.w	r2, r2, rrx
 8000906:	ebb6 0e02 	subs.w	lr, r6, r2
 800090a:	eb75 0e03 	sbcs.w	lr, r5, r3
 800090e:	bf22      	ittt	cs
 8000910:	1ab6      	subcs	r6, r6, r2
 8000912:	4675      	movcs	r5, lr
 8000914:	ea40 009c 	orrcs.w	r0, r0, ip, lsr #2
 8000918:	085b      	lsrs	r3, r3, #1
 800091a:	ea4f 0232 	mov.w	r2, r2, rrx
 800091e:	ebb6 0e02 	subs.w	lr, r6, r2
 8000922:	eb75 0e03 	sbcs.w	lr, r5, r3
 8000926:	bf22      	ittt	cs
 8000928:	1ab6      	subcs	r6, r6, r2
 800092a:	4675      	movcs	r5, lr
 800092c:	ea40 00dc 	orrcs.w	r0, r0, ip, lsr #3
 8000930:	ea55 0e06 	orrs.w	lr, r5, r6
 8000934:	d018      	beq.n	8000968 <__aeabi_ddiv+0x114>
 8000936:	ea4f 1505 	mov.w	r5, r5, lsl #4
 800093a:	ea45 7516 	orr.w	r5, r5, r6, lsr #28
 800093e:	ea4f 1606 	mov.w	r6, r6, lsl #4
 8000942:	ea4f 03c3 	mov.w	r3, r3, lsl #3
 8000946:	ea43 7352 	orr.w	r3, r3, r2, lsr #29
 800094a:	ea4f 02c2 	mov.w	r2, r2, lsl #3
 800094e:	ea5f 1c1c 	movs.w	ip, ip, lsr #4
 8000952:	d1c0      	bne.n	80008d6 <__aeabi_ddiv+0x82>
 8000954:	f411 1f80 	tst.w	r1, #1048576	; 0x100000
 8000958:	d10b      	bne.n	8000972 <__aeabi_ddiv+0x11e>
 800095a:	ea41 0100 	orr.w	r1, r1, r0
 800095e:	f04f 0000 	mov.w	r0, #0
 8000962:	f04f 4c00 	mov.w	ip, #2147483648	; 0x80000000
 8000966:	e7b6      	b.n	80008d6 <__aeabi_ddiv+0x82>
 8000968:	f411 1f80 	tst.w	r1, #1048576	; 0x100000
 800096c:	bf04      	itt	eq
 800096e:	4301      	orreq	r1, r0
 8000970:	2000      	moveq	r0, #0
 8000972:	f1b4 0cfd 	subs.w	ip, r4, #253	; 0xfd
 8000976:	bf88      	it	hi
 8000978:	f5bc 6fe0 	cmphi.w	ip, #1792	; 0x700
 800097c:	f63f aeaf 	bhi.w	80006de <__aeabi_dmul+0xde>
 8000980:	ebb5 0c03 	subs.w	ip, r5, r3
 8000984:	bf04      	itt	eq
 8000986:	ebb6 0c02 	subseq.w	ip, r6, r2
 800098a:	ea5f 0c50 	movseq.w	ip, r0, lsr #1
 800098e:	f150 0000 	adcs.w	r0, r0, #0
 8000992:	eb41 5104 	adc.w	r1, r1, r4, lsl #20
 8000996:	bd70      	pop	{r4, r5, r6, pc}
 8000998:	f00e 4e00 	and.w	lr, lr, #2147483648	; 0x80000000
 800099c:	ea4e 3111 	orr.w	r1, lr, r1, lsr #12
 80009a0:	eb14 045c 	adds.w	r4, r4, ip, lsr #1
 80009a4:	bfc2      	ittt	gt
 80009a6:	ebd4 050c 	rsbsgt	r5, r4, ip
 80009aa:	ea41 5104 	orrgt.w	r1, r1, r4, lsl #20
 80009ae:	bd70      	popgt	{r4, r5, r6, pc}
 80009b0:	f441 1180 	orr.w	r1, r1, #1048576	; 0x100000
 80009b4:	f04f 0e00 	mov.w	lr, #0
 80009b8:	3c01      	subs	r4, #1
 80009ba:	e690      	b.n	80006de <__aeabi_dmul+0xde>
 80009bc:	ea45 0e06 	orr.w	lr, r5, r6
 80009c0:	e68d      	b.n	80006de <__aeabi_dmul+0xde>
 80009c2:	ea0c 5513 	and.w	r5, ip, r3, lsr #20
 80009c6:	ea94 0f0c 	teq	r4, ip
 80009ca:	bf08      	it	eq
 80009cc:	ea95 0f0c 	teqeq	r5, ip
 80009d0:	f43f af3b 	beq.w	800084a <__aeabi_dmul+0x24a>
 80009d4:	ea94 0f0c 	teq	r4, ip
 80009d8:	d10a      	bne.n	80009f0 <__aeabi_ddiv+0x19c>
 80009da:	ea50 3401 	orrs.w	r4, r0, r1, lsl #12
 80009de:	f47f af34 	bne.w	800084a <__aeabi_dmul+0x24a>
 80009e2:	ea95 0f0c 	teq	r5, ip
 80009e6:	f47f af25 	bne.w	8000834 <__aeabi_dmul+0x234>
 80009ea:	4610      	mov	r0, r2
 80009ec:	4619      	mov	r1, r3
 80009ee:	e72c      	b.n	800084a <__aeabi_dmul+0x24a>
 80009f0:	ea95 0f0c 	teq	r5, ip
 80009f4:	d106      	bne.n	8000a04 <__aeabi_ddiv+0x1b0>
 80009f6:	ea52 3503 	orrs.w	r5, r2, r3, lsl #12
 80009fa:	f43f aefd 	beq.w	80007f8 <__aeabi_dmul+0x1f8>
 80009fe:	4610      	mov	r0, r2
 8000a00:	4619      	mov	r1, r3
 8000a02:	e722      	b.n	800084a <__aeabi_dmul+0x24a>
 8000a04:	ea50 0641 	orrs.w	r6, r0, r1, lsl #1
 8000a08:	bf18      	it	ne
 8000a0a:	ea52 0643 	orrsne.w	r6, r2, r3, lsl #1
 8000a0e:	f47f aec5 	bne.w	800079c <__aeabi_dmul+0x19c>
 8000a12:	ea50 0441 	orrs.w	r4, r0, r1, lsl #1
 8000a16:	f47f af0d 	bne.w	8000834 <__aeabi_dmul+0x234>
 8000a1a:	ea52 0543 	orrs.w	r5, r2, r3, lsl #1
 8000a1e:	f47f aeeb 	bne.w	80007f8 <__aeabi_dmul+0x1f8>
 8000a22:	e712      	b.n	800084a <__aeabi_dmul+0x24a>

08000a24 <__gedf2>:
 8000a24:	f04f 3cff 	mov.w	ip, #4294967295
 8000a28:	e006      	b.n	8000a38 <__cmpdf2+0x4>
 8000a2a:	bf00      	nop

08000a2c <__ledf2>:
 8000a2c:	f04f 0c01 	mov.w	ip, #1
 8000a30:	e002      	b.n	8000a38 <__cmpdf2+0x4>
 8000a32:	bf00      	nop

08000a34 <__cmpdf2>:
 8000a34:	f04f 0c01 	mov.w	ip, #1
 8000a38:	f84d cd04 	str.w	ip, [sp, #-4]!
 8000a3c:	ea4f 0c41 	mov.w	ip, r1, lsl #1
 8000a40:	ea7f 5c6c 	mvns.w	ip, ip, asr #21
 8000a44:	ea4f 0c43 	mov.w	ip, r3, lsl #1
 8000a48:	bf18      	it	ne
 8000a4a:	ea7f 5c6c 	mvnsne.w	ip, ip, asr #21
 8000a4e:	d01b      	beq.n	8000a88 <__cmpdf2+0x54>
 8000a50:	b001      	add	sp, #4
 8000a52:	ea50 0c41 	orrs.w	ip, r0, r1, lsl #1
 8000a56:	bf0c      	ite	eq
 8000a58:	ea52 0c43 	orrseq.w	ip, r2, r3, lsl #1
 8000a5c:	ea91 0f03 	teqne	r1, r3
 8000a60:	bf02      	ittt	eq
 8000a62:	ea90 0f02 	teqeq	r0, r2
 8000a66:	2000      	moveq	r0, #0
 8000a68:	4770      	bxeq	lr
 8000a6a:	f110 0f00 	cmn.w	r0, #0
 8000a6e:	ea91 0f03 	teq	r1, r3
 8000a72:	bf58      	it	pl
 8000a74:	4299      	cmppl	r1, r3
 8000a76:	bf08      	it	eq
 8000a78:	4290      	cmpeq	r0, r2
 8000a7a:	bf2c      	ite	cs
 8000a7c:	17d8      	asrcs	r0, r3, #31
 8000a7e:	ea6f 70e3 	mvncc.w	r0, r3, asr #31
 8000a82:	f040 0001 	orr.w	r0, r0, #1
 8000a86:	4770      	bx	lr
 8000a88:	ea4f 0c41 	mov.w	ip, r1, lsl #1
 8000a8c:	ea7f 5c6c 	mvns.w	ip, ip, asr #21
 8000a90:	d102      	bne.n	8000a98 <__cmpdf2+0x64>
 8000a92:	ea50 3c01 	orrs.w	ip, r0, r1, lsl #12
 8000a96:	d107      	bne.n	8000aa8 <__cmpdf2+0x74>
 8000a98:	ea4f 0c43 	mov.w	ip, r3, lsl #1
 8000a9c:	ea7f 5c6c 	mvns.w	ip, ip, asr #21
 8000aa0:	d1d6      	bne.n	8000a50 <__cmpdf2+0x1c>
 8000aa2:	ea52 3c03 	orrs.w	ip, r2, r3, lsl #12
 8000aa6:	d0d3      	beq.n	8000a50 <__cmpdf2+0x1c>
 8000aa8:	f85d 0b04 	ldr.w	r0, [sp], #4
 8000aac:	4770      	bx	lr
 8000aae:	bf00      	nop

08000ab0 <__aeabi_cdrcmple>:
 8000ab0:	4684      	mov	ip, r0
 8000ab2:	4610      	mov	r0, r2
 8000ab4:	4662      	mov	r2, ip
 8000ab6:	468c      	mov	ip, r1
 8000ab8:	4619      	mov	r1, r3
 8000aba:	4663      	mov	r3, ip
 8000abc:	e000      	b.n	8000ac0 <__aeabi_cdcmpeq>
 8000abe:	bf00      	nop

08000ac0 <__aeabi_cdcmpeq>:
 8000ac0:	b501      	push	{r0, lr}
 8000ac2:	f7ff ffb7 	bl	8000a34 <__cmpdf2>
 8000ac6:	2800      	cmp	r0, #0
 8000ac8:	bf48      	it	mi
 8000aca:	f110 0f00 	cmnmi.w	r0, #0
 8000ace:	bd01      	pop	{r0, pc}

08000ad0 <__aeabi_dcmpeq>:
 8000ad0:	f84d ed08 	str.w	lr, [sp, #-8]!
 8000ad4:	f7ff fff4 	bl	8000ac0 <__aeabi_cdcmpeq>
 8000ad8:	bf0c      	ite	eq
 8000ada:	2001      	moveq	r0, #1
 8000adc:	2000      	movne	r0, #0
 8000ade:	f85d fb08 	ldr.w	pc, [sp], #8
 8000ae2:	bf00      	nop

08000ae4 <__aeabi_dcmplt>:
 8000ae4:	f84d ed08 	str.w	lr, [sp, #-8]!
 8000ae8:	f7ff ffea 	bl	8000ac0 <__aeabi_cdcmpeq>
 8000aec:	bf34      	ite	cc
 8000aee:	2001      	movcc	r0, #1
 8000af0:	2000      	movcs	r0, #0
 8000af2:	f85d fb08 	ldr.w	pc, [sp], #8
 8000af6:	bf00      	nop

08000af8 <__aeabi_dcmple>:
 8000af8:	f84d ed08 	str.w	lr, [sp, #-8]!
 8000afc:	f7ff ffe0 	bl	8000ac0 <__aeabi_cdcmpeq>
 8000b00:	bf94      	ite	ls
 8000b02:	2001      	movls	r0, #1
 8000b04:	2000      	movhi	r0, #0
 8000b06:	f85d fb08 	ldr.w	pc, [sp], #8
 8000b0a:	bf00      	nop

08000b0c <__aeabi_dcmpge>:
 8000b0c:	f84d ed08 	str.w	lr, [sp, #-8]!
 8000b10:	f7ff ffce 	bl	8000ab0 <__aeabi_cdrcmple>
 8000b14:	bf94      	ite	ls
 8000b16:	2001      	movls	r0, #1
 8000b18:	2000      	movhi	r0, #0
 8000b1a:	f85d fb08 	ldr.w	pc, [sp], #8
 8000b1e:	bf00      	nop

08000b20 <__aeabi_dcmpgt>:
 8000b20:	f84d ed08 	str.w	lr, [sp, #-8]!
 8000b24:	f7ff ffc4 	bl	8000ab0 <__aeabi_cdrcmple>
 8000b28:	bf34      	ite	cc
 8000b2a:	2001      	movcc	r0, #1
 8000b2c:	2000      	movcs	r0, #0
 8000b2e:	f85d fb08 	ldr.w	pc, [sp], #8
 8000b32:	bf00      	nop

08000b34 <__aeabi_dcmpun>:
 8000b34:	ea4f 0c41 	mov.w	ip, r1, lsl #1
 8000b38:	ea7f 5c6c 	mvns.w	ip, ip, asr #21
 8000b3c:	d102      	bne.n	8000b44 <__aeabi_dcmpun+0x10>
 8000b3e:	ea50 3c01 	orrs.w	ip, r0, r1, lsl #12
 8000b42:	d10a      	bne.n	8000b5a <__aeabi_dcmpun+0x26>
 8000b44:	ea4f 0c43 	mov.w	ip, r3, lsl #1
 8000b48:	ea7f 5c6c 	mvns.w	ip, ip, asr #21
 8000b4c:	d102      	bne.n	8000b54 <__aeabi_dcmpun+0x20>
 8000b4e:	ea52 3c03 	orrs.w	ip, r2, r3, lsl #12
 8000b52:	d102      	bne.n	8000b5a <__aeabi_dcmpun+0x26>
 8000b54:	f04f 0000 	mov.w	r0, #0
 8000b58:	4770      	bx	lr
 8000b5a:	f04f 0001 	mov.w	r0, #1
 8000b5e:	4770      	bx	lr

08000b60 <__aeabi_d2iz>:
 8000b60:	ea4f 0241 	mov.w	r2, r1, lsl #1
 8000b64:	f512 1200 	adds.w	r2, r2, #2097152	; 0x200000
 8000b68:	d215      	bcs.n	8000b96 <__aeabi_d2iz+0x36>
 8000b6a:	d511      	bpl.n	8000b90 <__aeabi_d2iz+0x30>
 8000b6c:	f46f 7378 	mvn.w	r3, #992	; 0x3e0
 8000b70:	ebb3 5262 	subs.w	r2, r3, r2, asr #21
 8000b74:	d912      	bls.n	8000b9c <__aeabi_d2iz+0x3c>
 8000b76:	ea4f 23c1 	mov.w	r3, r1, lsl #11
 8000b7a:	f043 4300 	orr.w	r3, r3, #2147483648	; 0x80000000
 8000b7e:	ea43 5350 	orr.w	r3, r3, r0, lsr #21
 8000b82:	f011 4f00 	tst.w	r1, #2147483648	; 0x80000000
 8000b86:	fa23 f002 	lsr.w	r0, r3, r2
 8000b8a:	bf18      	it	ne
 8000b8c:	4240      	negne	r0, r0
 8000b8e:	4770      	bx	lr
 8000b90:	f04f 0000 	mov.w	r0, #0
 8000b94:	4770      	bx	lr
 8000b96:	ea50 3001 	orrs.w	r0, r0, r1, lsl #12
 8000b9a:	d105      	bne.n	8000ba8 <__aeabi_d2iz+0x48>
 8000b9c:	f011 4000 	ands.w	r0, r1, #2147483648	; 0x80000000
 8000ba0:	bf08      	it	eq
 8000ba2:	f06f 4000 	mvneq.w	r0, #2147483648	; 0x80000000
 8000ba6:	4770      	bx	lr
 8000ba8:	f04f 0000 	mov.w	r0, #0
 8000bac:	4770      	bx	lr
 8000bae:	bf00      	nop

08000bb0 <__aeabi_uldivmod>:
 8000bb0:	b953      	cbnz	r3, 8000bc8 <__aeabi_uldivmod+0x18>
 8000bb2:	b94a      	cbnz	r2, 8000bc8 <__aeabi_uldivmod+0x18>
 8000bb4:	2900      	cmp	r1, #0
 8000bb6:	bf08      	it	eq
 8000bb8:	2800      	cmpeq	r0, #0
 8000bba:	bf1c      	itt	ne
 8000bbc:	f04f 31ff 	movne.w	r1, #4294967295
 8000bc0:	f04f 30ff 	movne.w	r0, #4294967295
 8000bc4:	f000 b97a 	b.w	8000ebc <__aeabi_idiv0>
 8000bc8:	f1ad 0c08 	sub.w	ip, sp, #8
 8000bcc:	e96d ce04 	strd	ip, lr, [sp, #-16]!
 8000bd0:	f000 f806 	bl	8000be0 <__udivmoddi4>
 8000bd4:	f8dd e004 	ldr.w	lr, [sp, #4]
 8000bd8:	e9dd 2302 	ldrd	r2, r3, [sp, #8]
 8000bdc:	b004      	add	sp, #16
 8000bde:	4770      	bx	lr

08000be0 <__udivmoddi4>:
 8000be0:	e92d 47f0 	stmdb	sp!, {r4, r5, r6, r7, r8, r9, sl, lr}
 8000be4:	468c      	mov	ip, r1
 8000be6:	460d      	mov	r5, r1
 8000be8:	4604      	mov	r4, r0
 8000bea:	9e08      	ldr	r6, [sp, #32]
 8000bec:	2b00      	cmp	r3, #0
 8000bee:	d151      	bne.n	8000c94 <__udivmoddi4+0xb4>
 8000bf0:	428a      	cmp	r2, r1
 8000bf2:	4617      	mov	r7, r2
 8000bf4:	d96d      	bls.n	8000cd2 <__udivmoddi4+0xf2>
 8000bf6:	fab2 fe82 	clz	lr, r2
 8000bfa:	f1be 0f00 	cmp.w	lr, #0
 8000bfe:	d00b      	beq.n	8000c18 <__udivmoddi4+0x38>
 8000c00:	f1ce 0c20 	rsb	ip, lr, #32
 8000c04:	fa01 f50e 	lsl.w	r5, r1, lr
 8000c08:	fa20 fc0c 	lsr.w	ip, r0, ip
 8000c0c:	fa02 f70e 	lsl.w	r7, r2, lr
 8000c10:	ea4c 0c05 	orr.w	ip, ip, r5
 8000c14:	fa00 f40e 	lsl.w	r4, r0, lr
 8000c18:	ea4f 4a17 	mov.w	sl, r7, lsr #16
 8000c1c:	0c25      	lsrs	r5, r4, #16
 8000c1e:	fbbc f8fa 	udiv	r8, ip, sl
 8000c22:	fa1f f987 	uxth.w	r9, r7
 8000c26:	fb0a cc18 	mls	ip, sl, r8, ip
 8000c2a:	ea45 450c 	orr.w	r5, r5, ip, lsl #16
 8000c2e:	fb08 f309 	mul.w	r3, r8, r9
 8000c32:	42ab      	cmp	r3, r5
 8000c34:	d90a      	bls.n	8000c4c <__udivmoddi4+0x6c>
 8000c36:	19ed      	adds	r5, r5, r7
 8000c38:	f108 32ff 	add.w	r2, r8, #4294967295
 8000c3c:	f080 8123 	bcs.w	8000e86 <__udivmoddi4+0x2a6>
 8000c40:	42ab      	cmp	r3, r5
 8000c42:	f240 8120 	bls.w	8000e86 <__udivmoddi4+0x2a6>
 8000c46:	f1a8 0802 	sub.w	r8, r8, #2
 8000c4a:	443d      	add	r5, r7
 8000c4c:	1aed      	subs	r5, r5, r3
 8000c4e:	b2a4      	uxth	r4, r4
 8000c50:	fbb5 f0fa 	udiv	r0, r5, sl
 8000c54:	fb0a 5510 	mls	r5, sl, r0, r5
 8000c58:	ea44 4405 	orr.w	r4, r4, r5, lsl #16
 8000c5c:	fb00 f909 	mul.w	r9, r0, r9
 8000c60:	45a1      	cmp	r9, r4
 8000c62:	d909      	bls.n	8000c78 <__udivmoddi4+0x98>
 8000c64:	19e4      	adds	r4, r4, r7
 8000c66:	f100 33ff 	add.w	r3, r0, #4294967295
 8000c6a:	f080 810a 	bcs.w	8000e82 <__udivmoddi4+0x2a2>
 8000c6e:	45a1      	cmp	r9, r4
 8000c70:	f240 8107 	bls.w	8000e82 <__udivmoddi4+0x2a2>
 8000c74:	3802      	subs	r0, #2
 8000c76:	443c      	add	r4, r7
 8000c78:	eba4 0409 	sub.w	r4, r4, r9
 8000c7c:	ea40 4008 	orr.w	r0, r0, r8, lsl #16
 8000c80:	2100      	movs	r1, #0
 8000c82:	2e00      	cmp	r6, #0
 8000c84:	d061      	beq.n	8000d4a <__udivmoddi4+0x16a>
 8000c86:	fa24 f40e 	lsr.w	r4, r4, lr
 8000c8a:	2300      	movs	r3, #0
 8000c8c:	6034      	str	r4, [r6, #0]
 8000c8e:	6073      	str	r3, [r6, #4]
 8000c90:	e8bd 87f0 	ldmia.w	sp!, {r4, r5, r6, r7, r8, r9, sl, pc}
 8000c94:	428b      	cmp	r3, r1
 8000c96:	d907      	bls.n	8000ca8 <__udivmoddi4+0xc8>
 8000c98:	2e00      	cmp	r6, #0
 8000c9a:	d054      	beq.n	8000d46 <__udivmoddi4+0x166>
 8000c9c:	2100      	movs	r1, #0
 8000c9e:	e886 0021 	stmia.w	r6, {r0, r5}
 8000ca2:	4608      	mov	r0, r1
 8000ca4:	e8bd 87f0 	ldmia.w	sp!, {r4, r5, r6, r7, r8, r9, sl, pc}
 8000ca8:	fab3 f183 	clz	r1, r3
 8000cac:	2900      	cmp	r1, #0
 8000cae:	f040 808e 	bne.w	8000dce <__udivmoddi4+0x1ee>
 8000cb2:	42ab      	cmp	r3, r5
 8000cb4:	d302      	bcc.n	8000cbc <__udivmoddi4+0xdc>
 8000cb6:	4282      	cmp	r2, r0
 8000cb8:	f200 80fa 	bhi.w	8000eb0 <__udivmoddi4+0x2d0>
 8000cbc:	1a84      	subs	r4, r0, r2
 8000cbe:	eb65 0503 	sbc.w	r5, r5, r3
 8000cc2:	2001      	movs	r0, #1
 8000cc4:	46ac      	mov	ip, r5
 8000cc6:	2e00      	cmp	r6, #0
 8000cc8:	d03f      	beq.n	8000d4a <__udivmoddi4+0x16a>
 8000cca:	e886 1010 	stmia.w	r6, {r4, ip}
 8000cce:	e8bd 87f0 	ldmia.w	sp!, {r4, r5, r6, r7, r8, r9, sl, pc}
 8000cd2:	b912      	cbnz	r2, 8000cda <__udivmoddi4+0xfa>
 8000cd4:	2701      	movs	r7, #1
 8000cd6:	fbb7 f7f2 	udiv	r7, r7, r2
 8000cda:	fab7 fe87 	clz	lr, r7
 8000cde:	f1be 0f00 	cmp.w	lr, #0
 8000ce2:	d134      	bne.n	8000d4e <__udivmoddi4+0x16e>
 8000ce4:	1beb      	subs	r3, r5, r7
 8000ce6:	0c3a      	lsrs	r2, r7, #16
 8000ce8:	fa1f fc87 	uxth.w	ip, r7
 8000cec:	2101      	movs	r1, #1
 8000cee:	fbb3 f8f2 	udiv	r8, r3, r2
 8000cf2:	0c25      	lsrs	r5, r4, #16
 8000cf4:	fb02 3318 	mls	r3, r2, r8, r3
 8000cf8:	ea45 4503 	orr.w	r5, r5, r3, lsl #16
 8000cfc:	fb0c f308 	mul.w	r3, ip, r8
 8000d00:	42ab      	cmp	r3, r5
 8000d02:	d907      	bls.n	8000d14 <__udivmoddi4+0x134>
 8000d04:	19ed      	adds	r5, r5, r7
 8000d06:	f108 30ff 	add.w	r0, r8, #4294967295
 8000d0a:	d202      	bcs.n	8000d12 <__udivmoddi4+0x132>
 8000d0c:	42ab      	cmp	r3, r5
 8000d0e:	f200 80d1 	bhi.w	8000eb4 <__udivmoddi4+0x2d4>
 8000d12:	4680      	mov	r8, r0
 8000d14:	1aed      	subs	r5, r5, r3
 8000d16:	b2a3      	uxth	r3, r4
 8000d18:	fbb5 f0f2 	udiv	r0, r5, r2
 8000d1c:	fb02 5510 	mls	r5, r2, r0, r5
 8000d20:	ea43 4405 	orr.w	r4, r3, r5, lsl #16
 8000d24:	fb0c fc00 	mul.w	ip, ip, r0
 8000d28:	45a4      	cmp	ip, r4
 8000d2a:	d907      	bls.n	8000d3c <__udivmoddi4+0x15c>
 8000d2c:	19e4      	adds	r4, r4, r7
 8000d2e:	f100 33ff 	add.w	r3, r0, #4294967295
 8000d32:	d202      	bcs.n	8000d3a <__udivmoddi4+0x15a>
 8000d34:	45a4      	cmp	ip, r4
 8000d36:	f200 80b8 	bhi.w	8000eaa <__udivmoddi4+0x2ca>
 8000d3a:	4618      	mov	r0, r3
 8000d3c:	eba4 040c 	sub.w	r4, r4, ip
 8000d40:	ea40 4008 	orr.w	r0, r0, r8, lsl #16
 8000d44:	e79d      	b.n	8000c82 <__udivmoddi4+0xa2>
 8000d46:	4631      	mov	r1, r6
 8000d48:	4630      	mov	r0, r6
 8000d4a:	e8bd 87f0 	ldmia.w	sp!, {r4, r5, r6, r7, r8, r9, sl, pc}
 8000d4e:	f1ce 0420 	rsb	r4, lr, #32
 8000d52:	fa05 f30e 	lsl.w	r3, r5, lr
 8000d56:	fa07 f70e 	lsl.w	r7, r7, lr
 8000d5a:	fa20 f804 	lsr.w	r8, r0, r4
 8000d5e:	0c3a      	lsrs	r2, r7, #16
 8000d60:	fa25 f404 	lsr.w	r4, r5, r4
 8000d64:	ea48 0803 	orr.w	r8, r8, r3
 8000d68:	fbb4 f1f2 	udiv	r1, r4, r2
 8000d6c:	ea4f 4518 	mov.w	r5, r8, lsr #16
 8000d70:	fb02 4411 	mls	r4, r2, r1, r4
 8000d74:	fa1f fc87 	uxth.w	ip, r7
 8000d78:	ea45 4504 	orr.w	r5, r5, r4, lsl #16
 8000d7c:	fb01 f30c 	mul.w	r3, r1, ip
 8000d80:	42ab      	cmp	r3, r5
 8000d82:	fa00 f40e 	lsl.w	r4, r0, lr
 8000d86:	d909      	bls.n	8000d9c <__udivmoddi4+0x1bc>
 8000d88:	19ed      	adds	r5, r5, r7
 8000d8a:	f101 30ff 	add.w	r0, r1, #4294967295
 8000d8e:	f080 808a 	bcs.w	8000ea6 <__udivmoddi4+0x2c6>
 8000d92:	42ab      	cmp	r3, r5
 8000d94:	f240 8087 	bls.w	8000ea6 <__udivmoddi4+0x2c6>
 8000d98:	3902      	subs	r1, #2
 8000d9a:	443d      	add	r5, r7
 8000d9c:	1aeb      	subs	r3, r5, r3
 8000d9e:	fa1f f588 	uxth.w	r5, r8
 8000da2:	fbb3 f0f2 	udiv	r0, r3, r2
 8000da6:	fb02 3310 	mls	r3, r2, r0, r3
 8000daa:	ea45 4503 	orr.w	r5, r5, r3, lsl #16
 8000dae:	fb00 f30c 	mul.w	r3, r0, ip
 8000db2:	42ab      	cmp	r3, r5
 8000db4:	d907      	bls.n	8000dc6 <__udivmoddi4+0x1e6>
 8000db6:	19ed      	adds	r5, r5, r7
 8000db8:	f100 38ff 	add.w	r8, r0, #4294967295
 8000dbc:	d26f      	bcs.n	8000e9e <__udivmoddi4+0x2be>
 8000dbe:	42ab      	cmp	r3, r5
 8000dc0:	d96d      	bls.n	8000e9e <__udivmoddi4+0x2be>
 8000dc2:	3802      	subs	r0, #2
 8000dc4:	443d      	add	r5, r7
 8000dc6:	1aeb      	subs	r3, r5, r3
 8000dc8:	ea40 4101 	orr.w	r1, r0, r1, lsl #16
 8000dcc:	e78f      	b.n	8000cee <__udivmoddi4+0x10e>
 8000dce:	f1c1 0720 	rsb	r7, r1, #32
 8000dd2:	fa22 f807 	lsr.w	r8, r2, r7
 8000dd6:	408b      	lsls	r3, r1
 8000dd8:	fa05 f401 	lsl.w	r4, r5, r1
 8000ddc:	ea48 0303 	orr.w	r3, r8, r3
 8000de0:	fa20 fe07 	lsr.w	lr, r0, r7
 8000de4:	ea4f 4c13 	mov.w	ip, r3, lsr #16
 8000de8:	40fd      	lsrs	r5, r7
 8000dea:	ea4e 0e04 	orr.w	lr, lr, r4
 8000dee:	fbb5 f9fc 	udiv	r9, r5, ip
 8000df2:	ea4f 441e 	mov.w	r4, lr, lsr #16
 8000df6:	fb0c 5519 	mls	r5, ip, r9, r5
 8000dfa:	fa1f f883 	uxth.w	r8, r3
 8000dfe:	ea44 4505 	orr.w	r5, r4, r5, lsl #16
 8000e02:	fb09 f408 	mul.w	r4, r9, r8
 8000e06:	42ac      	cmp	r4, r5
 8000e08:	fa02 f201 	lsl.w	r2, r2, r1
 8000e0c:	fa00 fa01 	lsl.w	sl, r0, r1
 8000e10:	d908      	bls.n	8000e24 <__udivmoddi4+0x244>
 8000e12:	18ed      	adds	r5, r5, r3
 8000e14:	f109 30ff 	add.w	r0, r9, #4294967295
 8000e18:	d243      	bcs.n	8000ea2 <__udivmoddi4+0x2c2>
 8000e1a:	42ac      	cmp	r4, r5
 8000e1c:	d941      	bls.n	8000ea2 <__udivmoddi4+0x2c2>
 8000e1e:	f1a9 0902 	sub.w	r9, r9, #2
 8000e22:	441d      	add	r5, r3
 8000e24:	1b2d      	subs	r5, r5, r4
 8000e26:	fa1f fe8e 	uxth.w	lr, lr
 8000e2a:	fbb5 f0fc 	udiv	r0, r5, ip
 8000e2e:	fb0c 5510 	mls	r5, ip, r0, r5
 8000e32:	ea4e 4405 	orr.w	r4, lr, r5, lsl #16
 8000e36:	fb00 f808 	mul.w	r8, r0, r8
 8000e3a:	45a0      	cmp	r8, r4
 8000e3c:	d907      	bls.n	8000e4e <__udivmoddi4+0x26e>
 8000e3e:	18e4      	adds	r4, r4, r3
 8000e40:	f100 35ff 	add.w	r5, r0, #4294967295
 8000e44:	d229      	bcs.n	8000e9a <__udivmoddi4+0x2ba>
 8000e46:	45a0      	cmp	r8, r4
 8000e48:	d927      	bls.n	8000e9a <__udivmoddi4+0x2ba>
 8000e4a:	3802      	subs	r0, #2
 8000e4c:	441c      	add	r4, r3
 8000e4e:	ea40 4009 	orr.w	r0, r0, r9, lsl #16
 8000e52:	eba4 0408 	sub.w	r4, r4, r8
 8000e56:	fba0 8902 	umull	r8, r9, r0, r2
 8000e5a:	454c      	cmp	r4, r9
 8000e5c:	46c6      	mov	lr, r8
 8000e5e:	464d      	mov	r5, r9
 8000e60:	d315      	bcc.n	8000e8e <__udivmoddi4+0x2ae>
 8000e62:	d012      	beq.n	8000e8a <__udivmoddi4+0x2aa>
 8000e64:	b156      	cbz	r6, 8000e7c <__udivmoddi4+0x29c>
 8000e66:	ebba 030e 	subs.w	r3, sl, lr
 8000e6a:	eb64 0405 	sbc.w	r4, r4, r5
 8000e6e:	fa04 f707 	lsl.w	r7, r4, r7
 8000e72:	40cb      	lsrs	r3, r1
 8000e74:	431f      	orrs	r7, r3
 8000e76:	40cc      	lsrs	r4, r1
 8000e78:	6037      	str	r7, [r6, #0]
 8000e7a:	6074      	str	r4, [r6, #4]
 8000e7c:	2100      	movs	r1, #0
 8000e7e:	e8bd 87f0 	ldmia.w	sp!, {r4, r5, r6, r7, r8, r9, sl, pc}
 8000e82:	4618      	mov	r0, r3
 8000e84:	e6f8      	b.n	8000c78 <__udivmoddi4+0x98>
 8000e86:	4690      	mov	r8, r2
 8000e88:	e6e0      	b.n	8000c4c <__udivmoddi4+0x6c>
 8000e8a:	45c2      	cmp	sl, r8
 8000e8c:	d2ea      	bcs.n	8000e64 <__udivmoddi4+0x284>
 8000e8e:	ebb8 0e02 	subs.w	lr, r8, r2
 8000e92:	eb69 0503 	sbc.w	r5, r9, r3
 8000e96:	3801      	subs	r0, #1
 8000e98:	e7e4      	b.n	8000e64 <__udivmoddi4+0x284>
 8000e9a:	4628      	mov	r0, r5
 8000e9c:	e7d7      	b.n	8000e4e <__udivmoddi4+0x26e>
 8000e9e:	4640      	mov	r0, r8
 8000ea0:	e791      	b.n	8000dc6 <__udivmoddi4+0x1e6>
 8000ea2:	4681      	mov	r9, r0
 8000ea4:	e7be      	b.n	8000e24 <__udivmoddi4+0x244>
 8000ea6:	4601      	mov	r1, r0
 8000ea8:	e778      	b.n	8000d9c <__udivmoddi4+0x1bc>
 8000eaa:	3802      	subs	r0, #2
 8000eac:	443c      	add	r4, r7
 8000eae:	e745      	b.n	8000d3c <__udivmoddi4+0x15c>
 8000eb0:	4608      	mov	r0, r1
 8000eb2:	e708      	b.n	8000cc6 <__udivmoddi4+0xe6>
 8000eb4:	f1a8 0802 	sub.w	r8, r8, #2
 8000eb8:	443d      	add	r5, r7
 8000eba:	e72b      	b.n	8000d14 <__udivmoddi4+0x134>

08000ebc <__aeabi_idiv0>:
 8000ebc:	4770      	bx	lr
 8000ebe:	bf00      	nop

08000ec0 <NVIC_SetPriority>:
  \note    The priority cannot be set for every core interrupt.
  \param [in]      IRQn  Interrupt number.
  \param [in]  priority  Priority to set.
 */
__STATIC_INLINE void NVIC_SetPriority(IRQn_Type IRQn, uint32_t priority)
{
 8000ec0:	b480      	push	{r7}
 8000ec2:	b083      	sub	sp, #12
 8000ec4:	af00      	add	r7, sp, #0
 8000ec6:	4603      	mov	r3, r0
 8000ec8:	6039      	str	r1, [r7, #0]
 8000eca:	71fb      	strb	r3, [r7, #7]
  if ((int32_t)(IRQn) < 0)
 8000ecc:	f997 3007 	ldrsb.w	r3, [r7, #7]
 8000ed0:	2b00      	cmp	r3, #0
 8000ed2:	da0b      	bge.n	8000eec <NVIC_SetPriority+0x2c>
  {
    SCB->SHP[(((uint32_t)(int32_t)IRQn) & 0xFUL)-4UL] = (uint8_t)((priority << (8U - __NVIC_PRIO_BITS)) & (uint32_t)0xFFUL);
 8000ed4:	490d      	ldr	r1, [pc, #52]	; (8000f0c <NVIC_SetPriority+0x4c>)
 8000ed6:	79fb      	ldrb	r3, [r7, #7]
 8000ed8:	f003 030f 	and.w	r3, r3, #15
 8000edc:	3b04      	subs	r3, #4
 8000ede:	683a      	ldr	r2, [r7, #0]
 8000ee0:	b2d2      	uxtb	r2, r2
 8000ee2:	0112      	lsls	r2, r2, #4
 8000ee4:	b2d2      	uxtb	r2, r2
 8000ee6:	440b      	add	r3, r1
 8000ee8:	761a      	strb	r2, [r3, #24]
  }
  else
  {
    NVIC->IP[((uint32_t)(int32_t)IRQn)]               = (uint8_t)((priority << (8U - __NVIC_PRIO_BITS)) & (uint32_t)0xFFUL);
  }
}
 8000eea:	e009      	b.n	8000f00 <NVIC_SetPriority+0x40>
    NVIC->IP[((uint32_t)(int32_t)IRQn)]               = (uint8_t)((priority << (8U - __NVIC_PRIO_BITS)) & (uint32_t)0xFFUL);
 8000eec:	4908      	ldr	r1, [pc, #32]	; (8000f10 <NVIC_SetPriority+0x50>)
 8000eee:	f997 3007 	ldrsb.w	r3, [r7, #7]
 8000ef2:	683a      	ldr	r2, [r7, #0]
 8000ef4:	b2d2      	uxtb	r2, r2
 8000ef6:	0112      	lsls	r2, r2, #4
 8000ef8:	b2d2      	uxtb	r2, r2
 8000efa:	440b      	add	r3, r1
 8000efc:	f883 2300 	strb.w	r2, [r3, #768]	; 0x300
}
 8000f00:	bf00      	nop
 8000f02:	370c      	adds	r7, #12
 8000f04:	46bd      	mov	sp, r7
 8000f06:	f85d 7b04 	ldr.w	r7, [sp], #4
 8000f0a:	4770      	bx	lr
 8000f0c:	e000ed00 	.word	0xe000ed00
 8000f10:	e000e100 	.word	0xe000e100

08000f14 <SysTick_Config>:
  \note    When the variable <b>__Vendor_SysTickConfig</b> is set to 1, then the
           function <b>SysTick_Config</b> is not included. In this case, the file <b><i>device</i>.h</b>
           must contain a vendor-specific implementation of this function.
 */
__STATIC_INLINE uint32_t SysTick_Config(uint32_t ticks)
{
 8000f14:	b580      	push	{r7, lr}
 8000f16:	b082      	sub	sp, #8
 8000f18:	af00      	add	r7, sp, #0
 8000f1a:	6078      	str	r0, [r7, #4]
  if ((ticks - 1UL) > SysTick_LOAD_RELOAD_Msk)
 8000f1c:	687b      	ldr	r3, [r7, #4]
 8000f1e:	3b01      	subs	r3, #1
 8000f20:	f1b3 7f80 	cmp.w	r3, #16777216	; 0x1000000
 8000f24:	d301      	bcc.n	8000f2a <SysTick_Config+0x16>
  {
    return (1UL);                                                   /* Reload value impossible */
 8000f26:	2301      	movs	r3, #1
 8000f28:	e00f      	b.n	8000f4a <SysTick_Config+0x36>
  }

  SysTick->LOAD  = (uint32_t)(ticks - 1UL);                         /* set reload register */
 8000f2a:	4a0a      	ldr	r2, [pc, #40]	; (8000f54 <SysTick_Config+0x40>)
 8000f2c:	687b      	ldr	r3, [r7, #4]
 8000f2e:	3b01      	subs	r3, #1
 8000f30:	6053      	str	r3, [r2, #4]
  NVIC_SetPriority (SysTick_IRQn, (1UL << __NVIC_PRIO_BITS) - 1UL); /* set Priority for Systick Interrupt */
 8000f32:	210f      	movs	r1, #15
 8000f34:	f04f 30ff 	mov.w	r0, #4294967295
 8000f38:	f7ff ffc2 	bl	8000ec0 <NVIC_SetPriority>
  SysTick->VAL   = 0UL;                                             /* Load the SysTick Counter Value */
 8000f3c:	4b05      	ldr	r3, [pc, #20]	; (8000f54 <SysTick_Config+0x40>)
 8000f3e:	2200      	movs	r2, #0
 8000f40:	609a      	str	r2, [r3, #8]
  SysTick->CTRL  = SysTick_CTRL_CLKSOURCE_Msk |
 8000f42:	4b04      	ldr	r3, [pc, #16]	; (8000f54 <SysTick_Config+0x40>)
 8000f44:	2207      	movs	r2, #7
 8000f46:	601a      	str	r2, [r3, #0]
                   SysTick_CTRL_TICKINT_Msk   |
                   SysTick_CTRL_ENABLE_Msk;                         /* Enable SysTick IRQ and SysTick Timer */
  return (0UL);                                                     /* Function successful */
 8000f48:	2300      	movs	r3, #0
}
 8000f4a:	4618      	mov	r0, r3
 8000f4c:	3708      	adds	r7, #8
 8000f4e:	46bd      	mov	sp, r7
 8000f50:	bd80      	pop	{r7, pc}
 8000f52:	bf00      	nop
 8000f54:	e000e010 	.word	0xe000e010

08000f58 <SysTick_Handler>:
 */
volatile uint32_t ticks = 0; // promn kter symbolizuje dobhnut hodin
// "volatile" znamen e kompiltor tuto promnou nebude optimalizovat, to je teba, protoe by jinak mohl kompiltor dojt k chybnm zvrm o fknci nkterch programovch konstrukc a nesprvn program optimalizovat

void SysTick_Handler(void) // tato funkce mus mt pesn takovto nzev, jinak se pi peruen vol defalutn nastaven
{
 8000f58:	b480      	push	{r7}
 8000f5a:	af00      	add	r7, sp, #0
	ticks++;
 8000f5c:	4b04      	ldr	r3, [pc, #16]	; (8000f70 <SysTick_Handler+0x18>)
 8000f5e:	681b      	ldr	r3, [r3, #0]
 8000f60:	3301      	adds	r3, #1
 8000f62:	4a03      	ldr	r2, [pc, #12]	; (8000f70 <SysTick_Handler+0x18>)
 8000f64:	6013      	str	r3, [r2, #0]
}
 8000f66:	bf00      	nop
 8000f68:	46bd      	mov	sp, r7
 8000f6a:	f85d 7b04 	ldr.w	r7, [sp], #4
 8000f6e:	4770      	bx	lr
 8000f70:	20000690 	.word	0x20000690

08000f74 <main>:
	else
		val = accVal & 0x1f; // jen spodnich 5 bitu
	return val / MMA7660SENS; // deleni je floatove - konstanta je float
}

int main(void) {
 8000f74:	b580      	push	{r7, lr}
 8000f76:	b082      	sub	sp, #8
 8000f78:	af00      	add	r7, sp, #0

	uint8_t y;

	uint8_t z;

	uint32_t timeConstant = 100;
 8000f7a:	2364      	movs	r3, #100	; 0x64
 8000f7c:	607b      	str	r3, [r7, #4]

	SystemCoreClockUpdate();
 8000f7e:	f000 fda1 	bl	8001ac4 <SystemCoreClockUpdate>

	SysTick_Config(SystemCoreClock / 1000); // nastaven asovae pro peruen
 8000f82:	4b1d      	ldr	r3, [pc, #116]	; (8000ff8 <main+0x84>)
 8000f84:	681b      	ldr	r3, [r3, #0]
 8000f86:	4a1d      	ldr	r2, [pc, #116]	; (8000ffc <main+0x88>)
 8000f88:	fba2 2303 	umull	r2, r3, r2, r3
 8000f8c:	099b      	lsrs	r3, r3, #6
 8000f8e:	4618      	mov	r0, r3
 8000f90:	f7ff ffc0 	bl	8000f14 <SysTick_Config>

	Usart2Initialization(38400);
 8000f94:	f44f 4016 	mov.w	r0, #38400	; 0x9600
 8000f98:	f000 fa7a 	bl	8001490 <Usart2Initialization>

    puts("\nStart App\n");
 8000f9c:	4818      	ldr	r0, [pc, #96]	; (8001000 <main+0x8c>)
 8000f9e:	f000 fea7 	bl	8001cf0 <puts>

	InitI2C1(i2cSpeed100k);
 8000fa2:	4818      	ldr	r0, [pc, #96]	; (8001004 <main+0x90>)
 8000fa4:	f000 f834 	bl	8001010 <InitI2C1>

	I2C1_WriteByte(MMA7660ADR, 7, 1); // registr 7, hodnota 0000 0001 = MODE
 8000fa8:	2201      	movs	r2, #1
 8000faa:	2107      	movs	r1, #7
 8000fac:	2098      	movs	r0, #152	; 0x98
 8000fae:	f000 f9ff 	bl	80013b0 <I2C1_WriteByte>

	while (1) {
		if (ticks >= timeConstant) // casovani vysilani
 8000fb2:	4b15      	ldr	r3, [pc, #84]	; (8001008 <main+0x94>)
 8000fb4:	681a      	ldr	r2, [r3, #0]
 8000fb6:	687b      	ldr	r3, [r7, #4]
 8000fb8:	429a      	cmp	r2, r3
 8000fba:	d3fa      	bcc.n	8000fb2 <main+0x3e>
				{
			timeConstant = ticks + 100;
 8000fbc:	4b12      	ldr	r3, [pc, #72]	; (8001008 <main+0x94>)
 8000fbe:	681b      	ldr	r3, [r3, #0]
 8000fc0:	3364      	adds	r3, #100	; 0x64
 8000fc2:	607b      	str	r3, [r7, #4]
			x = I2C1_ReadByte(MMA7660ADR, 0); // XOUT
 8000fc4:	2100      	movs	r1, #0
 8000fc6:	2098      	movs	r0, #152	; 0x98
 8000fc8:	f000 fa10 	bl	80013ec <I2C1_ReadByte>
 8000fcc:	4603      	mov	r3, r0
 8000fce:	70fb      	strb	r3, [r7, #3]
            y = I2C1_ReadByte(MMA7660ADR,1);
 8000fd0:	2101      	movs	r1, #1
 8000fd2:	2098      	movs	r0, #152	; 0x98
 8000fd4:	f000 fa0a 	bl	80013ec <I2C1_ReadByte>
 8000fd8:	4603      	mov	r3, r0
 8000fda:	70bb      	strb	r3, [r7, #2]
            z = I2C1_ReadByte(MMA7660ADR,2);
 8000fdc:	2102      	movs	r1, #2
 8000fde:	2098      	movs	r0, #152	; 0x98
 8000fe0:	f000 fa04 	bl	80013ec <I2C1_ReadByte>
 8000fe4:	4603      	mov	r3, r0
 8000fe6:	707b      	strb	r3, [r7, #1]


			//printf("X=%02d, Y=%02d, Z=%02d\r\n Zrychleni osy x: %f\r\n",x,y,z,Acc2Float(x));
			printf("1;%d;%d;%d\r\n",x,y,z);
 8000fe8:	78f9      	ldrb	r1, [r7, #3]
 8000fea:	78ba      	ldrb	r2, [r7, #2]
 8000fec:	787b      	ldrb	r3, [r7, #1]
 8000fee:	4807      	ldr	r0, [pc, #28]	; (800100c <main+0x98>)
 8000ff0:	f000 fe06 	bl	8001c00 <printf>
		if (ticks >= timeConstant) // casovani vysilani
 8000ff4:	e7dd      	b.n	8000fb2 <main+0x3e>
 8000ff6:	bf00      	nop
 8000ff8:	20000000 	.word	0x20000000
 8000ffc:	10624dd3 	.word	0x10624dd3
 8001000:	08005910 	.word	0x08005910
 8001004:	000186a0 	.word	0x000186a0
 8001008:	20000690 	.word	0x20000690
 800100c:	0800591c 	.word	0x0800591c

08001010 <InitI2C1>:

static void I2C_Reset(void);

// Nucleo - PB8 SCL, PB9 SDA
bool InitI2C1(i2cSpeed spd)
{
 8001010:	b580      	push	{r7, lr}
 8001012:	b086      	sub	sp, #24
 8001014:	af00      	add	r7, sp, #0
 8001016:	6078      	str	r0, [r7, #4]
  if ((spd != i2cSpeed100k) && (spd != i2cSpeed400k))
 8001018:	687b      	ldr	r3, [r7, #4]
 800101a:	4a60      	ldr	r2, [pc, #384]	; (800119c <InitI2C1+0x18c>)
 800101c:	4293      	cmp	r3, r2
 800101e:	d005      	beq.n	800102c <InitI2C1+0x1c>
 8001020:	687b      	ldr	r3, [r7, #4]
 8001022:	4a5f      	ldr	r2, [pc, #380]	; (80011a0 <InitI2C1+0x190>)
 8001024:	4293      	cmp	r3, r2
 8001026:	d001      	beq.n	800102c <InitI2C1+0x1c>
    return false;
 8001028:	2300      	movs	r3, #0
 800102a:	e0b3      	b.n	8001194 <InitI2C1+0x184>


  GPIOConfigurePin(GPIOB, 8, ioPortAlternatrPushPull);  // I2C CLK
 800102c:	2206      	movs	r2, #6
 800102e:	2108      	movs	r1, #8
 8001030:	485c      	ldr	r0, [pc, #368]	; (80011a4 <InitI2C1+0x194>)
 8001032:	f000 fab7 	bl	80015a4 <GPIOConfigurePin>
  GPIOConfigureAlternativFunction(GPIOB, 8, 4);    // AF04 = I2C1_SCL
 8001036:	2204      	movs	r2, #4
 8001038:	2108      	movs	r1, #8
 800103a:	485a      	ldr	r0, [pc, #360]	; (80011a4 <InitI2C1+0x194>)
 800103c:	f000 fc30 	bl	80018a0 <GPIOConfigureAlternativFunction>

  GPIOConfigurePin(GPIOB, 9, ioPortAlternatrOpenDrain);  // I2C data
 8001040:	2207      	movs	r2, #7
 8001042:	2109      	movs	r1, #9
 8001044:	4857      	ldr	r0, [pc, #348]	; (80011a4 <InitI2C1+0x194>)
 8001046:	f000 faad 	bl	80015a4 <GPIOConfigurePin>
  GPIOConfigureAlternativFunction(GPIOB, 9, 4);    // AF04 = I2C1_SDA
 800104a:	2204      	movs	r2, #4
 800104c:	2109      	movs	r1, #9
 800104e:	4855      	ldr	r0, [pc, #340]	; (80011a4 <InitI2C1+0x194>)
 8001050:	f000 fc26 	bl	80018a0 <GPIOConfigureAlternativFunction>

  if (!(RCC->APB1ENR & RCC_APB1ENR_I2C1EN))
 8001054:	4b54      	ldr	r3, [pc, #336]	; (80011a8 <InitI2C1+0x198>)
 8001056:	6c1b      	ldr	r3, [r3, #64]	; 0x40
 8001058:	f403 1300 	and.w	r3, r3, #2097152	; 0x200000
 800105c:	2b00      	cmp	r3, #0
 800105e:	d111      	bne.n	8001084 <InitI2C1+0x74>
  {
    RCC->APB1ENR |= RCC_APB1ENR_I2C1EN;
 8001060:	4a51      	ldr	r2, [pc, #324]	; (80011a8 <InitI2C1+0x198>)
 8001062:	4b51      	ldr	r3, [pc, #324]	; (80011a8 <InitI2C1+0x198>)
 8001064:	6c1b      	ldr	r3, [r3, #64]	; 0x40
 8001066:	f443 1300 	orr.w	r3, r3, #2097152	; 0x200000
 800106a:	6413      	str	r3, [r2, #64]	; 0x40
    RCC->APB1RSTR |= RCC_APB1RSTR_I2C1RST;
 800106c:	4a4e      	ldr	r2, [pc, #312]	; (80011a8 <InitI2C1+0x198>)
 800106e:	4b4e      	ldr	r3, [pc, #312]	; (80011a8 <InitI2C1+0x198>)
 8001070:	6a1b      	ldr	r3, [r3, #32]
 8001072:	f443 1300 	orr.w	r3, r3, #2097152	; 0x200000
 8001076:	6213      	str	r3, [r2, #32]
    RCC->APB1RSTR &= ~RCC_APB1RSTR_I2C1RST;
 8001078:	4a4b      	ldr	r2, [pc, #300]	; (80011a8 <InitI2C1+0x198>)
 800107a:	4b4b      	ldr	r3, [pc, #300]	; (80011a8 <InitI2C1+0x198>)
 800107c:	6a1b      	ldr	r3, [r3, #32]
 800107e:	f423 1300 	bic.w	r3, r3, #2097152	; 0x200000
 8001082:	6213      	str	r3, [r2, #32]
  }

  I2C_Reset();
 8001084:	f000 f89a 	bl	80011bc <I2C_Reset>
  
  // configuration
  I2C1->CR1 = I2C_CR1_PE;         // enable peripheral, remainnig bits = 0
 8001088:	4b48      	ldr	r3, [pc, #288]	; (80011ac <InitI2C1+0x19c>)
 800108a:	2201      	movs	r2, #1
 800108c:	601a      	str	r2, [r3, #0]
  I2C1->CR2 = 0;                  // clear all cfg. bits
 800108e:	4b47      	ldr	r3, [pc, #284]	; (80011ac <InitI2C1+0x19c>)
 8001090:	2200      	movs	r2, #0
 8001092:	605a      	str	r2, [r3, #4]
  I2C1->CR2 &= ~ I2C_CR2_FREQ;    // clear bits FREQ[5:0]
 8001094:	4a45      	ldr	r2, [pc, #276]	; (80011ac <InitI2C1+0x19c>)
 8001096:	4b45      	ldr	r3, [pc, #276]	; (80011ac <InitI2C1+0x19c>)
 8001098:	685b      	ldr	r3, [r3, #4]
 800109a:	f023 033f 	bic.w	r3, r3, #63	; 0x3f
 800109e:	6053      	str	r3, [r2, #4]
  {
    int apbClk;

#ifdef STM32F411xE
    {
      int apb1div = (RCC->CFGR & RCC_CFGR_PPRE1) >> 10;  // u F411 je to bit 10..12
 80010a0:	4b41      	ldr	r3, [pc, #260]	; (80011a8 <InitI2C1+0x198>)
 80010a2:	689b      	ldr	r3, [r3, #8]
 80010a4:	0a9b      	lsrs	r3, r3, #10
 80010a6:	f003 0307 	and.w	r3, r3, #7
 80010aa:	613b      	str	r3, [r7, #16]

      if ((apb1div & 0x04) == 0) // highest bit from 3 == 0 ?
 80010ac:	693b      	ldr	r3, [r7, #16]
 80010ae:	f003 0304 	and.w	r3, r3, #4
 80010b2:	2b00      	cmp	r3, #0
 80010b4:	d103      	bne.n	80010be <InitI2C1+0xae>
        apbClk = SystemCoreClock;  // x1, AHB = sysclock
 80010b6:	4b3e      	ldr	r3, [pc, #248]	; (80011b0 <InitI2C1+0x1a0>)
 80010b8:	681b      	ldr	r3, [r3, #0]
 80010ba:	617b      	str	r3, [r7, #20]
 80010bc:	e008      	b.n	80010d0 <InitI2C1+0xc0>
      else
        apbClk = SystemCoreClock >> ((apb1div & 0x03) + 1);
 80010be:	4b3c      	ldr	r3, [pc, #240]	; (80011b0 <InitI2C1+0x1a0>)
 80010c0:	681a      	ldr	r2, [r3, #0]
 80010c2:	693b      	ldr	r3, [r7, #16]
 80010c4:	f003 0303 	and.w	r3, r3, #3
 80010c8:	3301      	adds	r3, #1
 80010ca:	fa22 f303 	lsr.w	r3, r2, r3
 80010ce:	617b      	str	r3, [r7, #20]
    }
#else
#error I2C init speed - unsupported processor type !!
#endif

    int apbClkMhz = apbClk / 1000000;          // clock in MHz
 80010d0:	697b      	ldr	r3, [r7, #20]
 80010d2:	4a38      	ldr	r2, [pc, #224]	; (80011b4 <InitI2C1+0x1a4>)
 80010d4:	fb82 1203 	smull	r1, r2, r2, r3
 80010d8:	1492      	asrs	r2, r2, #18
 80010da:	17db      	asrs	r3, r3, #31
 80010dc:	1ad3      	subs	r3, r2, r3
 80010de:	60fb      	str	r3, [r7, #12]

    I2C1->CR2 = apbClkMhz;
 80010e0:	4a32      	ldr	r2, [pc, #200]	; (80011ac <InitI2C1+0x19c>)
 80010e2:	68fb      	ldr	r3, [r7, #12]
 80010e4:	6053      	str	r3, [r2, #4]

    I2C1->CR1 = 0;                  // disable preipheral
 80010e6:	4b31      	ldr	r3, [pc, #196]	; (80011ac <InitI2C1+0x19c>)
 80010e8:	2200      	movs	r2, #0
 80010ea:	601a      	str	r2, [r3, #0]

    // inspired by Cube generated code
    I2C1->TRISE = (spd <= 100000U)
 80010ec:	4a2f      	ldr	r2, [pc, #188]	; (80011ac <InitI2C1+0x19c>)
        ? (apbClkMhz + 1U) : (((apbClkMhz * 300U) / 1000U) + 1U);
 80010ee:	687b      	ldr	r3, [r7, #4]
 80010f0:	492a      	ldr	r1, [pc, #168]	; (800119c <InitI2C1+0x18c>)
 80010f2:	428b      	cmp	r3, r1
 80010f4:	d802      	bhi.n	80010fc <InitI2C1+0xec>
 80010f6:	68fb      	ldr	r3, [r7, #12]
 80010f8:	3301      	adds	r3, #1
 80010fa:	e009      	b.n	8001110 <InitI2C1+0x100>
 80010fc:	68fb      	ldr	r3, [r7, #12]
 80010fe:	f44f 7196 	mov.w	r1, #300	; 0x12c
 8001102:	fb01 f303 	mul.w	r3, r1, r3
 8001106:	492c      	ldr	r1, [pc, #176]	; (80011b8 <InitI2C1+0x1a8>)
 8001108:	fba1 1303 	umull	r1, r3, r1, r3
 800110c:	099b      	lsrs	r3, r3, #6
 800110e:	3301      	adds	r3, #1
    I2C1->TRISE = (spd <= 100000U)
 8001110:	6213      	str	r3, [r2, #32]
                                                                  ((I2C_SPEED_FAST((__PCLK__), (__SPEED__), (__DUTYCYCLE__)) & I2C_CCR_CCR) == 0U)? 1U : \
                                                                  ((I2C_SPEED_FAST((__PCLK__), (__SPEED__), (__DUTYCYCLE__))) | I2C_CCR_FS))
#define I2C_DUTYCYCLE_2                 ((uint32_t)0x00000000U)
#define I2C_DUTYCYCLE_16_9              I2C_CCR_DUTY

    I2C1->CCR = I2C_SPEED(apbClk, spd, I2C_DUTYCYCLE_2);
 8001112:	4826      	ldr	r0, [pc, #152]	; (80011ac <InitI2C1+0x19c>)
 8001114:	687b      	ldr	r3, [r7, #4]
 8001116:	4a21      	ldr	r2, [pc, #132]	; (800119c <InitI2C1+0x18c>)
 8001118:	4293      	cmp	r3, r2
 800111a:	d810      	bhi.n	800113e <InitI2C1+0x12e>
 800111c:	697a      	ldr	r2, [r7, #20]
 800111e:	687b      	ldr	r3, [r7, #4]
 8001120:	005b      	lsls	r3, r3, #1
 8001122:	fbb2 f3f3 	udiv	r3, r2, r3
 8001126:	f3c3 030b 	ubfx	r3, r3, #0, #12
 800112a:	2b03      	cmp	r3, #3
 800112c:	d905      	bls.n	800113a <InitI2C1+0x12a>
 800112e:	697a      	ldr	r2, [r7, #20]
 8001130:	687b      	ldr	r3, [r7, #4]
 8001132:	005b      	lsls	r3, r3, #1
 8001134:	fbb2 f3f3 	udiv	r3, r2, r3
 8001138:	e017      	b.n	800116a <InitI2C1+0x15a>
 800113a:	2304      	movs	r3, #4
 800113c:	e015      	b.n	800116a <InitI2C1+0x15a>
 800113e:	6979      	ldr	r1, [r7, #20]
 8001140:	687a      	ldr	r2, [r7, #4]
 8001142:	4613      	mov	r3, r2
 8001144:	005b      	lsls	r3, r3, #1
 8001146:	4413      	add	r3, r2
 8001148:	fbb1 f3f3 	udiv	r3, r1, r3
 800114c:	f3c3 030b 	ubfx	r3, r3, #0, #12
 8001150:	2b00      	cmp	r3, #0
 8001152:	d009      	beq.n	8001168 <InitI2C1+0x158>
 8001154:	6979      	ldr	r1, [r7, #20]
 8001156:	687a      	ldr	r2, [r7, #4]
 8001158:	4613      	mov	r3, r2
 800115a:	005b      	lsls	r3, r3, #1
 800115c:	4413      	add	r3, r2
 800115e:	fbb1 f3f3 	udiv	r3, r1, r3
 8001162:	f443 4300 	orr.w	r3, r3, #32768	; 0x8000
 8001166:	e000      	b.n	800116a <InitI2C1+0x15a>
 8001168:	2301      	movs	r3, #1
 800116a:	61c3      	str	r3, [r0, #28]
  }
  
  I2C1->CR1 |= I2C_CR1_ACK;       // enable ACK
 800116c:	4a0f      	ldr	r2, [pc, #60]	; (80011ac <InitI2C1+0x19c>)
 800116e:	4b0f      	ldr	r3, [pc, #60]	; (80011ac <InitI2C1+0x19c>)
 8001170:	681b      	ldr	r3, [r3, #0]
 8001172:	f443 6380 	orr.w	r3, r3, #1024	; 0x400
 8001176:	6013      	str	r3, [r2, #0]

  #define I2C_ADDRESSINGMODE_7BIT         ((uint32_t)0x00004000)
  I2C1->OAR1 = I2C_ADDRESSINGMODE_7BIT;   // dle Cube
 8001178:	4b0c      	ldr	r3, [pc, #48]	; (80011ac <InitI2C1+0x19c>)
 800117a:	f44f 4280 	mov.w	r2, #16384	; 0x4000
 800117e:	609a      	str	r2, [r3, #8]
  
  #define I2C_DUALADDRESS_DISABLE         ((uint32_t)0x00000000)
  #define I2C_DUALADDRESS_DISABLED                I2C_DUALADDRESS_DISABLE
  I2C1->OAR2 = I2C_DUALADDRESS_DISABLED;  // dle Cube
 8001180:	4b0a      	ldr	r3, [pc, #40]	; (80011ac <InitI2C1+0x19c>)
 8001182:	2200      	movs	r2, #0
 8001184:	60da      	str	r2, [r3, #12]
  // end Wizard settings
  
  I2C1->CR1 |= I2C_CR1_PE;        // enable peripheral
 8001186:	4a09      	ldr	r2, [pc, #36]	; (80011ac <InitI2C1+0x19c>)
 8001188:	4b08      	ldr	r3, [pc, #32]	; (80011ac <InitI2C1+0x19c>)
 800118a:	681b      	ldr	r3, [r3, #0]
 800118c:	f043 0301 	orr.w	r3, r3, #1
 8001190:	6013      	str	r3, [r2, #0]
  return true;
 8001192:	2301      	movs	r3, #1
}
 8001194:	4618      	mov	r0, r3
 8001196:	3718      	adds	r7, #24
 8001198:	46bd      	mov	sp, r7
 800119a:	bd80      	pop	{r7, pc}
 800119c:	000186a0 	.word	0x000186a0
 80011a0:	00061a80 	.word	0x00061a80
 80011a4:	40020400 	.word	0x40020400
 80011a8:	40023800 	.word	0x40023800
 80011ac:	40005400 	.word	0x40005400
 80011b0:	20000000 	.word	0x20000000
 80011b4:	431bde83 	.word	0x431bde83
 80011b8:	10624dd3 	.word	0x10624dd3

080011bc <I2C_Reset>:

static void I2C_Reset(void)
{
 80011bc:	b480      	push	{r7}
 80011be:	b083      	sub	sp, #12
 80011c0:	af00      	add	r7, sp, #0
  uint16_t tout;

  I2C1->CR1 |= I2C_CR1_SWRST;   // reset peripheral signal
 80011c2:	4a0c      	ldr	r2, [pc, #48]	; (80011f4 <I2C_Reset+0x38>)
 80011c4:	4b0b      	ldr	r3, [pc, #44]	; (80011f4 <I2C_Reset+0x38>)
 80011c6:	681b      	ldr	r3, [r3, #0]
 80011c8:	f443 4300 	orr.w	r3, r3, #32768	; 0x8000
 80011cc:	6013      	str	r3, [r2, #0]
  for (tout = 100; tout; tout--)  // short delay
 80011ce:	2364      	movs	r3, #100	; 0x64
 80011d0:	80fb      	strh	r3, [r7, #6]
 80011d2:	e003      	b.n	80011dc <I2C_Reset+0x20>
    __nop();
 80011d4:	bf00      	nop
  for (tout = 100; tout; tout--)  // short delay
 80011d6:	88fb      	ldrh	r3, [r7, #6]
 80011d8:	3b01      	subs	r3, #1
 80011da:	80fb      	strh	r3, [r7, #6]
 80011dc:	88fb      	ldrh	r3, [r7, #6]
 80011de:	2b00      	cmp	r3, #0
 80011e0:	d1f8      	bne.n	80011d4 <I2C_Reset+0x18>
  I2C1->CR1 = 0;
 80011e2:	4b04      	ldr	r3, [pc, #16]	; (80011f4 <I2C_Reset+0x38>)
 80011e4:	2200      	movs	r2, #0
 80011e6:	601a      	str	r2, [r3, #0]
}
 80011e8:	bf00      	nop
 80011ea:	370c      	adds	r7, #12
 80011ec:	46bd      	mov	sp, r7
 80011ee:	f85d 7b04 	ldr.w	r7, [sp], #4
 80011f2:	4770      	bx	lr
 80011f4:	40005400 	.word	0x40005400

080011f8 <I2C_sr>:

static const uint16_t _timeoutI2C = MAX_TIMEOUT;

// read 16-bit status
static __inline uint16_t I2C_sr(void) 
{
 80011f8:	b480      	push	{r7}
 80011fa:	b083      	sub	sp, #12
 80011fc:	af00      	add	r7, sp, #0
  uint16_t sr;

  sr  = I2C1->SR1;
 80011fe:	4b08      	ldr	r3, [pc, #32]	; (8001220 <I2C_sr+0x28>)
 8001200:	695b      	ldr	r3, [r3, #20]
 8001202:	80fb      	strh	r3, [r7, #6]
  sr |= I2C1->SR2 << 16;
 8001204:	4b06      	ldr	r3, [pc, #24]	; (8001220 <I2C_sr+0x28>)
 8001206:	699b      	ldr	r3, [r3, #24]
 8001208:	041b      	lsls	r3, r3, #16
 800120a:	b29a      	uxth	r2, r3
 800120c:	88fb      	ldrh	r3, [r7, #6]
 800120e:	4313      	orrs	r3, r2
 8001210:	80fb      	strh	r3, [r7, #6]
  return (sr);
 8001212:	88fb      	ldrh	r3, [r7, #6]
}
 8001214:	4618      	mov	r0, r3
 8001216:	370c      	adds	r7, #12
 8001218:	46bd      	mov	sp, r7
 800121a:	f85d 7b04 	ldr.w	r7, [sp], #4
 800121e:	4770      	bx	lr
 8001220:	40005400 	.word	0x40005400

08001224 <I2C_Start>:

// Perform I2C Start-Condition
static bool I2C_Start(void)
{
 8001224:	b580      	push	{r7, lr}
 8001226:	b082      	sub	sp, #8
 8001228:	af00      	add	r7, sp, #0
  uint16_t w = _timeoutI2C;
 800122a:	f242 7310 	movw	r3, #10000	; 0x2710
 800122e:	80fb      	strh	r3, [r7, #6]
  
  I2C1->CR1 |= I2C_CR1_START;
 8001230:	4a0f      	ldr	r2, [pc, #60]	; (8001270 <I2C_Start+0x4c>)
 8001232:	4b0f      	ldr	r3, [pc, #60]	; (8001270 <I2C_Start+0x4c>)
 8001234:	681b      	ldr	r3, [r3, #0]
 8001236:	f443 7380 	orr.w	r3, r3, #256	; 0x100
 800123a:	6013      	str	r3, [r2, #0]
  while (!(I2C_sr() & I2C_SR1_SB))      // wait for start condition generated
 800123c:	e005      	b.n	800124a <I2C_Start+0x26>
  {
    if (w)
 800123e:	88fb      	ldrh	r3, [r7, #6]
 8001240:	2b00      	cmp	r3, #0
 8001242:	d00a      	beq.n	800125a <I2C_Start+0x36>
      w--;
 8001244:	88fb      	ldrh	r3, [r7, #6]
 8001246:	3b01      	subs	r3, #1
 8001248:	80fb      	strh	r3, [r7, #6]
  while (!(I2C_sr() & I2C_SR1_SB))      // wait for start condition generated
 800124a:	f7ff ffd5 	bl	80011f8 <I2C_sr>
 800124e:	4603      	mov	r3, r0
 8001250:	f003 0301 	and.w	r3, r3, #1
 8001254:	2b00      	cmp	r3, #0
 8001256:	d0f2      	beq.n	800123e <I2C_Start+0x1a>
 8001258:	e000      	b.n	800125c <I2C_Start+0x38>
    else
      break;
 800125a:	bf00      	nop
  }
  
  return w;
 800125c:	88fb      	ldrh	r3, [r7, #6]
 800125e:	2b00      	cmp	r3, #0
 8001260:	bf14      	ite	ne
 8001262:	2301      	movne	r3, #1
 8001264:	2300      	moveq	r3, #0
 8001266:	b2db      	uxtb	r3, r3
}
 8001268:	4618      	mov	r0, r3
 800126a:	3708      	adds	r7, #8
 800126c:	46bd      	mov	sp, r7
 800126e:	bd80      	pop	{r7, pc}
 8001270:	40005400 	.word	0x40005400

08001274 <I2C_Stop>:

// Perform I2C Stop-Condition
static bool I2C_Stop(void)
{
 8001274:	b580      	push	{r7, lr}
 8001276:	b082      	sub	sp, #8
 8001278:	af00      	add	r7, sp, #0
  uint16_t w = _timeoutI2C;
 800127a:	f242 7310 	movw	r3, #10000	; 0x2710
 800127e:	80fb      	strh	r3, [r7, #6]

  I2C1->CR1 |= I2C_CR1_STOP;
 8001280:	4a0f      	ldr	r2, [pc, #60]	; (80012c0 <I2C_Stop+0x4c>)
 8001282:	4b0f      	ldr	r3, [pc, #60]	; (80012c0 <I2C_Stop+0x4c>)
 8001284:	681b      	ldr	r3, [r3, #0]
 8001286:	f443 7300 	orr.w	r3, r3, #512	; 0x200
 800128a:	6013      	str	r3, [r2, #0]
  while (I2C_sr() & (I2C_SR2_MSL << 16))         // Wait until BUSY bit reset          
 800128c:	e005      	b.n	800129a <I2C_Stop+0x26>
  {
    if (w)
 800128e:	88fb      	ldrh	r3, [r7, #6]
 8001290:	2b00      	cmp	r3, #0
 8001292:	d00a      	beq.n	80012aa <I2C_Stop+0x36>
      w--;
 8001294:	88fb      	ldrh	r3, [r7, #6]
 8001296:	3b01      	subs	r3, #1
 8001298:	80fb      	strh	r3, [r7, #6]
  while (I2C_sr() & (I2C_SR2_MSL << 16))         // Wait until BUSY bit reset          
 800129a:	f7ff ffad 	bl	80011f8 <I2C_sr>
 800129e:	4603      	mov	r3, r0
 80012a0:	f403 3380 	and.w	r3, r3, #65536	; 0x10000
 80012a4:	2b00      	cmp	r3, #0
 80012a6:	d1f2      	bne.n	800128e <I2C_Stop+0x1a>
 80012a8:	e000      	b.n	80012ac <I2C_Stop+0x38>
    else
      break;
 80012aa:	bf00      	nop
  }
  
  return w;
 80012ac:	88fb      	ldrh	r3, [r7, #6]
 80012ae:	2b00      	cmp	r3, #0
 80012b0:	bf14      	ite	ne
 80012b2:	2301      	movne	r3, #1
 80012b4:	2300      	moveq	r3, #0
 80012b6:	b2db      	uxtb	r3, r3
}
 80012b8:	4618      	mov	r0, r3
 80012ba:	3708      	adds	r7, #8
 80012bc:	46bd      	mov	sp, r7
 80012be:	bd80      	pop	{r7, pc}
 80012c0:	40005400 	.word	0x40005400

080012c4 <I2C_Addr>:

// send Address
static bool I2C_Addr(uint8_t adr)
{
 80012c4:	b580      	push	{r7, lr}
 80012c6:	b084      	sub	sp, #16
 80012c8:	af00      	add	r7, sp, #0
 80012ca:	4603      	mov	r3, r0
 80012cc:	71fb      	strb	r3, [r7, #7]
  uint16_t w = _timeoutI2C;
 80012ce:	f242 7310 	movw	r3, #10000	; 0x2710
 80012d2:	81fb      	strh	r3, [r7, #14]
  
  I2C1->DR = adr;
 80012d4:	4a0b      	ldr	r2, [pc, #44]	; (8001304 <I2C_Addr+0x40>)
 80012d6:	79fb      	ldrb	r3, [r7, #7]
 80012d8:	6113      	str	r3, [r2, #16]
  while(!(I2C_sr() & I2C_SR1_ADDR))  // wait for sending completion
 80012da:	e005      	b.n	80012e8 <I2C_Addr+0x24>
  {
    if (w)
 80012dc:	89fb      	ldrh	r3, [r7, #14]
 80012de:	2b00      	cmp	r3, #0
 80012e0:	d00a      	beq.n	80012f8 <I2C_Addr+0x34>
      w--;
 80012e2:	89fb      	ldrh	r3, [r7, #14]
 80012e4:	3b01      	subs	r3, #1
 80012e6:	81fb      	strh	r3, [r7, #14]
  while(!(I2C_sr() & I2C_SR1_ADDR))  // wait for sending completion
 80012e8:	f7ff ff86 	bl	80011f8 <I2C_sr>
 80012ec:	4603      	mov	r3, r0
 80012ee:	f003 0302 	and.w	r3, r3, #2
 80012f2:	2b00      	cmp	r3, #0
 80012f4:	d0f2      	beq.n	80012dc <I2C_Addr+0x18>
 80012f6:	e000      	b.n	80012fa <I2C_Addr+0x36>
    else
      break;
 80012f8:	bf00      	nop
  }
  
  return true;
 80012fa:	2301      	movs	r3, #1
}
 80012fc:	4618      	mov	r0, r3
 80012fe:	3710      	adds	r7, #16
 8001300:	46bd      	mov	sp, r7
 8001302:	bd80      	pop	{r7, pc}
 8001304:	40005400 	.word	0x40005400

08001308 <I2C_Write>:

// send data
static bool I2C_Write(uint8_t val)
{
 8001308:	b580      	push	{r7, lr}
 800130a:	b084      	sub	sp, #16
 800130c:	af00      	add	r7, sp, #0
 800130e:	4603      	mov	r3, r0
 8001310:	71fb      	strb	r3, [r7, #7]
  uint16_t w = _timeoutI2C;
 8001312:	f242 7310 	movw	r3, #10000	; 0x2710
 8001316:	81fb      	strh	r3, [r7, #14]
  
  I2C1->DR = val;
 8001318:	4a0b      	ldr	r2, [pc, #44]	; (8001348 <I2C_Write+0x40>)
 800131a:	79fb      	ldrb	r3, [r7, #7]
 800131c:	6113      	str	r3, [r2, #16]
  while (!(I2C_sr() & I2C_SR1_BTF))
 800131e:	e005      	b.n	800132c <I2C_Write+0x24>
  {
    if (w)
 8001320:	89fb      	ldrh	r3, [r7, #14]
 8001322:	2b00      	cmp	r3, #0
 8001324:	d00a      	beq.n	800133c <I2C_Write+0x34>
      w--;
 8001326:	89fb      	ldrh	r3, [r7, #14]
 8001328:	3b01      	subs	r3, #1
 800132a:	81fb      	strh	r3, [r7, #14]
  while (!(I2C_sr() & I2C_SR1_BTF))
 800132c:	f7ff ff64 	bl	80011f8 <I2C_sr>
 8001330:	4603      	mov	r3, r0
 8001332:	f003 0304 	and.w	r3, r3, #4
 8001336:	2b00      	cmp	r3, #0
 8001338:	d0f2      	beq.n	8001320 <I2C_Write+0x18>
 800133a:	e000      	b.n	800133e <I2C_Write+0x36>
    else
      break;
 800133c:	bf00      	nop
  }
  
  return true;
 800133e:	2301      	movs	r3, #1
}
 8001340:	4618      	mov	r0, r3
 8001342:	3710      	adds	r7, #16
 8001344:	46bd      	mov	sp, r7
 8001346:	bd80      	pop	{r7, pc}
 8001348:	40005400 	.word	0x40005400

0800134c <I2C_Read>:

// read data - ACK = 1 
static uint8_t I2C_Read(bool ack)
{
 800134c:	b580      	push	{r7, lr}
 800134e:	b084      	sub	sp, #16
 8001350:	af00      	add	r7, sp, #0
 8001352:	4603      	mov	r3, r0
 8001354:	71fb      	strb	r3, [r7, #7]
  uint16_t w = _timeoutI2C;
 8001356:	f242 7310 	movw	r3, #10000	; 0x2710
 800135a:	81fb      	strh	r3, [r7, #14]

  // Enable/disable Master acknowledge
  if (ack) I2C1->CR1 |= I2C_CR1_ACK;
 800135c:	79fb      	ldrb	r3, [r7, #7]
 800135e:	2b00      	cmp	r3, #0
 8001360:	d006      	beq.n	8001370 <I2C_Read+0x24>
 8001362:	4a12      	ldr	r2, [pc, #72]	; (80013ac <I2C_Read+0x60>)
 8001364:	4b11      	ldr	r3, [pc, #68]	; (80013ac <I2C_Read+0x60>)
 8001366:	681b      	ldr	r3, [r3, #0]
 8001368:	f443 6380 	orr.w	r3, r3, #1024	; 0x400
 800136c:	6013      	str	r3, [r2, #0]
 800136e:	e00c      	b.n	800138a <I2C_Read+0x3e>
  else     I2C1->CR1 &= ~I2C_CR1_ACK;
 8001370:	4a0e      	ldr	r2, [pc, #56]	; (80013ac <I2C_Read+0x60>)
 8001372:	4b0e      	ldr	r3, [pc, #56]	; (80013ac <I2C_Read+0x60>)
 8001374:	681b      	ldr	r3, [r3, #0]
 8001376:	f423 6380 	bic.w	r3, r3, #1024	; 0x400
 800137a:	6013      	str	r3, [r2, #0]

  while (!(I2C_sr() & I2C_SR1_RXNE))
 800137c:	e005      	b.n	800138a <I2C_Read+0x3e>
  {
    if (w)
 800137e:	89fb      	ldrh	r3, [r7, #14]
 8001380:	2b00      	cmp	r3, #0
 8001382:	d00a      	beq.n	800139a <I2C_Read+0x4e>
      w--;
 8001384:	89fb      	ldrh	r3, [r7, #14]
 8001386:	3b01      	subs	r3, #1
 8001388:	81fb      	strh	r3, [r7, #14]
  while (!(I2C_sr() & I2C_SR1_RXNE))
 800138a:	f7ff ff35 	bl	80011f8 <I2C_sr>
 800138e:	4603      	mov	r3, r0
 8001390:	f003 0340 	and.w	r3, r3, #64	; 0x40
 8001394:	2b00      	cmp	r3, #0
 8001396:	d0f2      	beq.n	800137e <I2C_Read+0x32>
 8001398:	e000      	b.n	800139c <I2C_Read+0x50>
    else
      break;
 800139a:	bf00      	nop
  }
  
  return (I2C1->DR);
 800139c:	4b03      	ldr	r3, [pc, #12]	; (80013ac <I2C_Read+0x60>)
 800139e:	691b      	ldr	r3, [r3, #16]
 80013a0:	b2db      	uxtb	r3, r3
}
 80013a2:	4618      	mov	r0, r3
 80013a4:	3710      	adds	r7, #16
 80013a6:	46bd      	mov	sp, r7
 80013a8:	bd80      	pop	{r7, pc}
 80013aa:	bf00      	nop
 80013ac:	40005400 	.word	0x40005400

080013b0 <I2C1_WriteByte>:

// public functions
bool I2C1_WriteByte(uint8_t devAdr, uint8_t regAdr, uint8_t val)
{ // 7-bit address, last bit R = 1, W = 0
 80013b0:	b580      	push	{r7, lr}
 80013b2:	b082      	sub	sp, #8
 80013b4:	af00      	add	r7, sp, #0
 80013b6:	4603      	mov	r3, r0
 80013b8:	71fb      	strb	r3, [r7, #7]
 80013ba:	460b      	mov	r3, r1
 80013bc:	71bb      	strb	r3, [r7, #6]
 80013be:	4613      	mov	r3, r2
 80013c0:	717b      	strb	r3, [r7, #5]
  I2C_Start();
 80013c2:	f7ff ff2f 	bl	8001224 <I2C_Start>
  I2C_Addr(devAdr);                 // write
 80013c6:	79fb      	ldrb	r3, [r7, #7]
 80013c8:	4618      	mov	r0, r3
 80013ca:	f7ff ff7b 	bl	80012c4 <I2C_Addr>
  I2C_Write(regAdr);                // address
 80013ce:	79bb      	ldrb	r3, [r7, #6]
 80013d0:	4618      	mov	r0, r3
 80013d2:	f7ff ff99 	bl	8001308 <I2C_Write>
  I2C_Write(val);                   // data
 80013d6:	797b      	ldrb	r3, [r7, #5]
 80013d8:	4618      	mov	r0, r3
 80013da:	f7ff ff95 	bl	8001308 <I2C_Write>
  I2C_Stop();
 80013de:	f7ff ff49 	bl	8001274 <I2C_Stop>

  return true;    //TODO check return states of all partial functions
 80013e2:	2301      	movs	r3, #1
}
 80013e4:	4618      	mov	r0, r3
 80013e6:	3708      	adds	r7, #8
 80013e8:	46bd      	mov	sp, r7
 80013ea:	bd80      	pop	{r7, pc}

080013ec <I2C1_ReadByte>:

uint8_t I2C1_ReadByte(uint8_t devAdr, uint8_t regAdr)
{ // 7-bit address, last bit R = 1, W = 0
 80013ec:	b580      	push	{r7, lr}
 80013ee:	b084      	sub	sp, #16
 80013f0:	af00      	add	r7, sp, #0
 80013f2:	4603      	mov	r3, r0
 80013f4:	460a      	mov	r2, r1
 80013f6:	71fb      	strb	r3, [r7, #7]
 80013f8:	4613      	mov	r3, r2
 80013fa:	71bb      	strb	r3, [r7, #6]
  uint8_t retval;

  I2C_Start();
 80013fc:	f7ff ff12 	bl	8001224 <I2C_Start>
  I2C_Addr(devAdr);        // write
 8001400:	79fb      	ldrb	r3, [r7, #7]
 8001402:	4618      	mov	r0, r3
 8001404:	f7ff ff5e 	bl	80012c4 <I2C_Addr>
  I2C_Write(regAdr);       // address of first register
 8001408:	79bb      	ldrb	r3, [r7, #6]
 800140a:	4618      	mov	r0, r3
 800140c:	f7ff ff7c 	bl	8001308 <I2C_Write>
  I2C_Start();
 8001410:	f7ff ff08 	bl	8001224 <I2C_Start>
  I2C_Addr(devAdr | 1);    // read
 8001414:	79fb      	ldrb	r3, [r7, #7]
 8001416:	f043 0301 	orr.w	r3, r3, #1
 800141a:	b2db      	uxtb	r3, r3
 800141c:	4618      	mov	r0, r3
 800141e:	f7ff ff51 	bl	80012c4 <I2C_Addr>

  retval = I2C_Read(0);    // single read - generate nack
 8001422:	2000      	movs	r0, #0
 8001424:	f7ff ff92 	bl	800134c <I2C_Read>
 8001428:	4603      	mov	r3, r0
 800142a:	73fb      	strb	r3, [r7, #15]

  I2C_Stop();
 800142c:	f7ff ff22 	bl	8001274 <I2C_Stop>
  return retval;
 8001430:	7bfb      	ldrb	r3, [r7, #15]
}
 8001432:	4618      	mov	r0, r3
 8001434:	3710      	adds	r7, #16
 8001436:	46bd      	mov	sp, r7
 8001438:	bd80      	pop	{r7, pc}
	...

0800143c <Usart2Send>:
 */

#include "nucleo_usart.h"

int Usart2Send(char c) //vstup znak ktery se ma odeslat, navratova hodnota int znak ktery se odesilal
{
 800143c:	b480      	push	{r7}
 800143e:	b083      	sub	sp, #12
 8001440:	af00      	add	r7, sp, #0
 8001442:	4603      	mov	r3, r0
 8001444:	71fb      	strb	r3, [r7, #7]

	//Flag TXE je nastaven do jednicky pokud je prazdny datovy registr, tud meme zast odeslat data, flag se automaticky nuluje kdy se datov registr zapln
	// vlastn ik ekej dokud nebude volno, chtlo by to ochranu protoe kdy tuhle funkci zavolm a usart bude vypnut, nikdy tento jev nenastane a bude to vlastn while(true)
	while (!(USART2->SR & USART_SR_TXE)) {
 8001446:	bf00      	nop
 8001448:	4b07      	ldr	r3, [pc, #28]	; (8001468 <Usart2Send+0x2c>)
 800144a:	681b      	ldr	r3, [r3, #0]
 800144c:	f003 0380 	and.w	r3, r3, #128	; 0x80
 8001450:	2b00      	cmp	r3, #0
 8001452:	d0f9      	beq.n	8001448 <Usart2Send+0xc>
		// TXE nemusim nulovat, dela to sam ze zapisu nove data
	}
	USART2->DR = c; // do datovho registru vlom znak kter chci odeslat
 8001454:	4a04      	ldr	r2, [pc, #16]	; (8001468 <Usart2Send+0x2c>)
 8001456:	79fb      	ldrb	r3, [r7, #7]
 8001458:	6053      	str	r3, [r2, #4]
	return c;
 800145a:	79fb      	ldrb	r3, [r7, #7]
}
 800145c:	4618      	mov	r0, r3
 800145e:	370c      	adds	r7, #12
 8001460:	46bd      	mov	sp, r7
 8001462:	f85d 7b04 	ldr.w	r7, [sp], #4
 8001466:	4770      	bx	lr
 8001468:	40004400 	.word	0x40004400

0800146c <Usart2Recived>:
		Usart2Send(*txt); // na konci je ukoncovaci nula(jakoe przdn data)
		txt++;
	}
}

int Usart2Recived(void) {
 800146c:	b480      	push	{r7}
 800146e:	af00      	add	r7, sp, #0
	while (!(USART2->SR & USART_SR_RXNE)) {
 8001470:	bf00      	nop
 8001472:	4b06      	ldr	r3, [pc, #24]	; (800148c <Usart2Recived+0x20>)
 8001474:	681b      	ldr	r3, [r3, #0]
 8001476:	f003 0320 	and.w	r3, r3, #32
 800147a:	2b00      	cmp	r3, #0
 800147c:	d0f9      	beq.n	8001472 <Usart2Recived+0x6>
		// RXNE nemusim nulovat, dela to sam kdy data vytu, kdy je nevytu, nulovat se nebude
	}
	return USART2->DR;
 800147e:	4b03      	ldr	r3, [pc, #12]	; (800148c <Usart2Recived+0x20>)
 8001480:	685b      	ldr	r3, [r3, #4]
}
 8001482:	4618      	mov	r0, r3
 8001484:	46bd      	mov	sp, r7
 8001486:	f85d 7b04 	ldr.w	r7, [sp], #4
 800148a:	4770      	bx	lr
 800148c:	40004400 	.word	0x40004400

08001490 <Usart2Initialization>:
bool IsUsart2Recived(void) {
	return (USART2->SR & USART_SR_RXNE) != 0; // testovn jestli jsou njak data k peten
}


void Usart2Initialization(int baudSpeed){ // baud zatim nefunkcni
 8001490:	b580      	push	{r7, lr}
 8001492:	b082      	sub	sp, #8
 8001494:	af00      	add	r7, sp, #0
 8001496:	6078      	str	r0, [r7, #4]

	if (!(RCC->APB1ENR & RCC_APB1ENR_USART2EN)) // neni povolen USART2
 8001498:	4b29      	ldr	r3, [pc, #164]	; (8001540 <Usart2Initialization+0xb0>)
 800149a:	6c1b      	ldr	r3, [r3, #64]	; 0x40
 800149c:	f403 3300 	and.w	r3, r3, #131072	; 0x20000
 80014a0:	2b00      	cmp	r3, #0
 80014a2:	d111      	bne.n	80014c8 <Usart2Initialization+0x38>
	{
		RCC->APB1ENR |= RCC_APB1ENR_USART2EN;
 80014a4:	4a26      	ldr	r2, [pc, #152]	; (8001540 <Usart2Initialization+0xb0>)
 80014a6:	4b26      	ldr	r3, [pc, #152]	; (8001540 <Usart2Initialization+0xb0>)
 80014a8:	6c1b      	ldr	r3, [r3, #64]	; 0x40
 80014aa:	f443 3300 	orr.w	r3, r3, #131072	; 0x20000
 80014ae:	6413      	str	r3, [r2, #64]	; 0x40
		RCC->APB1RSTR |= RCC_APB1RSTR_USART2RST;
 80014b0:	4a23      	ldr	r2, [pc, #140]	; (8001540 <Usart2Initialization+0xb0>)
 80014b2:	4b23      	ldr	r3, [pc, #140]	; (8001540 <Usart2Initialization+0xb0>)
 80014b4:	6a1b      	ldr	r3, [r3, #32]
 80014b6:	f443 3300 	orr.w	r3, r3, #131072	; 0x20000
 80014ba:	6213      	str	r3, [r2, #32]
		RCC->APB1RSTR &= ~RCC_APB1RSTR_USART2RST;
 80014bc:	4a20      	ldr	r2, [pc, #128]	; (8001540 <Usart2Initialization+0xb0>)
 80014be:	4b20      	ldr	r3, [pc, #128]	; (8001540 <Usart2Initialization+0xb0>)
 80014c0:	6a1b      	ldr	r3, [r3, #32]
 80014c2:	f423 3300 	bic.w	r3, r3, #131072	; 0x20000
 80014c6:	6213      	str	r3, [r2, #32]
	}

	// v nucleo schematu lze najit ze USART TX a USART RX (ten z procesoru, zpis do nj) je na pinech PA2 a PA3
	GPIOConfigurePin(GPIOA, 2, ioPortAlternatrPushPull); // vysln procesoru
 80014c8:	2206      	movs	r2, #6
 80014ca:	2102      	movs	r1, #2
 80014cc:	481d      	ldr	r0, [pc, #116]	; (8001544 <Usart2Initialization+0xb4>)
 80014ce:	f000 f869 	bl	80015a4 <GPIOConfigurePin>
	GPIOConfigureAlternativFunction(GPIOA, 2, 7); // z DS kap. 4 table 9 je vidt e pro PA2 resp. 3 je USART2 nastaven na alternativn funkci 7
 80014d2:	2207      	movs	r2, #7
 80014d4:	2102      	movs	r1, #2
 80014d6:	481b      	ldr	r0, [pc, #108]	; (8001544 <Usart2Initialization+0xb4>)
 80014d8:	f000 f9e2 	bl	80018a0 <GPIOConfigureAlternativFunction>
	GPIOConfigurePin(GPIOA, 3, ioPortAlternatrPushPull); // pjem procesoru, pro pjem vede cesta jinudy take nezle jestli push pull nebo openDrain
 80014dc:	2206      	movs	r2, #6
 80014de:	2103      	movs	r1, #3
 80014e0:	4818      	ldr	r0, [pc, #96]	; (8001544 <Usart2Initialization+0xb4>)
 80014e2:	f000 f85f 	bl	80015a4 <GPIOConfigurePin>
	GPIOConfigureAlternativFunction(GPIOA, 3, 7);
 80014e6:	2207      	movs	r2, #7
 80014e8:	2103      	movs	r1, #3
 80014ea:	4816      	ldr	r0, [pc, #88]	; (8001544 <Usart2Initialization+0xb4>)
 80014ec:	f000 f9d8 	bl	80018a0 <GPIOConfigureAlternativFunction>
// do te jsme nastavovali GPIO na USART, ale te musme nastavit samotnou periferii USART

	USART2->CR1 = USART_CR1_RE | USART_CR1_TE; // Do konfiguranho registru jedna "zapnu" recived(pijmn) a transmit (vysln)
 80014f0:	4b15      	ldr	r3, [pc, #84]	; (8001548 <Usart2Initialization+0xb8>)
 80014f2:	220c      	movs	r2, #12
 80014f4:	60da      	str	r2, [r3, #12]
	USART2->CR2 = 0; // nic nenastavujeme zatm
 80014f6:	4b14      	ldr	r3, [pc, #80]	; (8001548 <Usart2Initialization+0xb8>)
 80014f8:	2200      	movs	r2, #0
 80014fa:	611a      	str	r2, [r3, #16]
	USART2->CR3 = 0; // nic nenastavujeme zatm
 80014fc:	4b12      	ldr	r3, [pc, #72]	; (8001548 <Usart2Initialization+0xb8>)
 80014fe:	2200      	movs	r2, #0
 8001500:	615a      	str	r2, [r3, #20]

	USART2->BRR = 0x1A1; // v podstat dli kter nastavuje rychlost komunikace (pro komunikan rychlost 38400 pi 16MHz je 0x1A1)
 8001502:	4b11      	ldr	r3, [pc, #68]	; (8001548 <Usart2Initialization+0xb8>)
 8001504:	f240 12a1 	movw	r2, #417	; 0x1a1
 8001508:	609a      	str	r2, [r3, #8]

	USART2->CR1 |= USART_CR1_UE; // nakonec povoluji usart
 800150a:	4a0f      	ldr	r2, [pc, #60]	; (8001548 <Usart2Initialization+0xb8>)
 800150c:	4b0e      	ldr	r3, [pc, #56]	; (8001548 <Usart2Initialization+0xb8>)
 800150e:	68db      	ldr	r3, [r3, #12]
 8001510:	f443 5300 	orr.w	r3, r3, #8192	; 0x2000
 8001514:	60d3      	str	r3, [r2, #12]

	setvbuf(stdout,NULL,_IONBF,0); // datov proud, nepovin parametr, typ(nebufrovat), dlka v tomto ppad nesmysln argument, take nula
 8001516:	4b0d      	ldr	r3, [pc, #52]	; (800154c <Usart2Initialization+0xbc>)
 8001518:	681b      	ldr	r3, [r3, #0]
 800151a:	6898      	ldr	r0, [r3, #8]
 800151c:	2300      	movs	r3, #0
 800151e:	2202      	movs	r2, #2
 8001520:	2100      	movs	r1, #0
 8001522:	f000 fbed 	bl	8001d00 <setvbuf>
	setvbuf(stdin,NULL,_IONBF,0); // pouvm pro vstupn i vstupn (printf a podobn vechno pouv stdint/stdout)
 8001526:	4b09      	ldr	r3, [pc, #36]	; (800154c <Usart2Initialization+0xbc>)
 8001528:	681b      	ldr	r3, [r3, #0]
 800152a:	6858      	ldr	r0, [r3, #4]
 800152c:	2300      	movs	r3, #0
 800152e:	2202      	movs	r2, #2
 8001530:	2100      	movs	r1, #0
 8001532:	f000 fbe5 	bl	8001d00 <setvbuf>
}
 8001536:	bf00      	nop
 8001538:	3708      	adds	r7, #8
 800153a:	46bd      	mov	sp, r7
 800153c:	bd80      	pop	{r7, pc}
 800153e:	bf00      	nop
 8001540:	40023800 	.word	0x40023800
 8001544:	40020000 	.word	0x40020000
 8001548:	40004400 	.word	0x40004400
 800154c:	20000004 	.word	0x20000004

08001550 <Reset_Handler>:

    .section  .text.Reset_Handler
  .weak  Reset_Handler
  .type  Reset_Handler, %function
Reset_Handler:  
  ldr   sp, =_estack    		 /* set stack pointer */
 8001550:	f8df d034 	ldr.w	sp, [pc, #52]	; 8001588 <LoopFillZerobss+0x14>

/* Copy the data segment initializers from flash to SRAM */  
  movs  r1, #0
 8001554:	2100      	movs	r1, #0
  b  LoopCopyDataInit
 8001556:	e003      	b.n	8001560 <LoopCopyDataInit>

08001558 <CopyDataInit>:

CopyDataInit:
  ldr  r3, =_sidata
 8001558:	4b0c      	ldr	r3, [pc, #48]	; (800158c <LoopFillZerobss+0x18>)
  ldr  r3, [r3, r1]
 800155a:	585b      	ldr	r3, [r3, r1]
  str  r3, [r0, r1]
 800155c:	5043      	str	r3, [r0, r1]
  adds  r1, r1, #4
 800155e:	3104      	adds	r1, #4

08001560 <LoopCopyDataInit>:
    
LoopCopyDataInit:
  ldr  r0, =_sdata
 8001560:	480b      	ldr	r0, [pc, #44]	; (8001590 <LoopFillZerobss+0x1c>)
  ldr  r3, =_edata
 8001562:	4b0c      	ldr	r3, [pc, #48]	; (8001594 <LoopFillZerobss+0x20>)
  adds  r2, r0, r1
 8001564:	1842      	adds	r2, r0, r1
  cmp  r2, r3
 8001566:	429a      	cmp	r2, r3
  bcc  CopyDataInit
 8001568:	d3f6      	bcc.n	8001558 <CopyDataInit>
  ldr  r2, =_sbss
 800156a:	4a0b      	ldr	r2, [pc, #44]	; (8001598 <LoopFillZerobss+0x24>)
  b  LoopFillZerobss
 800156c:	e002      	b.n	8001574 <LoopFillZerobss>

0800156e <FillZerobss>:
/* Zero fill the bss segment. */  
FillZerobss:
  movs  r3, #0
 800156e:	2300      	movs	r3, #0
  str  r3, [r2], #4
 8001570:	f842 3b04 	str.w	r3, [r2], #4

08001574 <LoopFillZerobss>:
    
LoopFillZerobss:
  ldr  r3, = _ebss
 8001574:	4b09      	ldr	r3, [pc, #36]	; (800159c <LoopFillZerobss+0x28>)
  cmp  r2, r3
 8001576:	429a      	cmp	r2, r3
  bcc  FillZerobss
 8001578:	d3f9      	bcc.n	800156e <FillZerobss>

/* Call the clock system intitialization function.*/
  bl  SystemInit   
 800157a:	f000 fa6d 	bl	8001a58 <SystemInit>
/* Call static constructors */
    bl __libc_init_array
 800157e:	f000 fb1b 	bl	8001bb8 <__libc_init_array>
/* Call the application's entry point.*/
  bl  main
 8001582:	f7ff fcf7 	bl	8000f74 <main>
  bx  lr    
 8001586:	4770      	bx	lr
  ldr   sp, =_estack    		 /* set stack pointer */
 8001588:	20020000 	.word	0x20020000
  ldr  r3, =_sidata
 800158c:	08005c20 	.word	0x08005c20
  ldr  r0, =_sdata
 8001590:	20000000 	.word	0x20000000
  ldr  r3, =_edata
 8001594:	20000674 	.word	0x20000674
  ldr  r2, =_sbss
 8001598:	20000674 	.word	0x20000674
  ldr  r3, = _ebss
 800159c:	200006dc 	.word	0x200006dc

080015a0 <ADC_IRQHandler>:
 * @retval None       
*/
    .section  .text.Default_Handler,"ax",%progbits
Default_Handler:
Infinite_Loop:
  b  Infinite_Loop
 80015a0:	e7fe      	b.n	80015a0 <ADC_IRQHandler>
	...

080015a4 <GPIOConfigurePin>:
 *      Author: Lapunik
 */
#include "stm_core.h"

bool GPIOConfigurePin(GPIO_TypeDef *gpio,uint32_t bitNumber, ioPortMode mode) // konfigurace GPIO do pedpipravench stav
{
 80015a4:	b480      	push	{r7}
 80015a6:	b087      	sub	sp, #28
 80015a8:	af00      	add	r7, sp, #0
 80015aa:	60f8      	str	r0, [r7, #12]
 80015ac:	60b9      	str	r1, [r7, #8]
 80015ae:	4613      	mov	r3, r2
 80015b0:	71fb      	strb	r3, [r7, #7]

	uint32_t enableMask = 0;
 80015b2:	2300      	movs	r3, #0
 80015b4:	617b      	str	r3, [r7, #20]
	uint32_t resetMask = 0;
 80015b6:	2300      	movs	r3, #0
 80015b8:	613b      	str	r3, [r7, #16]

	switch((uint32_t)gpio) // je poteba zapnout hodiny podle toho kter gpio chceme vyuzivat => ulozime bity pro reset a pro zapnuti do masek a pote masku aplikujeme
 80015ba:	68fb      	ldr	r3, [r7, #12]
 80015bc:	4a99      	ldr	r2, [pc, #612]	; (8001824 <GPIOConfigurePin+0x280>)
 80015be:	4293      	cmp	r3, r2
 80015c0:	d01d      	beq.n	80015fe <GPIOConfigurePin+0x5a>
 80015c2:	4a98      	ldr	r2, [pc, #608]	; (8001824 <GPIOConfigurePin+0x280>)
 80015c4:	4293      	cmp	r3, r2
 80015c6:	d806      	bhi.n	80015d6 <GPIOConfigurePin+0x32>
 80015c8:	4a97      	ldr	r2, [pc, #604]	; (8001828 <GPIOConfigurePin+0x284>)
 80015ca:	4293      	cmp	r3, r2
 80015cc:	d00d      	beq.n	80015ea <GPIOConfigurePin+0x46>
 80015ce:	4a97      	ldr	r2, [pc, #604]	; (800182c <GPIOConfigurePin+0x288>)
 80015d0:	4293      	cmp	r3, r2
 80015d2:	d00f      	beq.n	80015f4 <GPIOConfigurePin+0x50>
 80015d4:	e027      	b.n	8001626 <GPIOConfigurePin+0x82>
 80015d6:	4a96      	ldr	r2, [pc, #600]	; (8001830 <GPIOConfigurePin+0x28c>)
 80015d8:	4293      	cmp	r3, r2
 80015da:	d01a      	beq.n	8001612 <GPIOConfigurePin+0x6e>
 80015dc:	4a95      	ldr	r2, [pc, #596]	; (8001834 <GPIOConfigurePin+0x290>)
 80015de:	4293      	cmp	r3, r2
 80015e0:	d01c      	beq.n	800161c <GPIOConfigurePin+0x78>
 80015e2:	4a95      	ldr	r2, [pc, #596]	; (8001838 <GPIOConfigurePin+0x294>)
 80015e4:	4293      	cmp	r3, r2
 80015e6:	d00f      	beq.n	8001608 <GPIOConfigurePin+0x64>
 80015e8:	e01d      	b.n	8001626 <GPIOConfigurePin+0x82>
	{
	case (uint32_t)GPIOA: // GPIOA je definovana konstanta ve formtu "ukazatel", proto msm petypovat na celoselnou hodnotu
        enableMask = RCC_AHB1ENR_GPIOAEN;
 80015ea:	2301      	movs	r3, #1
 80015ec:	617b      	str	r3, [r7, #20]
        resetMask = RCC_AHB1RSTR_GPIOARST;
 80015ee:	2301      	movs	r3, #1
 80015f0:	613b      	str	r3, [r7, #16]
	break;
 80015f2:	e018      	b.n	8001626 <GPIOConfigurePin+0x82>

	case (uint32_t)GPIOB:
        enableMask = RCC_AHB1ENR_GPIOBEN;
 80015f4:	2302      	movs	r3, #2
 80015f6:	617b      	str	r3, [r7, #20]
        resetMask = RCC_AHB1RSTR_GPIOBRST;
 80015f8:	2302      	movs	r3, #2
 80015fa:	613b      	str	r3, [r7, #16]
	break;
 80015fc:	e013      	b.n	8001626 <GPIOConfigurePin+0x82>

	case (uint32_t)GPIOC:
        enableMask = RCC_AHB1ENR_GPIOCEN;
 80015fe:	2304      	movs	r3, #4
 8001600:	617b      	str	r3, [r7, #20]
        resetMask = RCC_AHB1RSTR_GPIOCRST;
 8001602:	2304      	movs	r3, #4
 8001604:	613b      	str	r3, [r7, #16]
	break;
 8001606:	e00e      	b.n	8001626 <GPIOConfigurePin+0x82>

	case (uint32_t)GPIOD:
        enableMask = RCC_AHB1ENR_GPIODEN;
 8001608:	2308      	movs	r3, #8
 800160a:	617b      	str	r3, [r7, #20]
        resetMask = RCC_AHB1RSTR_GPIODRST;
 800160c:	2308      	movs	r3, #8
 800160e:	613b      	str	r3, [r7, #16]
	break;
 8001610:	e009      	b.n	8001626 <GPIOConfigurePin+0x82>

	case (uint32_t)GPIOE:
        enableMask = RCC_AHB1ENR_GPIOEEN;
 8001612:	2310      	movs	r3, #16
 8001614:	617b      	str	r3, [r7, #20]
        resetMask = RCC_AHB1RSTR_GPIOERST;
 8001616:	2310      	movs	r3, #16
 8001618:	613b      	str	r3, [r7, #16]
	break;
 800161a:	e004      	b.n	8001626 <GPIOConfigurePin+0x82>
        enableMask = RCC_AHB1ENR_GPIOGEN;
        resetMask = RCC_AHB1RSTR_GPIOGRST;
	break;
#endif
	case (uint32_t)GPIOH:
        enableMask = RCC_AHB1ENR_GPIOHEN;
 800161c:	2380      	movs	r3, #128	; 0x80
 800161e:	617b      	str	r3, [r7, #20]
        resetMask = RCC_AHB1RSTR_GPIOHRST;
 8001620:	2380      	movs	r3, #128	; 0x80
 8001622:	613b      	str	r3, [r7, #16]
	break;
 8001624:	bf00      	nop

	}

	if((resetMask == 0)||(enableMask == 0)) // pokud se do masek neuloila dn hodnota, ukoni konfiguraci a vrat zpravu false o nespchu
 8001626:	693b      	ldr	r3, [r7, #16]
 8001628:	2b00      	cmp	r3, #0
 800162a:	d002      	beq.n	8001632 <GPIOConfigurePin+0x8e>
 800162c:	697b      	ldr	r3, [r7, #20]
 800162e:	2b00      	cmp	r3, #0
 8001630:	d101      	bne.n	8001636 <GPIOConfigurePin+0x92>
	{
		return false;
 8001632:	2300      	movs	r3, #0
 8001634:	e12d      	b.n	8001892 <GPIOConfigurePin+0x2ee>
	}
	else
	{
		  if(!(RCC -> AHB1ENR & enableMask)) // jestlie nejsou masky przdn, poui je pro nastaven hodin
 8001636:	4b81      	ldr	r3, [pc, #516]	; (800183c <GPIOConfigurePin+0x298>)
 8001638:	6b1a      	ldr	r2, [r3, #48]	; 0x30
 800163a:	697b      	ldr	r3, [r7, #20]
 800163c:	4013      	ands	r3, r2
 800163e:	2b00      	cmp	r3, #0
 8001640:	d112      	bne.n	8001668 <GPIOConfigurePin+0xc4>
		  {
		    RCC->AHB1ENR |= enableMask;
 8001642:	497e      	ldr	r1, [pc, #504]	; (800183c <GPIOConfigurePin+0x298>)
 8001644:	4b7d      	ldr	r3, [pc, #500]	; (800183c <GPIOConfigurePin+0x298>)
 8001646:	6b1a      	ldr	r2, [r3, #48]	; 0x30
 8001648:	697b      	ldr	r3, [r7, #20]
 800164a:	4313      	orrs	r3, r2
 800164c:	630b      	str	r3, [r1, #48]	; 0x30
		    RCC->AHB1RSTR |= resetMask;
 800164e:	497b      	ldr	r1, [pc, #492]	; (800183c <GPIOConfigurePin+0x298>)
 8001650:	4b7a      	ldr	r3, [pc, #488]	; (800183c <GPIOConfigurePin+0x298>)
 8001652:	691a      	ldr	r2, [r3, #16]
 8001654:	693b      	ldr	r3, [r7, #16]
 8001656:	4313      	orrs	r3, r2
 8001658:	610b      	str	r3, [r1, #16]
		    RCC->AHB1RSTR &= ~resetMask;
 800165a:	4978      	ldr	r1, [pc, #480]	; (800183c <GPIOConfigurePin+0x298>)
 800165c:	4b77      	ldr	r3, [pc, #476]	; (800183c <GPIOConfigurePin+0x298>)
 800165e:	691a      	ldr	r2, [r3, #16]
 8001660:	693b      	ldr	r3, [r7, #16]
 8001662:	43db      	mvns	r3, r3
 8001664:	4013      	ands	r3, r2
 8001666:	610b      	str	r3, [r1, #16]
		  }
	}

gpio -> MODER &= ~(0x03 << (bitNumber*2)); // vynulovani zdvojench bitu ped nastavovnm (kdyby nkde byla kombinace 10 a j tam ORoval 01 tak vysledna kombinace je 11 misto 01)...u registru kde se nastavuje pouze jeden bit toho nehroz
 8001668:	68fb      	ldr	r3, [r7, #12]
 800166a:	681b      	ldr	r3, [r3, #0]
 800166c:	68ba      	ldr	r2, [r7, #8]
 800166e:	0052      	lsls	r2, r2, #1
 8001670:	2103      	movs	r1, #3
 8001672:	fa01 f202 	lsl.w	r2, r1, r2
 8001676:	43d2      	mvns	r2, r2
 8001678:	401a      	ands	r2, r3
 800167a:	68fb      	ldr	r3, [r7, #12]
 800167c:	601a      	str	r2, [r3, #0]
gpio -> PUPDR &= ~(0x03 << (bitNumber*2));
 800167e:	68fb      	ldr	r3, [r7, #12]
 8001680:	68db      	ldr	r3, [r3, #12]
 8001682:	68ba      	ldr	r2, [r7, #8]
 8001684:	0052      	lsls	r2, r2, #1
 8001686:	2103      	movs	r1, #3
 8001688:	fa01 f202 	lsl.w	r2, r1, r2
 800168c:	43d2      	mvns	r2, r2
 800168e:	401a      	ands	r2, r3
 8001690:	68fb      	ldr	r3, [r7, #12]
 8001692:	60da      	str	r2, [r3, #12]
gpio -> OSPEEDR &= ~(0x03 << (bitNumber*2));
 8001694:	68fb      	ldr	r3, [r7, #12]
 8001696:	689b      	ldr	r3, [r3, #8]
 8001698:	68ba      	ldr	r2, [r7, #8]
 800169a:	0052      	lsls	r2, r2, #1
 800169c:	2103      	movs	r1, #3
 800169e:	fa01 f202 	lsl.w	r2, r1, r2
 80016a2:	43d2      	mvns	r2, r2
 80016a4:	401a      	ands	r2, r3
 80016a6:	68fb      	ldr	r3, [r7, #12]
 80016a8:	609a      	str	r2, [r3, #8]


switch(mode)
 80016aa:	79fb      	ldrb	r3, [r7, #7]
 80016ac:	2b07      	cmp	r3, #7
 80016ae:	f200 80ef 	bhi.w	8001890 <GPIOConfigurePin+0x2ec>
 80016b2:	a201      	add	r2, pc, #4	; (adr r2, 80016b8 <GPIOConfigurePin+0x114>)
 80016b4:	f852 f023 	ldr.w	pc, [r2, r3, lsl #2]
 80016b8:	080016d9 	.word	0x080016d9
 80016bc:	0800172b 	.word	0x0800172b
 80016c0:	0800177b 	.word	0x0800177b
 80016c4:	08001791 	.word	0x08001791
 80016c8:	080017a7 	.word	0x080017a7
 80016cc:	080017bd 	.word	0x080017bd
 80016d0:	080017d3 	.word	0x080017d3
 80016d4:	08001841 	.word	0x08001841
{
case ioPortOutputPushPull:

	gpio->MODER |= 0x01<<(2*bitNumber); // output
 80016d8:	68fb      	ldr	r3, [r7, #12]
 80016da:	681b      	ldr	r3, [r3, #0]
 80016dc:	68ba      	ldr	r2, [r7, #8]
 80016de:	0052      	lsls	r2, r2, #1
 80016e0:	2101      	movs	r1, #1
 80016e2:	fa01 f202 	lsl.w	r2, r1, r2
 80016e6:	431a      	orrs	r2, r3
 80016e8:	68fb      	ldr	r3, [r7, #12]
 80016ea:	601a      	str	r2, [r3, #0]
	gpio->OTYPER &= ~(0x01<<bitNumber); // push-pull
 80016ec:	68fb      	ldr	r3, [r7, #12]
 80016ee:	685b      	ldr	r3, [r3, #4]
 80016f0:	2101      	movs	r1, #1
 80016f2:	68ba      	ldr	r2, [r7, #8]
 80016f4:	fa01 f202 	lsl.w	r2, r1, r2
 80016f8:	43d2      	mvns	r2, r2
 80016fa:	401a      	ands	r2, r3
 80016fc:	68fb      	ldr	r3, [r7, #12]
 80016fe:	605a      	str	r2, [r3, #4]
	gpio->OSPEEDR |= 0x03<<(2*bitNumber); // height speed
 8001700:	68fb      	ldr	r3, [r7, #12]
 8001702:	689b      	ldr	r3, [r3, #8]
 8001704:	68ba      	ldr	r2, [r7, #8]
 8001706:	0052      	lsls	r2, r2, #1
 8001708:	2103      	movs	r1, #3
 800170a:	fa01 f202 	lsl.w	r2, r1, r2
 800170e:	431a      	orrs	r2, r3
 8001710:	68fb      	ldr	r3, [r7, #12]
 8001712:	609a      	str	r2, [r3, #8]
	gpio->PUPDR &= ~(0x03<<bitNumber); // no pull up, no pull down
 8001714:	68fb      	ldr	r3, [r7, #12]
 8001716:	68db      	ldr	r3, [r3, #12]
 8001718:	2103      	movs	r1, #3
 800171a:	68ba      	ldr	r2, [r7, #8]
 800171c:	fa01 f202 	lsl.w	r2, r1, r2
 8001720:	43d2      	mvns	r2, r2
 8001722:	401a      	ands	r2, r3
 8001724:	68fb      	ldr	r3, [r7, #12]
 8001726:	60da      	str	r2, [r3, #12]
    break;
 8001728:	e0b2      	b.n	8001890 <GPIOConfigurePin+0x2ec>

case ioPortOutputOpenDrain:

	gpio->MODER |= 0x01<<(2*bitNumber); // output
 800172a:	68fb      	ldr	r3, [r7, #12]
 800172c:	681b      	ldr	r3, [r3, #0]
 800172e:	68ba      	ldr	r2, [r7, #8]
 8001730:	0052      	lsls	r2, r2, #1
 8001732:	2101      	movs	r1, #1
 8001734:	fa01 f202 	lsl.w	r2, r1, r2
 8001738:	431a      	orrs	r2, r3
 800173a:	68fb      	ldr	r3, [r7, #12]
 800173c:	601a      	str	r2, [r3, #0]
	gpio->OTYPER |= (0x01<<bitNumber); // open drain
 800173e:	68fb      	ldr	r3, [r7, #12]
 8001740:	685b      	ldr	r3, [r3, #4]
 8001742:	2101      	movs	r1, #1
 8001744:	68ba      	ldr	r2, [r7, #8]
 8001746:	fa01 f202 	lsl.w	r2, r1, r2
 800174a:	431a      	orrs	r2, r3
 800174c:	68fb      	ldr	r3, [r7, #12]
 800174e:	605a      	str	r2, [r3, #4]
	gpio->OSPEEDR |= 0x03<<(2*bitNumber); // height speed
 8001750:	68fb      	ldr	r3, [r7, #12]
 8001752:	689b      	ldr	r3, [r3, #8]
 8001754:	68ba      	ldr	r2, [r7, #8]
 8001756:	0052      	lsls	r2, r2, #1
 8001758:	2103      	movs	r1, #3
 800175a:	fa01 f202 	lsl.w	r2, r1, r2
 800175e:	431a      	orrs	r2, r3
 8001760:	68fb      	ldr	r3, [r7, #12]
 8001762:	609a      	str	r2, [r3, #8]
	gpio->PUPDR &= ~(0x03<<bitNumber); // no pull up, no pull down
 8001764:	68fb      	ldr	r3, [r7, #12]
 8001766:	68db      	ldr	r3, [r3, #12]
 8001768:	2103      	movs	r1, #3
 800176a:	68ba      	ldr	r2, [r7, #8]
 800176c:	fa01 f202 	lsl.w	r2, r1, r2
 8001770:	43d2      	mvns	r2, r2
 8001772:	401a      	ands	r2, r3
 8001774:	68fb      	ldr	r3, [r7, #12]
 8001776:	60da      	str	r2, [r3, #12]
    break;
 8001778:	e08a      	b.n	8001890 <GPIOConfigurePin+0x2ec>

case ioPortAnalog:

	gpio->MODER |= 0x03<<(2*bitNumber); // analog
 800177a:	68fb      	ldr	r3, [r7, #12]
 800177c:	681b      	ldr	r3, [r3, #0]
 800177e:	68ba      	ldr	r2, [r7, #8]
 8001780:	0052      	lsls	r2, r2, #1
 8001782:	2103      	movs	r1, #3
 8001784:	fa01 f202 	lsl.w	r2, r1, r2
 8001788:	431a      	orrs	r2, r3
 800178a:	68fb      	ldr	r3, [r7, #12]
 800178c:	601a      	str	r2, [r3, #0]
    break;
 800178e:	e07f      	b.n	8001890 <GPIOConfigurePin+0x2ec>

case ioPortInputFloat:

	gpio->PUPDR &= ~(0x03<<bitNumber); // no pull up, no pull down
 8001790:	68fb      	ldr	r3, [r7, #12]
 8001792:	68db      	ldr	r3, [r3, #12]
 8001794:	2103      	movs	r1, #3
 8001796:	68ba      	ldr	r2, [r7, #8]
 8001798:	fa01 f202 	lsl.w	r2, r1, r2
 800179c:	43d2      	mvns	r2, r2
 800179e:	401a      	ands	r2, r3
 80017a0:	68fb      	ldr	r3, [r7, #12]
 80017a2:	60da      	str	r2, [r3, #12]
    break;
 80017a4:	e074      	b.n	8001890 <GPIOConfigurePin+0x2ec>

case ioPortInputPullUp:

	gpio->PUPDR |= ~(0x01<<bitNumber); // pull up
 80017a6:	68fb      	ldr	r3, [r7, #12]
 80017a8:	68db      	ldr	r3, [r3, #12]
 80017aa:	2101      	movs	r1, #1
 80017ac:	68ba      	ldr	r2, [r7, #8]
 80017ae:	fa01 f202 	lsl.w	r2, r1, r2
 80017b2:	43d2      	mvns	r2, r2
 80017b4:	431a      	orrs	r2, r3
 80017b6:	68fb      	ldr	r3, [r7, #12]
 80017b8:	60da      	str	r2, [r3, #12]
    break;
 80017ba:	e069      	b.n	8001890 <GPIOConfigurePin+0x2ec>

case ioPortInputPullDown:

	gpio->PUPDR |= ~(0x02<<bitNumber); // pull down
 80017bc:	68fb      	ldr	r3, [r7, #12]
 80017be:	68db      	ldr	r3, [r3, #12]
 80017c0:	2102      	movs	r1, #2
 80017c2:	68ba      	ldr	r2, [r7, #8]
 80017c4:	fa01 f202 	lsl.w	r2, r1, r2
 80017c8:	43d2      	mvns	r2, r2
 80017ca:	431a      	orrs	r2, r3
 80017cc:	68fb      	ldr	r3, [r7, #12]
 80017ce:	60da      	str	r2, [r3, #12]
    break;
 80017d0:	e05e      	b.n	8001890 <GPIOConfigurePin+0x2ec>

case ioPortAlternatrPushPull:

	gpio->MODER |= 0x02<<(2*bitNumber); // alternate function
 80017d2:	68fb      	ldr	r3, [r7, #12]
 80017d4:	681b      	ldr	r3, [r3, #0]
 80017d6:	68ba      	ldr	r2, [r7, #8]
 80017d8:	0052      	lsls	r2, r2, #1
 80017da:	2102      	movs	r1, #2
 80017dc:	fa01 f202 	lsl.w	r2, r1, r2
 80017e0:	431a      	orrs	r2, r3
 80017e2:	68fb      	ldr	r3, [r7, #12]
 80017e4:	601a      	str	r2, [r3, #0]
	gpio->OTYPER &= ~(0x01<<bitNumber); // push pull
 80017e6:	68fb      	ldr	r3, [r7, #12]
 80017e8:	685b      	ldr	r3, [r3, #4]
 80017ea:	2101      	movs	r1, #1
 80017ec:	68ba      	ldr	r2, [r7, #8]
 80017ee:	fa01 f202 	lsl.w	r2, r1, r2
 80017f2:	43d2      	mvns	r2, r2
 80017f4:	401a      	ands	r2, r3
 80017f6:	68fb      	ldr	r3, [r7, #12]
 80017f8:	605a      	str	r2, [r3, #4]
	gpio->OSPEEDR |= 0x03<<(2*bitNumber); // height speed
 80017fa:	68fb      	ldr	r3, [r7, #12]
 80017fc:	689b      	ldr	r3, [r3, #8]
 80017fe:	68ba      	ldr	r2, [r7, #8]
 8001800:	0052      	lsls	r2, r2, #1
 8001802:	2103      	movs	r1, #3
 8001804:	fa01 f202 	lsl.w	r2, r1, r2
 8001808:	431a      	orrs	r2, r3
 800180a:	68fb      	ldr	r3, [r7, #12]
 800180c:	609a      	str	r2, [r3, #8]
	gpio->PUPDR &= ~(0x03<<bitNumber); // no pull up, no pull down
 800180e:	68fb      	ldr	r3, [r7, #12]
 8001810:	68db      	ldr	r3, [r3, #12]
 8001812:	2103      	movs	r1, #3
 8001814:	68ba      	ldr	r2, [r7, #8]
 8001816:	fa01 f202 	lsl.w	r2, r1, r2
 800181a:	43d2      	mvns	r2, r2
 800181c:	401a      	ands	r2, r3
 800181e:	68fb      	ldr	r3, [r7, #12]
 8001820:	60da      	str	r2, [r3, #12]
    break;
 8001822:	e035      	b.n	8001890 <GPIOConfigurePin+0x2ec>
 8001824:	40020800 	.word	0x40020800
 8001828:	40020000 	.word	0x40020000
 800182c:	40020400 	.word	0x40020400
 8001830:	40021000 	.word	0x40021000
 8001834:	40021c00 	.word	0x40021c00
 8001838:	40020c00 	.word	0x40020c00
 800183c:	40023800 	.word	0x40023800

case ioPortAlternatrOpenDrain:

	gpio->MODER |= 0x02<<(2*bitNumber); // alternate function
 8001840:	68fb      	ldr	r3, [r7, #12]
 8001842:	681b      	ldr	r3, [r3, #0]
 8001844:	68ba      	ldr	r2, [r7, #8]
 8001846:	0052      	lsls	r2, r2, #1
 8001848:	2102      	movs	r1, #2
 800184a:	fa01 f202 	lsl.w	r2, r1, r2
 800184e:	431a      	orrs	r2, r3
 8001850:	68fb      	ldr	r3, [r7, #12]
 8001852:	601a      	str	r2, [r3, #0]
	gpio->OTYPER |= (0x01<<bitNumber); // open drain
 8001854:	68fb      	ldr	r3, [r7, #12]
 8001856:	685b      	ldr	r3, [r3, #4]
 8001858:	2101      	movs	r1, #1
 800185a:	68ba      	ldr	r2, [r7, #8]
 800185c:	fa01 f202 	lsl.w	r2, r1, r2
 8001860:	431a      	orrs	r2, r3
 8001862:	68fb      	ldr	r3, [r7, #12]
 8001864:	605a      	str	r2, [r3, #4]
	gpio->OSPEEDR |= 0x03<<(2*bitNumber); // height speed
 8001866:	68fb      	ldr	r3, [r7, #12]
 8001868:	689b      	ldr	r3, [r3, #8]
 800186a:	68ba      	ldr	r2, [r7, #8]
 800186c:	0052      	lsls	r2, r2, #1
 800186e:	2103      	movs	r1, #3
 8001870:	fa01 f202 	lsl.w	r2, r1, r2
 8001874:	431a      	orrs	r2, r3
 8001876:	68fb      	ldr	r3, [r7, #12]
 8001878:	609a      	str	r2, [r3, #8]
	gpio->PUPDR &= ~(0x03<<bitNumber); // no pull up, no pull down
 800187a:	68fb      	ldr	r3, [r7, #12]
 800187c:	68db      	ldr	r3, [r3, #12]
 800187e:	2103      	movs	r1, #3
 8001880:	68ba      	ldr	r2, [r7, #8]
 8001882:	fa01 f202 	lsl.w	r2, r1, r2
 8001886:	43d2      	mvns	r2, r2
 8001888:	401a      	ands	r2, r3
 800188a:	68fb      	ldr	r3, [r7, #12]
 800188c:	60da      	str	r2, [r3, #12]
    break;
 800188e:	bf00      	nop


}
    return true;
 8001890:	2301      	movs	r3, #1
}
 8001892:	4618      	mov	r0, r3
 8001894:	371c      	adds	r7, #28
 8001896:	46bd      	mov	sp, r7
 8001898:	f85d 7b04 	ldr.w	r7, [sp], #4
 800189c:	4770      	bx	lr
 800189e:	bf00      	nop

080018a0 <GPIOConfigureAlternativFunction>:

bool GPIOConfigureAlternativFunction(GPIO_TypeDef *gpio,uint32_t bitNumber, uint32_t afValue) // konfigurace GPIO do alternativn funkce
{
 80018a0:	b480      	push	{r7}
 80018a2:	b087      	sub	sp, #28
 80018a4:	af00      	add	r7, sp, #0
 80018a6:	60f8      	str	r0, [r7, #12]
 80018a8:	60b9      	str	r1, [r7, #8]
 80018aa:	607a      	str	r2, [r7, #4]
	// alternativni funkce se nastavuje pomoci registr AFR,(to k kter alternativn funkce je pipojena), registry jsou dva(AFRL,AFRH) protoe potebujeme 64bit (je tam estnct alternativnch kanl na kadej vstup a vstup(to zanemn 4 bity na jeden kanl))
	// v hlavikovch souborech neni AFRL a AFRH ale je tam dvouprvkove uint 32 bitove pole (AFR[0] = AFRL,AFR[1] = AFRH)
	uint8_t afr = (bitNumber < 8) ? 0 : 1 ;
 80018ac:	68bb      	ldr	r3, [r7, #8]
 80018ae:	2b07      	cmp	r3, #7
 80018b0:	bf8c      	ite	hi
 80018b2:	2301      	movhi	r3, #1
 80018b4:	2300      	movls	r3, #0
 80018b6:	b2db      	uxtb	r3, r3
 80018b8:	75fb      	strb	r3, [r7, #23]

    gpio->AFR[afr] &= ~(0x0f << (4 * (bitNumber & 0x07))); // vynulujeme 4 bity naseho kanalu, pro jistotu maskuju bit number
 80018ba:	7dfa      	ldrb	r2, [r7, #23]
 80018bc:	7df9      	ldrb	r1, [r7, #23]
 80018be:	68fb      	ldr	r3, [r7, #12]
 80018c0:	3108      	adds	r1, #8
 80018c2:	f853 3021 	ldr.w	r3, [r3, r1, lsl #2]
 80018c6:	68b9      	ldr	r1, [r7, #8]
 80018c8:	f001 0107 	and.w	r1, r1, #7
 80018cc:	0089      	lsls	r1, r1, #2
 80018ce:	200f      	movs	r0, #15
 80018d0:	fa00 f101 	lsl.w	r1, r0, r1
 80018d4:	43c9      	mvns	r1, r1
 80018d6:	4019      	ands	r1, r3
 80018d8:	68fb      	ldr	r3, [r7, #12]
 80018da:	3208      	adds	r2, #8
 80018dc:	f843 1022 	str.w	r1, [r3, r2, lsl #2]
    gpio->AFR[afr] |= ((afValue & 0x0f) << (4 * (bitNumber & 0x07))); // nastavim pozadovanou hodnotu alternativni funkce, prom jistotu, kdyby byla afValue vetsi ne 4 bity(nemla by bt) si maskujeme jenom dan 4 bity kter chceme pouvat
 80018e0:	7dfa      	ldrb	r2, [r7, #23]
 80018e2:	7df9      	ldrb	r1, [r7, #23]
 80018e4:	68fb      	ldr	r3, [r7, #12]
 80018e6:	3108      	adds	r1, #8
 80018e8:	f853 1021 	ldr.w	r1, [r3, r1, lsl #2]
 80018ec:	687b      	ldr	r3, [r7, #4]
 80018ee:	f003 000f 	and.w	r0, r3, #15
 80018f2:	68bb      	ldr	r3, [r7, #8]
 80018f4:	f003 0307 	and.w	r3, r3, #7
 80018f8:	009b      	lsls	r3, r3, #2
 80018fa:	fa00 f303 	lsl.w	r3, r0, r3
 80018fe:	4319      	orrs	r1, r3
 8001900:	68fb      	ldr	r3, [r7, #12]
 8001902:	3208      	adds	r2, #8
 8001904:	f843 1022 	str.w	r1, [r3, r2, lsl #2]
    return true;
 8001908:	2301      	movs	r3, #1
  //  gpio->AFR[(bitNumber < 8) ? 0 : 1] &= ~(0x0f << (4 * (bitNumber & 0x07))); // vynuluj AF bity
  //  gpio->AFR[(bitNumber < 8) ? 0 : 1] |= ((afValue & 0x0f) << (4 * (bitNumber & 0x07))); // nastav AF bity



}
 800190a:	4618      	mov	r0, r3
 800190c:	371c      	adds	r7, #28
 800190e:	46bd      	mov	sp, r7
 8001910:	f85d 7b04 	ldr.w	r7, [sp], #4
 8001914:	4770      	bx	lr
	...

08001918 <_sbrk>:
	while (1) {}		/* Make sure we hang here */
}


void * _sbrk(int32_t incr)
{
 8001918:	b480      	push	{r7}
 800191a:	b085      	sub	sp, #20
 800191c:	af00      	add	r7, sp, #0
 800191e:	6078      	str	r0, [r7, #4]
	extern char   end; /* Set by linker.  */
	static char * heap_end;
	char *        prev_heap_end;

	if (heap_end == 0) {
 8001920:	4b0b      	ldr	r3, [pc, #44]	; (8001950 <_sbrk+0x38>)
 8001922:	681b      	ldr	r3, [r3, #0]
 8001924:	2b00      	cmp	r3, #0
 8001926:	d102      	bne.n	800192e <_sbrk+0x16>
		heap_end = & end;
 8001928:	4b09      	ldr	r3, [pc, #36]	; (8001950 <_sbrk+0x38>)
 800192a:	4a0a      	ldr	r2, [pc, #40]	; (8001954 <_sbrk+0x3c>)
 800192c:	601a      	str	r2, [r3, #0]
	}

	prev_heap_end = heap_end;
 800192e:	4b08      	ldr	r3, [pc, #32]	; (8001950 <_sbrk+0x38>)
 8001930:	681b      	ldr	r3, [r3, #0]
 8001932:	60fb      	str	r3, [r7, #12]
	heap_end += incr;
 8001934:	4b06      	ldr	r3, [pc, #24]	; (8001950 <_sbrk+0x38>)
 8001936:	681a      	ldr	r2, [r3, #0]
 8001938:	687b      	ldr	r3, [r7, #4]
 800193a:	4413      	add	r3, r2
 800193c:	4a04      	ldr	r2, [pc, #16]	; (8001950 <_sbrk+0x38>)
 800193e:	6013      	str	r3, [r2, #0]

	return (void *) prev_heap_end;
 8001940:	68fb      	ldr	r3, [r7, #12]
}
 8001942:	4618      	mov	r0, r3
 8001944:	3714      	adds	r7, #20
 8001946:	46bd      	mov	sp, r7
 8001948:	f85d 7b04 	ldr.w	r7, [sp], #4
 800194c:	4770      	bx	lr
 800194e:	bf00      	nop
 8001950:	20000694 	.word	0x20000694
 8001954:	200006dc 	.word	0x200006dc

08001958 <_close>:

int _close(int32_t file)
{
 8001958:	b480      	push	{r7}
 800195a:	b083      	sub	sp, #12
 800195c:	af00      	add	r7, sp, #0
 800195e:	6078      	str	r0, [r7, #4]
	errno = ENOSYS;
 8001960:	4b05      	ldr	r3, [pc, #20]	; (8001978 <_close+0x20>)
 8001962:	2258      	movs	r2, #88	; 0x58
 8001964:	601a      	str	r2, [r3, #0]
	return -1;
 8001966:	f04f 33ff 	mov.w	r3, #4294967295
}
 800196a:	4618      	mov	r0, r3
 800196c:	370c      	adds	r7, #12
 800196e:	46bd      	mov	sp, r7
 8001970:	f85d 7b04 	ldr.w	r7, [sp], #4
 8001974:	4770      	bx	lr
 8001976:	bf00      	nop
 8001978:	200006cc 	.word	0x200006cc

0800197c <_fstat>:


int _fstat(int32_t file, struct stat *st)
{
 800197c:	b480      	push	{r7}
 800197e:	b083      	sub	sp, #12
 8001980:	af00      	add	r7, sp, #0
 8001982:	6078      	str	r0, [r7, #4]
 8001984:	6039      	str	r1, [r7, #0]
	errno = ENOSYS;
 8001986:	4b05      	ldr	r3, [pc, #20]	; (800199c <_fstat+0x20>)
 8001988:	2258      	movs	r2, #88	; 0x58
 800198a:	601a      	str	r2, [r3, #0]
	return -1;
 800198c:	f04f 33ff 	mov.w	r3, #4294967295
}
 8001990:	4618      	mov	r0, r3
 8001992:	370c      	adds	r7, #12
 8001994:	46bd      	mov	sp, r7
 8001996:	f85d 7b04 	ldr.w	r7, [sp], #4
 800199a:	4770      	bx	lr
 800199c:	200006cc 	.word	0x200006cc

080019a0 <_isatty>:

int _isatty(int32_t file)
{
 80019a0:	b480      	push	{r7}
 80019a2:	b083      	sub	sp, #12
 80019a4:	af00      	add	r7, sp, #0
 80019a6:	6078      	str	r0, [r7, #4]
	errno = ENOSYS;
 80019a8:	4b04      	ldr	r3, [pc, #16]	; (80019bc <_isatty+0x1c>)
 80019aa:	2258      	movs	r2, #88	; 0x58
 80019ac:	601a      	str	r2, [r3, #0]
	return 0;
 80019ae:	2300      	movs	r3, #0
}
 80019b0:	4618      	mov	r0, r3
 80019b2:	370c      	adds	r7, #12
 80019b4:	46bd      	mov	sp, r7
 80019b6:	f85d 7b04 	ldr.w	r7, [sp], #4
 80019ba:	4770      	bx	lr
 80019bc:	200006cc 	.word	0x200006cc

080019c0 <_lseek>:

int _lseek(int32_t file, int32_t ptr, int32_t dir)
{
 80019c0:	b480      	push	{r7}
 80019c2:	b085      	sub	sp, #20
 80019c4:	af00      	add	r7, sp, #0
 80019c6:	60f8      	str	r0, [r7, #12]
 80019c8:	60b9      	str	r1, [r7, #8]
 80019ca:	607a      	str	r2, [r7, #4]
	errno = ENOSYS;
 80019cc:	4b05      	ldr	r3, [pc, #20]	; (80019e4 <_lseek+0x24>)
 80019ce:	2258      	movs	r2, #88	; 0x58
 80019d0:	601a      	str	r2, [r3, #0]
	return -1;
 80019d2:	f04f 33ff 	mov.w	r3, #4294967295
}
 80019d6:	4618      	mov	r0, r3
 80019d8:	3714      	adds	r7, #20
 80019da:	46bd      	mov	sp, r7
 80019dc:	f85d 7b04 	ldr.w	r7, [sp], #4
 80019e0:	4770      	bx	lr
 80019e2:	bf00      	nop
 80019e4:	200006cc 	.word	0x200006cc

080019e8 <_write>:
// pomocna deklarace, asi to ten kompiltor pochop e u je nkde mm vytvoen a nevytvo si je sm a kdy je pak najde v main, tak je pouv tam odsud, nebo nevm
int Usart2Send(char c);
int Usart2Recived(void);

int _write(int32_t file, uint8_t *ptr, int32_t len)
{ // prvni parametr, jestli se jedn stdin, stdout a podobn.. druh parametr je ukazatel na data kter se maj vyslat a tet parametr je dlka dat, kolik se jich m vyslat (respektive u write pijmout)
 80019e8:	b580      	push	{r7, lr}
 80019ea:	b086      	sub	sp, #24
 80019ec:	af00      	add	r7, sp, #0
 80019ee:	60f8      	str	r0, [r7, #12]
 80019f0:	60b9      	str	r1, [r7, #8]
 80019f2:	607a      	str	r2, [r7, #4]


	for(int i = 0;i<len;i++)
 80019f4:	2300      	movs	r3, #0
 80019f6:	617b      	str	r3, [r7, #20]
 80019f8:	e009      	b.n	8001a0e <_write+0x26>
	{
		Usart2Send(ptr[i]);
 80019fa:	697b      	ldr	r3, [r7, #20]
 80019fc:	68ba      	ldr	r2, [r7, #8]
 80019fe:	4413      	add	r3, r2
 8001a00:	781b      	ldrb	r3, [r3, #0]
 8001a02:	4618      	mov	r0, r3
 8001a04:	f7ff fd1a 	bl	800143c <Usart2Send>
	for(int i = 0;i<len;i++)
 8001a08:	697b      	ldr	r3, [r7, #20]
 8001a0a:	3301      	adds	r3, #1
 8001a0c:	617b      	str	r3, [r7, #20]
 8001a0e:	697a      	ldr	r2, [r7, #20]
 8001a10:	687b      	ldr	r3, [r7, #4]
 8001a12:	429a      	cmp	r2, r3
 8001a14:	dbf1      	blt.n	80019fa <_write+0x12>
	}

	errno = 0; // priznak ze neni chbya chyby
 8001a16:	4b04      	ldr	r3, [pc, #16]	; (8001a28 <_write+0x40>)
 8001a18:	2200      	movs	r2, #0
 8001a1a:	601a      	str	r2, [r3, #0]

	return len; // vratim kolik jsem jich odvisilal
 8001a1c:	687b      	ldr	r3, [r7, #4]

//	errno = ENOSYS; // ENOSYS je chybov pznak e funkce nen implementovna... priznak bez chyby je nula
//	return -1;

}
 8001a1e:	4618      	mov	r0, r3
 8001a20:	3718      	adds	r7, #24
 8001a22:	46bd      	mov	sp, r7
 8001a24:	bd80      	pop	{r7, pc}
 8001a26:	bf00      	nop
 8001a28:	200006cc 	.word	0x200006cc

08001a2c <_read>:

int _read(int32_t file, uint8_t *ptr, int32_t len)
{
 8001a2c:	b580      	push	{r7, lr}
 8001a2e:	b084      	sub	sp, #16
 8001a30:	af00      	add	r7, sp, #0
 8001a32:	60f8      	str	r0, [r7, #12]
 8001a34:	60b9      	str	r1, [r7, #8]
 8001a36:	607a      	str	r2, [r7, #4]

	*ptr = Usart2Recived();
 8001a38:	f7ff fd18 	bl	800146c <Usart2Recived>
 8001a3c:	4603      	mov	r3, r0
 8001a3e:	b2da      	uxtb	r2, r3
 8001a40:	68bb      	ldr	r3, [r7, #8]
 8001a42:	701a      	strb	r2, [r3, #0]

    errno = 0;
 8001a44:	4b03      	ldr	r3, [pc, #12]	; (8001a54 <_read+0x28>)
 8001a46:	2200      	movs	r2, #0
 8001a48:	601a      	str	r2, [r3, #0]

	return 1; // budu vracet pouze jeden znak, pokud budu chtit vic, zavolam funkci nekolikrat (protoe Usar2Read je blokujc, take aby zbyten neblokovala ne pijdou vechny znaky)
 8001a4a:	2301      	movs	r3, #1


//	errno = ENOSYS;
//	return -1;
}
 8001a4c:	4618      	mov	r0, r3
 8001a4e:	3710      	adds	r7, #16
 8001a50:	46bd      	mov	sp, r7
 8001a52:	bd80      	pop	{r7, pc}
 8001a54:	200006cc 	.word	0x200006cc

08001a58 <SystemInit>:
  *         configuration.
  * @param  None
  * @retval None
  */
void SystemInit(void)
{
 8001a58:	b480      	push	{r7}
 8001a5a:	af00      	add	r7, sp, #0
  /* FPU settings ------------------------------------------------------------*/
  #if (__FPU_PRESENT == 1) && (__FPU_USED == 1)
    SCB->CPACR |= ((3UL << 10*2)|(3UL << 11*2));  /* set CP10 and CP11 Full Access */
 8001a5c:	4a16      	ldr	r2, [pc, #88]	; (8001ab8 <SystemInit+0x60>)
 8001a5e:	4b16      	ldr	r3, [pc, #88]	; (8001ab8 <SystemInit+0x60>)
 8001a60:	f8d3 3088 	ldr.w	r3, [r3, #136]	; 0x88
 8001a64:	f443 0370 	orr.w	r3, r3, #15728640	; 0xf00000
 8001a68:	f8c2 3088 	str.w	r3, [r2, #136]	; 0x88
  #endif
  /* Reset the RCC clock configuration to the default reset state ------------*/
  /* Set HSION bit */
  RCC->CR |= (uint32_t)0x00000001;
 8001a6c:	4a13      	ldr	r2, [pc, #76]	; (8001abc <SystemInit+0x64>)
 8001a6e:	4b13      	ldr	r3, [pc, #76]	; (8001abc <SystemInit+0x64>)
 8001a70:	681b      	ldr	r3, [r3, #0]
 8001a72:	f043 0301 	orr.w	r3, r3, #1
 8001a76:	6013      	str	r3, [r2, #0]

  /* Reset CFGR register */
  RCC->CFGR = 0x00000000;
 8001a78:	4b10      	ldr	r3, [pc, #64]	; (8001abc <SystemInit+0x64>)
 8001a7a:	2200      	movs	r2, #0
 8001a7c:	609a      	str	r2, [r3, #8]

  /* Reset HSEON, CSSON and PLLON bits */
  RCC->CR &= (uint32_t)0xFEF6FFFF;
 8001a7e:	4a0f      	ldr	r2, [pc, #60]	; (8001abc <SystemInit+0x64>)
 8001a80:	4b0e      	ldr	r3, [pc, #56]	; (8001abc <SystemInit+0x64>)
 8001a82:	681b      	ldr	r3, [r3, #0]
 8001a84:	f023 7384 	bic.w	r3, r3, #17301504	; 0x1080000
 8001a88:	f423 3380 	bic.w	r3, r3, #65536	; 0x10000
 8001a8c:	6013      	str	r3, [r2, #0]

  /* Reset PLLCFGR register */
  RCC->PLLCFGR = 0x24003010;
 8001a8e:	4b0b      	ldr	r3, [pc, #44]	; (8001abc <SystemInit+0x64>)
 8001a90:	4a0b      	ldr	r2, [pc, #44]	; (8001ac0 <SystemInit+0x68>)
 8001a92:	605a      	str	r2, [r3, #4]

  /* Reset HSEBYP bit */
  RCC->CR &= (uint32_t)0xFFFBFFFF;
 8001a94:	4a09      	ldr	r2, [pc, #36]	; (8001abc <SystemInit+0x64>)
 8001a96:	4b09      	ldr	r3, [pc, #36]	; (8001abc <SystemInit+0x64>)
 8001a98:	681b      	ldr	r3, [r3, #0]
 8001a9a:	f423 2380 	bic.w	r3, r3, #262144	; 0x40000
 8001a9e:	6013      	str	r3, [r2, #0]

  /* Disable all interrupts */
  RCC->CIR = 0x00000000;
 8001aa0:	4b06      	ldr	r3, [pc, #24]	; (8001abc <SystemInit+0x64>)
 8001aa2:	2200      	movs	r2, #0
 8001aa4:	60da      	str	r2, [r3, #12]

  /* Configure the Vector Table location add offset address ------------------*/
#ifdef VECT_TAB_SRAM
  SCB->VTOR = SRAM_BASE | VECT_TAB_OFFSET; /* Vector Table Relocation in Internal SRAM */
#else
  SCB->VTOR = FLASH_BASE | VECT_TAB_OFFSET; /* Vector Table Relocation in Internal FLASH */
 8001aa6:	4b04      	ldr	r3, [pc, #16]	; (8001ab8 <SystemInit+0x60>)
 8001aa8:	f04f 6200 	mov.w	r2, #134217728	; 0x8000000
 8001aac:	609a      	str	r2, [r3, #8]
#endif
}
 8001aae:	bf00      	nop
 8001ab0:	46bd      	mov	sp, r7
 8001ab2:	f85d 7b04 	ldr.w	r7, [sp], #4
 8001ab6:	4770      	bx	lr
 8001ab8:	e000ed00 	.word	0xe000ed00
 8001abc:	40023800 	.word	0x40023800
 8001ac0:	24003010 	.word	0x24003010

08001ac4 <SystemCoreClockUpdate>:
  *     
  * @param  None
  * @retval None
  */
void SystemCoreClockUpdate(void)
{
 8001ac4:	b480      	push	{r7}
 8001ac6:	b087      	sub	sp, #28
 8001ac8:	af00      	add	r7, sp, #0
  uint32_t tmp = 0, pllvco = 0, pllp = 2, pllsource = 0, pllm = 2;
 8001aca:	2300      	movs	r3, #0
 8001acc:	613b      	str	r3, [r7, #16]
 8001ace:	2300      	movs	r3, #0
 8001ad0:	617b      	str	r3, [r7, #20]
 8001ad2:	2302      	movs	r3, #2
 8001ad4:	60fb      	str	r3, [r7, #12]
 8001ad6:	2300      	movs	r3, #0
 8001ad8:	60bb      	str	r3, [r7, #8]
 8001ada:	2302      	movs	r3, #2
 8001adc:	607b      	str	r3, [r7, #4]
  
  /* Get SYSCLK source -------------------------------------------------------*/
  tmp = RCC->CFGR & RCC_CFGR_SWS;
 8001ade:	4b31      	ldr	r3, [pc, #196]	; (8001ba4 <SystemCoreClockUpdate+0xe0>)
 8001ae0:	689b      	ldr	r3, [r3, #8]
 8001ae2:	f003 030c 	and.w	r3, r3, #12
 8001ae6:	613b      	str	r3, [r7, #16]

  switch (tmp)
 8001ae8:	693b      	ldr	r3, [r7, #16]
 8001aea:	2b04      	cmp	r3, #4
 8001aec:	d007      	beq.n	8001afe <SystemCoreClockUpdate+0x3a>
 8001aee:	2b08      	cmp	r3, #8
 8001af0:	d009      	beq.n	8001b06 <SystemCoreClockUpdate+0x42>
 8001af2:	2b00      	cmp	r3, #0
 8001af4:	d13d      	bne.n	8001b72 <SystemCoreClockUpdate+0xae>
  {
    case 0x00:  /* HSI used as system clock source */
      SystemCoreClock = HSI_VALUE;
 8001af6:	4b2c      	ldr	r3, [pc, #176]	; (8001ba8 <SystemCoreClockUpdate+0xe4>)
 8001af8:	4a2c      	ldr	r2, [pc, #176]	; (8001bac <SystemCoreClockUpdate+0xe8>)
 8001afa:	601a      	str	r2, [r3, #0]
      break;
 8001afc:	e03d      	b.n	8001b7a <SystemCoreClockUpdate+0xb6>
    case 0x04:  /* HSE used as system clock source */
      SystemCoreClock = HSE_VALUE;
 8001afe:	4b2a      	ldr	r3, [pc, #168]	; (8001ba8 <SystemCoreClockUpdate+0xe4>)
 8001b00:	4a2b      	ldr	r2, [pc, #172]	; (8001bb0 <SystemCoreClockUpdate+0xec>)
 8001b02:	601a      	str	r2, [r3, #0]
      break;
 8001b04:	e039      	b.n	8001b7a <SystemCoreClockUpdate+0xb6>
    case 0x08:  /* PLL used as system clock source */

      /* PLL_VCO = (HSE_VALUE or HSI_VALUE / PLL_M) * PLL_N
         SYSCLK = PLL_VCO / PLL_P
         */    
      pllsource = (RCC->PLLCFGR & RCC_PLLCFGR_PLLSRC) >> 22;
 8001b06:	4b27      	ldr	r3, [pc, #156]	; (8001ba4 <SystemCoreClockUpdate+0xe0>)
 8001b08:	685b      	ldr	r3, [r3, #4]
 8001b0a:	0d9b      	lsrs	r3, r3, #22
 8001b0c:	f003 0301 	and.w	r3, r3, #1
 8001b10:	60bb      	str	r3, [r7, #8]
      pllm = RCC->PLLCFGR & RCC_PLLCFGR_PLLM;
 8001b12:	4b24      	ldr	r3, [pc, #144]	; (8001ba4 <SystemCoreClockUpdate+0xe0>)
 8001b14:	685b      	ldr	r3, [r3, #4]
 8001b16:	f003 033f 	and.w	r3, r3, #63	; 0x3f
 8001b1a:	607b      	str	r3, [r7, #4]
      
      if (pllsource != 0)
 8001b1c:	68bb      	ldr	r3, [r7, #8]
 8001b1e:	2b00      	cmp	r3, #0
 8001b20:	d00c      	beq.n	8001b3c <SystemCoreClockUpdate+0x78>
      {
        /* HSE used as PLL clock source */
        pllvco = (HSE_VALUE / pllm) * ((RCC->PLLCFGR & RCC_PLLCFGR_PLLN) >> 6);
 8001b22:	4a23      	ldr	r2, [pc, #140]	; (8001bb0 <SystemCoreClockUpdate+0xec>)
 8001b24:	687b      	ldr	r3, [r7, #4]
 8001b26:	fbb2 f3f3 	udiv	r3, r2, r3
 8001b2a:	4a1e      	ldr	r2, [pc, #120]	; (8001ba4 <SystemCoreClockUpdate+0xe0>)
 8001b2c:	6852      	ldr	r2, [r2, #4]
 8001b2e:	0992      	lsrs	r2, r2, #6
 8001b30:	f3c2 0208 	ubfx	r2, r2, #0, #9
 8001b34:	fb02 f303 	mul.w	r3, r2, r3
 8001b38:	617b      	str	r3, [r7, #20]
 8001b3a:	e00b      	b.n	8001b54 <SystemCoreClockUpdate+0x90>
      }
      else
      {
        /* HSI used as PLL clock source */
        pllvco = (HSI_VALUE / pllm) * ((RCC->PLLCFGR & RCC_PLLCFGR_PLLN) >> 6);
 8001b3c:	4a1b      	ldr	r2, [pc, #108]	; (8001bac <SystemCoreClockUpdate+0xe8>)
 8001b3e:	687b      	ldr	r3, [r7, #4]
 8001b40:	fbb2 f3f3 	udiv	r3, r2, r3
 8001b44:	4a17      	ldr	r2, [pc, #92]	; (8001ba4 <SystemCoreClockUpdate+0xe0>)
 8001b46:	6852      	ldr	r2, [r2, #4]
 8001b48:	0992      	lsrs	r2, r2, #6
 8001b4a:	f3c2 0208 	ubfx	r2, r2, #0, #9
 8001b4e:	fb02 f303 	mul.w	r3, r2, r3
 8001b52:	617b      	str	r3, [r7, #20]
      }

      pllp = (((RCC->PLLCFGR & RCC_PLLCFGR_PLLP) >>16) + 1 ) *2;
 8001b54:	4b13      	ldr	r3, [pc, #76]	; (8001ba4 <SystemCoreClockUpdate+0xe0>)
 8001b56:	685b      	ldr	r3, [r3, #4]
 8001b58:	0c1b      	lsrs	r3, r3, #16
 8001b5a:	f003 0303 	and.w	r3, r3, #3
 8001b5e:	3301      	adds	r3, #1
 8001b60:	005b      	lsls	r3, r3, #1
 8001b62:	60fb      	str	r3, [r7, #12]
      SystemCoreClock = pllvco/pllp;
 8001b64:	697a      	ldr	r2, [r7, #20]
 8001b66:	68fb      	ldr	r3, [r7, #12]
 8001b68:	fbb2 f3f3 	udiv	r3, r2, r3
 8001b6c:	4a0e      	ldr	r2, [pc, #56]	; (8001ba8 <SystemCoreClockUpdate+0xe4>)
 8001b6e:	6013      	str	r3, [r2, #0]
      break;
 8001b70:	e003      	b.n	8001b7a <SystemCoreClockUpdate+0xb6>
    default:
      SystemCoreClock = HSI_VALUE;
 8001b72:	4b0d      	ldr	r3, [pc, #52]	; (8001ba8 <SystemCoreClockUpdate+0xe4>)
 8001b74:	4a0d      	ldr	r2, [pc, #52]	; (8001bac <SystemCoreClockUpdate+0xe8>)
 8001b76:	601a      	str	r2, [r3, #0]
      break;
 8001b78:	bf00      	nop
  }
  /* Compute HCLK frequency --------------------------------------------------*/
  /* Get HCLK prescaler */
  tmp = AHBPrescTable[((RCC->CFGR & RCC_CFGR_HPRE) >> 4)];
 8001b7a:	4b0a      	ldr	r3, [pc, #40]	; (8001ba4 <SystemCoreClockUpdate+0xe0>)
 8001b7c:	689b      	ldr	r3, [r3, #8]
 8001b7e:	091b      	lsrs	r3, r3, #4
 8001b80:	f003 030f 	and.w	r3, r3, #15
 8001b84:	4a0b      	ldr	r2, [pc, #44]	; (8001bb4 <SystemCoreClockUpdate+0xf0>)
 8001b86:	5cd3      	ldrb	r3, [r2, r3]
 8001b88:	613b      	str	r3, [r7, #16]
  /* HCLK frequency */
  SystemCoreClock >>= tmp;
 8001b8a:	4b07      	ldr	r3, [pc, #28]	; (8001ba8 <SystemCoreClockUpdate+0xe4>)
 8001b8c:	681a      	ldr	r2, [r3, #0]
 8001b8e:	693b      	ldr	r3, [r7, #16]
 8001b90:	fa22 f303 	lsr.w	r3, r2, r3
 8001b94:	4a04      	ldr	r2, [pc, #16]	; (8001ba8 <SystemCoreClockUpdate+0xe4>)
 8001b96:	6013      	str	r3, [r2, #0]
}
 8001b98:	bf00      	nop
 8001b9a:	371c      	adds	r7, #28
 8001b9c:	46bd      	mov	sp, r7
 8001b9e:	f85d 7b04 	ldr.w	r7, [sp], #4
 8001ba2:	4770      	bx	lr
 8001ba4:	40023800 	.word	0x40023800
 8001ba8:	20000000 	.word	0x20000000
 8001bac:	00f42400 	.word	0x00f42400
 8001bb0:	017d7840 	.word	0x017d7840
 8001bb4:	0800592c 	.word	0x0800592c

08001bb8 <__libc_init_array>:
 8001bb8:	b570      	push	{r4, r5, r6, lr}
 8001bba:	4e0d      	ldr	r6, [pc, #52]	; (8001bf0 <__libc_init_array+0x38>)
 8001bbc:	4c0d      	ldr	r4, [pc, #52]	; (8001bf4 <__libc_init_array+0x3c>)
 8001bbe:	1ba4      	subs	r4, r4, r6
 8001bc0:	10a4      	asrs	r4, r4, #2
 8001bc2:	2500      	movs	r5, #0
 8001bc4:	42a5      	cmp	r5, r4
 8001bc6:	d109      	bne.n	8001bdc <__libc_init_array+0x24>
 8001bc8:	4e0b      	ldr	r6, [pc, #44]	; (8001bf8 <__libc_init_array+0x40>)
 8001bca:	4c0c      	ldr	r4, [pc, #48]	; (8001bfc <__libc_init_array+0x44>)
 8001bcc:	f003 fe94 	bl	80058f8 <_init>
 8001bd0:	1ba4      	subs	r4, r4, r6
 8001bd2:	10a4      	asrs	r4, r4, #2
 8001bd4:	2500      	movs	r5, #0
 8001bd6:	42a5      	cmp	r5, r4
 8001bd8:	d105      	bne.n	8001be6 <__libc_init_array+0x2e>
 8001bda:	bd70      	pop	{r4, r5, r6, pc}
 8001bdc:	f856 3025 	ldr.w	r3, [r6, r5, lsl #2]
 8001be0:	4798      	blx	r3
 8001be2:	3501      	adds	r5, #1
 8001be4:	e7ee      	b.n	8001bc4 <__libc_init_array+0xc>
 8001be6:	f856 3025 	ldr.w	r3, [r6, r5, lsl #2]
 8001bea:	4798      	blx	r3
 8001bec:	3501      	adds	r5, #1
 8001bee:	e7f2      	b.n	8001bd6 <__libc_init_array+0x1e>
 8001bf0:	08005c18 	.word	0x08005c18
 8001bf4:	08005c18 	.word	0x08005c18
 8001bf8:	08005c18 	.word	0x08005c18
 8001bfc:	08005c1c 	.word	0x08005c1c

08001c00 <printf>:
 8001c00:	b40f      	push	{r0, r1, r2, r3}
 8001c02:	4b0a      	ldr	r3, [pc, #40]	; (8001c2c <printf+0x2c>)
 8001c04:	b513      	push	{r0, r1, r4, lr}
 8001c06:	681c      	ldr	r4, [r3, #0]
 8001c08:	b124      	cbz	r4, 8001c14 <printf+0x14>
 8001c0a:	69a3      	ldr	r3, [r4, #24]
 8001c0c:	b913      	cbnz	r3, 8001c14 <printf+0x14>
 8001c0e:	4620      	mov	r0, r4
 8001c10:	f002 f9ae 	bl	8003f70 <__sinit>
 8001c14:	ab05      	add	r3, sp, #20
 8001c16:	9a04      	ldr	r2, [sp, #16]
 8001c18:	68a1      	ldr	r1, [r4, #8]
 8001c1a:	9301      	str	r3, [sp, #4]
 8001c1c:	4620      	mov	r0, r4
 8001c1e:	f000 f93b 	bl	8001e98 <_vfprintf_r>
 8001c22:	b002      	add	sp, #8
 8001c24:	e8bd 4010 	ldmia.w	sp!, {r4, lr}
 8001c28:	b004      	add	sp, #16
 8001c2a:	4770      	bx	lr
 8001c2c:	20000004 	.word	0x20000004

08001c30 <_puts_r>:
 8001c30:	b530      	push	{r4, r5, lr}
 8001c32:	4605      	mov	r5, r0
 8001c34:	b089      	sub	sp, #36	; 0x24
 8001c36:	4608      	mov	r0, r1
 8001c38:	460c      	mov	r4, r1
 8001c3a:	f7fe fad1 	bl	80001e0 <strlen>
 8001c3e:	4b28      	ldr	r3, [pc, #160]	; (8001ce0 <_puts_r+0xb0>)
 8001c40:	9306      	str	r3, [sp, #24]
 8001c42:	2301      	movs	r3, #1
 8001c44:	9005      	str	r0, [sp, #20]
 8001c46:	9307      	str	r3, [sp, #28]
 8001c48:	4418      	add	r0, r3
 8001c4a:	ab04      	add	r3, sp, #16
 8001c4c:	9301      	str	r3, [sp, #4]
 8001c4e:	2302      	movs	r3, #2
 8001c50:	9404      	str	r4, [sp, #16]
 8001c52:	9003      	str	r0, [sp, #12]
 8001c54:	9302      	str	r3, [sp, #8]
 8001c56:	b125      	cbz	r5, 8001c62 <_puts_r+0x32>
 8001c58:	69ab      	ldr	r3, [r5, #24]
 8001c5a:	b913      	cbnz	r3, 8001c62 <_puts_r+0x32>
 8001c5c:	4628      	mov	r0, r5
 8001c5e:	f002 f987 	bl	8003f70 <__sinit>
 8001c62:	69ab      	ldr	r3, [r5, #24]
 8001c64:	68ac      	ldr	r4, [r5, #8]
 8001c66:	b913      	cbnz	r3, 8001c6e <_puts_r+0x3e>
 8001c68:	4628      	mov	r0, r5
 8001c6a:	f002 f981 	bl	8003f70 <__sinit>
 8001c6e:	4b1d      	ldr	r3, [pc, #116]	; (8001ce4 <_puts_r+0xb4>)
 8001c70:	429c      	cmp	r4, r3
 8001c72:	d12a      	bne.n	8001cca <_puts_r+0x9a>
 8001c74:	686c      	ldr	r4, [r5, #4]
 8001c76:	6e63      	ldr	r3, [r4, #100]	; 0x64
 8001c78:	07db      	lsls	r3, r3, #31
 8001c7a:	d405      	bmi.n	8001c88 <_puts_r+0x58>
 8001c7c:	89a3      	ldrh	r3, [r4, #12]
 8001c7e:	0598      	lsls	r0, r3, #22
 8001c80:	d402      	bmi.n	8001c88 <_puts_r+0x58>
 8001c82:	6da0      	ldr	r0, [r4, #88]	; 0x58
 8001c84:	f002 fc82 	bl	800458c <__retarget_lock_acquire_recursive>
 8001c88:	f9b4 300c 	ldrsh.w	r3, [r4, #12]
 8001c8c:	0499      	lsls	r1, r3, #18
 8001c8e:	d406      	bmi.n	8001c9e <_puts_r+0x6e>
 8001c90:	f443 5300 	orr.w	r3, r3, #8192	; 0x2000
 8001c94:	81a3      	strh	r3, [r4, #12]
 8001c96:	6e63      	ldr	r3, [r4, #100]	; 0x64
 8001c98:	f423 5300 	bic.w	r3, r3, #8192	; 0x2000
 8001c9c:	6663      	str	r3, [r4, #100]	; 0x64
 8001c9e:	4628      	mov	r0, r5
 8001ca0:	aa01      	add	r2, sp, #4
 8001ca2:	4621      	mov	r1, r4
 8001ca4:	f002 faf6 	bl	8004294 <__sfvwrite_r>
 8001ca8:	6e63      	ldr	r3, [r4, #100]	; 0x64
 8001caa:	2800      	cmp	r0, #0
 8001cac:	bf14      	ite	ne
 8001cae:	f04f 35ff 	movne.w	r5, #4294967295
 8001cb2:	250a      	moveq	r5, #10
 8001cb4:	07da      	lsls	r2, r3, #31
 8001cb6:	d405      	bmi.n	8001cc4 <_puts_r+0x94>
 8001cb8:	89a3      	ldrh	r3, [r4, #12]
 8001cba:	059b      	lsls	r3, r3, #22
 8001cbc:	d402      	bmi.n	8001cc4 <_puts_r+0x94>
 8001cbe:	6da0      	ldr	r0, [r4, #88]	; 0x58
 8001cc0:	f002 fc65 	bl	800458e <__retarget_lock_release_recursive>
 8001cc4:	4628      	mov	r0, r5
 8001cc6:	b009      	add	sp, #36	; 0x24
 8001cc8:	bd30      	pop	{r4, r5, pc}
 8001cca:	4b07      	ldr	r3, [pc, #28]	; (8001ce8 <_puts_r+0xb8>)
 8001ccc:	429c      	cmp	r4, r3
 8001cce:	d101      	bne.n	8001cd4 <_puts_r+0xa4>
 8001cd0:	68ac      	ldr	r4, [r5, #8]
 8001cd2:	e7d0      	b.n	8001c76 <_puts_r+0x46>
 8001cd4:	4b05      	ldr	r3, [pc, #20]	; (8001cec <_puts_r+0xbc>)
 8001cd6:	429c      	cmp	r4, r3
 8001cd8:	bf08      	it	eq
 8001cda:	68ec      	ldreq	r4, [r5, #12]
 8001cdc:	e7cb      	b.n	8001c76 <_puts_r+0x46>
 8001cde:	bf00      	nop
 8001ce0:	08005940 	.word	0x08005940
 8001ce4:	080059c4 	.word	0x080059c4
 8001ce8:	080059e4 	.word	0x080059e4
 8001cec:	080059a4 	.word	0x080059a4

08001cf0 <puts>:
 8001cf0:	4b02      	ldr	r3, [pc, #8]	; (8001cfc <puts+0xc>)
 8001cf2:	4601      	mov	r1, r0
 8001cf4:	6818      	ldr	r0, [r3, #0]
 8001cf6:	f7ff bf9b 	b.w	8001c30 <_puts_r>
 8001cfa:	bf00      	nop
 8001cfc:	20000004 	.word	0x20000004

08001d00 <setvbuf>:
 8001d00:	e92d 43f7 	stmdb	sp!, {r0, r1, r2, r4, r5, r6, r7, r8, r9, lr}
 8001d04:	461d      	mov	r5, r3
 8001d06:	4b60      	ldr	r3, [pc, #384]	; (8001e88 <setvbuf+0x188>)
 8001d08:	681e      	ldr	r6, [r3, #0]
 8001d0a:	4604      	mov	r4, r0
 8001d0c:	460f      	mov	r7, r1
 8001d0e:	4690      	mov	r8, r2
 8001d10:	b126      	cbz	r6, 8001d1c <setvbuf+0x1c>
 8001d12:	69b3      	ldr	r3, [r6, #24]
 8001d14:	b913      	cbnz	r3, 8001d1c <setvbuf+0x1c>
 8001d16:	4630      	mov	r0, r6
 8001d18:	f002 f92a 	bl	8003f70 <__sinit>
 8001d1c:	4b5b      	ldr	r3, [pc, #364]	; (8001e8c <setvbuf+0x18c>)
 8001d1e:	429c      	cmp	r4, r3
 8001d20:	d166      	bne.n	8001df0 <setvbuf+0xf0>
 8001d22:	6874      	ldr	r4, [r6, #4]
 8001d24:	f1b8 0f02 	cmp.w	r8, #2
 8001d28:	d006      	beq.n	8001d38 <setvbuf+0x38>
 8001d2a:	f1b8 0f01 	cmp.w	r8, #1
 8001d2e:	f200 80a7 	bhi.w	8001e80 <setvbuf+0x180>
 8001d32:	2d00      	cmp	r5, #0
 8001d34:	f2c0 80a4 	blt.w	8001e80 <setvbuf+0x180>
 8001d38:	6e63      	ldr	r3, [r4, #100]	; 0x64
 8001d3a:	07da      	lsls	r2, r3, #31
 8001d3c:	d405      	bmi.n	8001d4a <setvbuf+0x4a>
 8001d3e:	89a3      	ldrh	r3, [r4, #12]
 8001d40:	059b      	lsls	r3, r3, #22
 8001d42:	d402      	bmi.n	8001d4a <setvbuf+0x4a>
 8001d44:	6da0      	ldr	r0, [r4, #88]	; 0x58
 8001d46:	f002 fc21 	bl	800458c <__retarget_lock_acquire_recursive>
 8001d4a:	4621      	mov	r1, r4
 8001d4c:	4630      	mov	r0, r6
 8001d4e:	f002 f87b 	bl	8003e48 <_fflush_r>
 8001d52:	6b61      	ldr	r1, [r4, #52]	; 0x34
 8001d54:	b141      	cbz	r1, 8001d68 <setvbuf+0x68>
 8001d56:	f104 0344 	add.w	r3, r4, #68	; 0x44
 8001d5a:	4299      	cmp	r1, r3
 8001d5c:	d002      	beq.n	8001d64 <setvbuf+0x64>
 8001d5e:	4630      	mov	r0, r6
 8001d60:	f002 f9dc 	bl	800411c <_free_r>
 8001d64:	2300      	movs	r3, #0
 8001d66:	6363      	str	r3, [r4, #52]	; 0x34
 8001d68:	2300      	movs	r3, #0
 8001d6a:	61a3      	str	r3, [r4, #24]
 8001d6c:	6063      	str	r3, [r4, #4]
 8001d6e:	89a3      	ldrh	r3, [r4, #12]
 8001d70:	0618      	lsls	r0, r3, #24
 8001d72:	d503      	bpl.n	8001d7c <setvbuf+0x7c>
 8001d74:	6921      	ldr	r1, [r4, #16]
 8001d76:	4630      	mov	r0, r6
 8001d78:	f002 f9d0 	bl	800411c <_free_r>
 8001d7c:	89a3      	ldrh	r3, [r4, #12]
 8001d7e:	f423 634a 	bic.w	r3, r3, #3232	; 0xca0
 8001d82:	f023 0303 	bic.w	r3, r3, #3
 8001d86:	f1b8 0f02 	cmp.w	r8, #2
 8001d8a:	81a3      	strh	r3, [r4, #12]
 8001d8c:	d072      	beq.n	8001e74 <setvbuf+0x174>
 8001d8e:	ab01      	add	r3, sp, #4
 8001d90:	466a      	mov	r2, sp
 8001d92:	4621      	mov	r1, r4
 8001d94:	4630      	mov	r0, r6
 8001d96:	f002 fbfb 	bl	8004590 <__swhatbuf_r>
 8001d9a:	89a3      	ldrh	r3, [r4, #12]
 8001d9c:	4318      	orrs	r0, r3
 8001d9e:	81a0      	strh	r0, [r4, #12]
 8001da0:	2d00      	cmp	r5, #0
 8001da2:	d12f      	bne.n	8001e04 <setvbuf+0x104>
 8001da4:	9d00      	ldr	r5, [sp, #0]
 8001da6:	4628      	mov	r0, r5
 8001da8:	f002 fc5e 	bl	8004668 <malloc>
 8001dac:	4607      	mov	r7, r0
 8001dae:	2800      	cmp	r0, #0
 8001db0:	d162      	bne.n	8001e78 <setvbuf+0x178>
 8001db2:	f8dd 9000 	ldr.w	r9, [sp]
 8001db6:	45a9      	cmp	r9, r5
 8001db8:	d150      	bne.n	8001e5c <setvbuf+0x15c>
 8001dba:	f04f 35ff 	mov.w	r5, #4294967295
 8001dbe:	2200      	movs	r2, #0
 8001dc0:	60a2      	str	r2, [r4, #8]
 8001dc2:	f104 0247 	add.w	r2, r4, #71	; 0x47
 8001dc6:	6022      	str	r2, [r4, #0]
 8001dc8:	6122      	str	r2, [r4, #16]
 8001dca:	2201      	movs	r2, #1
 8001dcc:	f9b4 300c 	ldrsh.w	r3, [r4, #12]
 8001dd0:	6162      	str	r2, [r4, #20]
 8001dd2:	6e62      	ldr	r2, [r4, #100]	; 0x64
 8001dd4:	f043 0302 	orr.w	r3, r3, #2
 8001dd8:	07d1      	lsls	r1, r2, #31
 8001dda:	81a3      	strh	r3, [r4, #12]
 8001ddc:	d404      	bmi.n	8001de8 <setvbuf+0xe8>
 8001dde:	059b      	lsls	r3, r3, #22
 8001de0:	d402      	bmi.n	8001de8 <setvbuf+0xe8>
 8001de2:	6da0      	ldr	r0, [r4, #88]	; 0x58
 8001de4:	f002 fbd3 	bl	800458e <__retarget_lock_release_recursive>
 8001de8:	4628      	mov	r0, r5
 8001dea:	b003      	add	sp, #12
 8001dec:	e8bd 83f0 	ldmia.w	sp!, {r4, r5, r6, r7, r8, r9, pc}
 8001df0:	4b27      	ldr	r3, [pc, #156]	; (8001e90 <setvbuf+0x190>)
 8001df2:	429c      	cmp	r4, r3
 8001df4:	d101      	bne.n	8001dfa <setvbuf+0xfa>
 8001df6:	68b4      	ldr	r4, [r6, #8]
 8001df8:	e794      	b.n	8001d24 <setvbuf+0x24>
 8001dfa:	4b26      	ldr	r3, [pc, #152]	; (8001e94 <setvbuf+0x194>)
 8001dfc:	429c      	cmp	r4, r3
 8001dfe:	bf08      	it	eq
 8001e00:	68f4      	ldreq	r4, [r6, #12]
 8001e02:	e78f      	b.n	8001d24 <setvbuf+0x24>
 8001e04:	2f00      	cmp	r7, #0
 8001e06:	d0ce      	beq.n	8001da6 <setvbuf+0xa6>
 8001e08:	69b3      	ldr	r3, [r6, #24]
 8001e0a:	b913      	cbnz	r3, 8001e12 <setvbuf+0x112>
 8001e0c:	4630      	mov	r0, r6
 8001e0e:	f002 f8af 	bl	8003f70 <__sinit>
 8001e12:	9b00      	ldr	r3, [sp, #0]
 8001e14:	6127      	str	r7, [r4, #16]
 8001e16:	429d      	cmp	r5, r3
 8001e18:	bf18      	it	ne
 8001e1a:	89a3      	ldrhne	r3, [r4, #12]
 8001e1c:	6027      	str	r7, [r4, #0]
 8001e1e:	bf1c      	itt	ne
 8001e20:	f443 6300 	orrne.w	r3, r3, #2048	; 0x800
 8001e24:	81a3      	strhne	r3, [r4, #12]
 8001e26:	f1b8 0f01 	cmp.w	r8, #1
 8001e2a:	bf08      	it	eq
 8001e2c:	89a3      	ldrheq	r3, [r4, #12]
 8001e2e:	6165      	str	r5, [r4, #20]
 8001e30:	bf04      	itt	eq
 8001e32:	f043 0301 	orreq.w	r3, r3, #1
 8001e36:	81a3      	strheq	r3, [r4, #12]
 8001e38:	89a3      	ldrh	r3, [r4, #12]
 8001e3a:	f013 0208 	ands.w	r2, r3, #8
 8001e3e:	d01d      	beq.n	8001e7c <setvbuf+0x17c>
 8001e40:	07da      	lsls	r2, r3, #31
 8001e42:	bf41      	itttt	mi
 8001e44:	2200      	movmi	r2, #0
 8001e46:	426d      	negmi	r5, r5
 8001e48:	60a2      	strmi	r2, [r4, #8]
 8001e4a:	61a5      	strmi	r5, [r4, #24]
 8001e4c:	bf58      	it	pl
 8001e4e:	60a5      	strpl	r5, [r4, #8]
 8001e50:	6e65      	ldr	r5, [r4, #100]	; 0x64
 8001e52:	f015 0501 	ands.w	r5, r5, #1
 8001e56:	d0c2      	beq.n	8001dde <setvbuf+0xde>
 8001e58:	2500      	movs	r5, #0
 8001e5a:	e7c5      	b.n	8001de8 <setvbuf+0xe8>
 8001e5c:	4648      	mov	r0, r9
 8001e5e:	f002 fc03 	bl	8004668 <malloc>
 8001e62:	4607      	mov	r7, r0
 8001e64:	2800      	cmp	r0, #0
 8001e66:	d0a8      	beq.n	8001dba <setvbuf+0xba>
 8001e68:	89a3      	ldrh	r3, [r4, #12]
 8001e6a:	f043 0380 	orr.w	r3, r3, #128	; 0x80
 8001e6e:	81a3      	strh	r3, [r4, #12]
 8001e70:	464d      	mov	r5, r9
 8001e72:	e7c9      	b.n	8001e08 <setvbuf+0x108>
 8001e74:	2500      	movs	r5, #0
 8001e76:	e7a2      	b.n	8001dbe <setvbuf+0xbe>
 8001e78:	46a9      	mov	r9, r5
 8001e7a:	e7f5      	b.n	8001e68 <setvbuf+0x168>
 8001e7c:	60a2      	str	r2, [r4, #8]
 8001e7e:	e7e7      	b.n	8001e50 <setvbuf+0x150>
 8001e80:	f04f 35ff 	mov.w	r5, #4294967295
 8001e84:	e7b0      	b.n	8001de8 <setvbuf+0xe8>
 8001e86:	bf00      	nop
 8001e88:	20000004 	.word	0x20000004
 8001e8c:	080059c4 	.word	0x080059c4
 8001e90:	080059e4 	.word	0x080059e4
 8001e94:	080059a4 	.word	0x080059a4

08001e98 <_vfprintf_r>:
 8001e98:	e92d 4ff0 	stmdb	sp!, {r4, r5, r6, r7, r8, r9, sl, fp, lr}
 8001e9c:	b0bd      	sub	sp, #244	; 0xf4
 8001e9e:	4688      	mov	r8, r1
 8001ea0:	4615      	mov	r5, r2
 8001ea2:	461c      	mov	r4, r3
 8001ea4:	461f      	mov	r7, r3
 8001ea6:	4683      	mov	fp, r0
 8001ea8:	f002 fb60 	bl	800456c <_localeconv_r>
 8001eac:	6803      	ldr	r3, [r0, #0]
 8001eae:	930d      	str	r3, [sp, #52]	; 0x34
 8001eb0:	4618      	mov	r0, r3
 8001eb2:	f7fe f995 	bl	80001e0 <strlen>
 8001eb6:	9009      	str	r0, [sp, #36]	; 0x24
 8001eb8:	f1bb 0f00 	cmp.w	fp, #0
 8001ebc:	d005      	beq.n	8001eca <_vfprintf_r+0x32>
 8001ebe:	f8db 3018 	ldr.w	r3, [fp, #24]
 8001ec2:	b913      	cbnz	r3, 8001eca <_vfprintf_r+0x32>
 8001ec4:	4658      	mov	r0, fp
 8001ec6:	f002 f853 	bl	8003f70 <__sinit>
 8001eca:	4b99      	ldr	r3, [pc, #612]	; (8002130 <_vfprintf_r+0x298>)
 8001ecc:	4598      	cmp	r8, r3
 8001ece:	d137      	bne.n	8001f40 <_vfprintf_r+0xa8>
 8001ed0:	f8db 8004 	ldr.w	r8, [fp, #4]
 8001ed4:	f8d8 3064 	ldr.w	r3, [r8, #100]	; 0x64
 8001ed8:	07d8      	lsls	r0, r3, #31
 8001eda:	d407      	bmi.n	8001eec <_vfprintf_r+0x54>
 8001edc:	f8b8 300c 	ldrh.w	r3, [r8, #12]
 8001ee0:	0599      	lsls	r1, r3, #22
 8001ee2:	d403      	bmi.n	8001eec <_vfprintf_r+0x54>
 8001ee4:	f8d8 0058 	ldr.w	r0, [r8, #88]	; 0x58
 8001ee8:	f002 fb50 	bl	800458c <__retarget_lock_acquire_recursive>
 8001eec:	f9b8 300c 	ldrsh.w	r3, [r8, #12]
 8001ef0:	049a      	lsls	r2, r3, #18
 8001ef2:	d409      	bmi.n	8001f08 <_vfprintf_r+0x70>
 8001ef4:	f443 5300 	orr.w	r3, r3, #8192	; 0x2000
 8001ef8:	f8a8 300c 	strh.w	r3, [r8, #12]
 8001efc:	f8d8 3064 	ldr.w	r3, [r8, #100]	; 0x64
 8001f00:	f423 5300 	bic.w	r3, r3, #8192	; 0x2000
 8001f04:	f8c8 3064 	str.w	r3, [r8, #100]	; 0x64
 8001f08:	f8b8 300c 	ldrh.w	r3, [r8, #12]
 8001f0c:	071e      	lsls	r6, r3, #28
 8001f0e:	d502      	bpl.n	8001f16 <_vfprintf_r+0x7e>
 8001f10:	f8d8 3010 	ldr.w	r3, [r8, #16]
 8001f14:	bb03      	cbnz	r3, 8001f58 <_vfprintf_r+0xc0>
 8001f16:	4641      	mov	r1, r8
 8001f18:	4658      	mov	r0, fp
 8001f1a:	f001 f839 	bl	8002f90 <__swsetup_r>
 8001f1e:	b1d8      	cbz	r0, 8001f58 <_vfprintf_r+0xc0>
 8001f20:	f8d8 3064 	ldr.w	r3, [r8, #100]	; 0x64
 8001f24:	07dd      	lsls	r5, r3, #31
 8001f26:	d407      	bmi.n	8001f38 <_vfprintf_r+0xa0>
 8001f28:	f8b8 300c 	ldrh.w	r3, [r8, #12]
 8001f2c:	059c      	lsls	r4, r3, #22
 8001f2e:	d403      	bmi.n	8001f38 <_vfprintf_r+0xa0>
 8001f30:	f8d8 0058 	ldr.w	r0, [r8, #88]	; 0x58
 8001f34:	f002 fb2b 	bl	800458e <__retarget_lock_release_recursive>
 8001f38:	f04f 33ff 	mov.w	r3, #4294967295
 8001f3c:	930a      	str	r3, [sp, #40]	; 0x28
 8001f3e:	e026      	b.n	8001f8e <_vfprintf_r+0xf6>
 8001f40:	4b7c      	ldr	r3, [pc, #496]	; (8002134 <_vfprintf_r+0x29c>)
 8001f42:	4598      	cmp	r8, r3
 8001f44:	d102      	bne.n	8001f4c <_vfprintf_r+0xb4>
 8001f46:	f8db 8008 	ldr.w	r8, [fp, #8]
 8001f4a:	e7c3      	b.n	8001ed4 <_vfprintf_r+0x3c>
 8001f4c:	4b7a      	ldr	r3, [pc, #488]	; (8002138 <_vfprintf_r+0x2a0>)
 8001f4e:	4598      	cmp	r8, r3
 8001f50:	bf08      	it	eq
 8001f52:	f8db 800c 	ldreq.w	r8, [fp, #12]
 8001f56:	e7bd      	b.n	8001ed4 <_vfprintf_r+0x3c>
 8001f58:	f8b8 300c 	ldrh.w	r3, [r8, #12]
 8001f5c:	f003 021a 	and.w	r2, r3, #26
 8001f60:	2a0a      	cmp	r2, #10
 8001f62:	d118      	bne.n	8001f96 <_vfprintf_r+0xfe>
 8001f64:	f9b8 200e 	ldrsh.w	r2, [r8, #14]
 8001f68:	2a00      	cmp	r2, #0
 8001f6a:	db14      	blt.n	8001f96 <_vfprintf_r+0xfe>
 8001f6c:	f8d8 2064 	ldr.w	r2, [r8, #100]	; 0x64
 8001f70:	07d0      	lsls	r0, r2, #31
 8001f72:	d405      	bmi.n	8001f80 <_vfprintf_r+0xe8>
 8001f74:	0599      	lsls	r1, r3, #22
 8001f76:	d403      	bmi.n	8001f80 <_vfprintf_r+0xe8>
 8001f78:	f8d8 0058 	ldr.w	r0, [r8, #88]	; 0x58
 8001f7c:	f002 fb07 	bl	800458e <__retarget_lock_release_recursive>
 8001f80:	4623      	mov	r3, r4
 8001f82:	462a      	mov	r2, r5
 8001f84:	4641      	mov	r1, r8
 8001f86:	4658      	mov	r0, fp
 8001f88:	f000 ffc2 	bl	8002f10 <__sbprintf>
 8001f8c:	900a      	str	r0, [sp, #40]	; 0x28
 8001f8e:	980a      	ldr	r0, [sp, #40]	; 0x28
 8001f90:	b03d      	add	sp, #244	; 0xf4
 8001f92:	e8bd 8ff0 	ldmia.w	sp!, {r4, r5, r6, r7, r8, r9, sl, fp, pc}
 8001f96:	ed9f 7b64 	vldr	d7, [pc, #400]	; 8002128 <_vfprintf_r+0x290>
 8001f9a:	ed8d 7b06 	vstr	d7, [sp, #24]
 8001f9e:	2300      	movs	r3, #0
 8001fa0:	ac2c      	add	r4, sp, #176	; 0xb0
 8001fa2:	941f      	str	r4, [sp, #124]	; 0x7c
 8001fa4:	9321      	str	r3, [sp, #132]	; 0x84
 8001fa6:	9320      	str	r3, [sp, #128]	; 0x80
 8001fa8:	9505      	str	r5, [sp, #20]
 8001faa:	9303      	str	r3, [sp, #12]
 8001fac:	9311      	str	r3, [sp, #68]	; 0x44
 8001fae:	9310      	str	r3, [sp, #64]	; 0x40
 8001fb0:	930a      	str	r3, [sp, #40]	; 0x28
 8001fb2:	9d05      	ldr	r5, [sp, #20]
 8001fb4:	462b      	mov	r3, r5
 8001fb6:	f813 2b01 	ldrb.w	r2, [r3], #1
 8001fba:	b112      	cbz	r2, 8001fc2 <_vfprintf_r+0x12a>
 8001fbc:	2a25      	cmp	r2, #37	; 0x25
 8001fbe:	f040 8083 	bne.w	80020c8 <_vfprintf_r+0x230>
 8001fc2:	9b05      	ldr	r3, [sp, #20]
 8001fc4:	1aee      	subs	r6, r5, r3
 8001fc6:	d00d      	beq.n	8001fe4 <_vfprintf_r+0x14c>
 8001fc8:	e884 0048 	stmia.w	r4, {r3, r6}
 8001fcc:	9b21      	ldr	r3, [sp, #132]	; 0x84
 8001fce:	4433      	add	r3, r6
 8001fd0:	9321      	str	r3, [sp, #132]	; 0x84
 8001fd2:	9b20      	ldr	r3, [sp, #128]	; 0x80
 8001fd4:	3301      	adds	r3, #1
 8001fd6:	2b07      	cmp	r3, #7
 8001fd8:	9320      	str	r3, [sp, #128]	; 0x80
 8001fda:	dc77      	bgt.n	80020cc <_vfprintf_r+0x234>
 8001fdc:	3408      	adds	r4, #8
 8001fde:	9b0a      	ldr	r3, [sp, #40]	; 0x28
 8001fe0:	4433      	add	r3, r6
 8001fe2:	930a      	str	r3, [sp, #40]	; 0x28
 8001fe4:	782b      	ldrb	r3, [r5, #0]
 8001fe6:	2b00      	cmp	r3, #0
 8001fe8:	f000 8739 	beq.w	8002e5e <_vfprintf_r+0xfc6>
 8001fec:	2300      	movs	r3, #0
 8001fee:	1c69      	adds	r1, r5, #1
 8001ff0:	f88d 305f 	strb.w	r3, [sp, #95]	; 0x5f
 8001ff4:	461a      	mov	r2, r3
 8001ff6:	f04f 3aff 	mov.w	sl, #4294967295
 8001ffa:	930b      	str	r3, [sp, #44]	; 0x2c
 8001ffc:	461d      	mov	r5, r3
 8001ffe:	200a      	movs	r0, #10
 8002000:	1c4e      	adds	r6, r1, #1
 8002002:	7809      	ldrb	r1, [r1, #0]
 8002004:	9605      	str	r6, [sp, #20]
 8002006:	9102      	str	r1, [sp, #8]
 8002008:	9902      	ldr	r1, [sp, #8]
 800200a:	3920      	subs	r1, #32
 800200c:	2958      	cmp	r1, #88	; 0x58
 800200e:	f200 841d 	bhi.w	800284c <_vfprintf_r+0x9b4>
 8002012:	e8df f011 	tbh	[pc, r1, lsl #1]
 8002016:	00b3      	.short	0x00b3
 8002018:	041b041b 	.word	0x041b041b
 800201c:	041b00b8 	.word	0x041b00b8
 8002020:	041b041b 	.word	0x041b041b
 8002024:	041b041b 	.word	0x041b041b
 8002028:	00bb041b 	.word	0x00bb041b
 800202c:	041b0065 	.word	0x041b0065
 8002030:	00c700c4 	.word	0x00c700c4
 8002034:	00e4041b 	.word	0x00e4041b
 8002038:	00e700e7 	.word	0x00e700e7
 800203c:	00e700e7 	.word	0x00e700e7
 8002040:	00e700e7 	.word	0x00e700e7
 8002044:	00e700e7 	.word	0x00e700e7
 8002048:	041b00e7 	.word	0x041b00e7
 800204c:	041b041b 	.word	0x041b041b
 8002050:	041b041b 	.word	0x041b041b
 8002054:	041b041b 	.word	0x041b041b
 8002058:	041b041b 	.word	0x041b041b
 800205c:	011b041b 	.word	0x011b041b
 8002060:	041b0131 	.word	0x041b0131
 8002064:	041b0131 	.word	0x041b0131
 8002068:	041b041b 	.word	0x041b041b
 800206c:	00fa041b 	.word	0x00fa041b
 8002070:	041b041b 	.word	0x041b041b
 8002074:	041b0346 	.word	0x041b0346
 8002078:	041b041b 	.word	0x041b041b
 800207c:	041b041b 	.word	0x041b041b
 8002080:	041b03ad 	.word	0x041b03ad
 8002084:	0093041b 	.word	0x0093041b
 8002088:	041b041b 	.word	0x041b041b
 800208c:	041b041b 	.word	0x041b041b
 8002090:	041b041b 	.word	0x041b041b
 8002094:	041b041b 	.word	0x041b041b
 8002098:	041b041b 	.word	0x041b041b
 800209c:	006b010d 	.word	0x006b010d
 80020a0:	01310131 	.word	0x01310131
 80020a4:	00fd0131 	.word	0x00fd0131
 80020a8:	041b006b 	.word	0x041b006b
 80020ac:	0100041b 	.word	0x0100041b
 80020b0:	0328041b 	.word	0x0328041b
 80020b4:	037c0348 	.word	0x037c0348
 80020b8:	041b0107 	.word	0x041b0107
 80020bc:	041b038d 	.word	0x041b038d
 80020c0:	041b03af 	.word	0x041b03af
 80020c4:	03c7041b 	.word	0x03c7041b
 80020c8:	461d      	mov	r5, r3
 80020ca:	e773      	b.n	8001fb4 <_vfprintf_r+0x11c>
 80020cc:	aa1f      	add	r2, sp, #124	; 0x7c
 80020ce:	4641      	mov	r1, r8
 80020d0:	4658      	mov	r0, fp
 80020d2:	f003 f9bc 	bl	800544e <__sprint_r>
 80020d6:	2800      	cmp	r0, #0
 80020d8:	f040 8699 	bne.w	8002e0e <_vfprintf_r+0xf76>
 80020dc:	ac2c      	add	r4, sp, #176	; 0xb0
 80020de:	e77e      	b.n	8001fde <_vfprintf_r+0x146>
 80020e0:	2301      	movs	r3, #1
 80020e2:	222b      	movs	r2, #43	; 0x2b
 80020e4:	9905      	ldr	r1, [sp, #20]
 80020e6:	e78b      	b.n	8002000 <_vfprintf_r+0x168>
 80020e8:	460f      	mov	r7, r1
 80020ea:	e7fb      	b.n	80020e4 <_vfprintf_r+0x24c>
 80020ec:	b10b      	cbz	r3, 80020f2 <_vfprintf_r+0x25a>
 80020ee:	f88d 205f 	strb.w	r2, [sp, #95]	; 0x5f
 80020f2:	06aa      	lsls	r2, r5, #26
 80020f4:	f140 80b0 	bpl.w	8002258 <_vfprintf_r+0x3c0>
 80020f8:	3707      	adds	r7, #7
 80020fa:	f027 0707 	bic.w	r7, r7, #7
 80020fe:	f107 0308 	add.w	r3, r7, #8
 8002102:	e9d7 6700 	ldrd	r6, r7, [r7]
 8002106:	9304      	str	r3, [sp, #16]
 8002108:	2e00      	cmp	r6, #0
 800210a:	f177 0300 	sbcs.w	r3, r7, #0
 800210e:	da06      	bge.n	800211e <_vfprintf_r+0x286>
 8002110:	4276      	negs	r6, r6
 8002112:	f04f 032d 	mov.w	r3, #45	; 0x2d
 8002116:	eb67 0747 	sbc.w	r7, r7, r7, lsl #1
 800211a:	f88d 305f 	strb.w	r3, [sp, #95]	; 0x5f
 800211e:	2301      	movs	r3, #1
 8002120:	e2d0      	b.n	80026c4 <_vfprintf_r+0x82c>
 8002122:	bf00      	nop
 8002124:	f3af 8000 	nop.w
	...
 8002130:	080059c4 	.word	0x080059c4
 8002134:	080059e4 	.word	0x080059e4
 8002138:	080059a4 	.word	0x080059a4
 800213c:	b10b      	cbz	r3, 8002142 <_vfprintf_r+0x2aa>
 800213e:	f88d 205f 	strb.w	r2, [sp, #95]	; 0x5f
 8002142:	4ba2      	ldr	r3, [pc, #648]	; (80023cc <_vfprintf_r+0x534>)
 8002144:	9311      	str	r3, [sp, #68]	; 0x44
 8002146:	06a9      	lsls	r1, r5, #26
 8002148:	f140 8331 	bpl.w	80027ae <_vfprintf_r+0x916>
 800214c:	3707      	adds	r7, #7
 800214e:	f027 0707 	bic.w	r7, r7, #7
 8002152:	f107 0308 	add.w	r3, r7, #8
 8002156:	e9d7 6700 	ldrd	r6, r7, [r7]
 800215a:	9304      	str	r3, [sp, #16]
 800215c:	07eb      	lsls	r3, r5, #31
 800215e:	d50b      	bpl.n	8002178 <_vfprintf_r+0x2e0>
 8002160:	ea56 0307 	orrs.w	r3, r6, r7
 8002164:	d008      	beq.n	8002178 <_vfprintf_r+0x2e0>
 8002166:	2330      	movs	r3, #48	; 0x30
 8002168:	f88d 3060 	strb.w	r3, [sp, #96]	; 0x60
 800216c:	f89d 3008 	ldrb.w	r3, [sp, #8]
 8002170:	f88d 3061 	strb.w	r3, [sp, #97]	; 0x61
 8002174:	f045 0502 	orr.w	r5, r5, #2
 8002178:	2302      	movs	r3, #2
 800217a:	e2a0      	b.n	80026be <_vfprintf_r+0x826>
 800217c:	2a00      	cmp	r2, #0
 800217e:	d1b1      	bne.n	80020e4 <_vfprintf_r+0x24c>
 8002180:	2301      	movs	r3, #1
 8002182:	2220      	movs	r2, #32
 8002184:	e7ae      	b.n	80020e4 <_vfprintf_r+0x24c>
 8002186:	f045 0501 	orr.w	r5, r5, #1
 800218a:	e7ab      	b.n	80020e4 <_vfprintf_r+0x24c>
 800218c:	683e      	ldr	r6, [r7, #0]
 800218e:	960b      	str	r6, [sp, #44]	; 0x2c
 8002190:	2e00      	cmp	r6, #0
 8002192:	f107 0104 	add.w	r1, r7, #4
 8002196:	daa7      	bge.n	80020e8 <_vfprintf_r+0x250>
 8002198:	4276      	negs	r6, r6
 800219a:	960b      	str	r6, [sp, #44]	; 0x2c
 800219c:	460f      	mov	r7, r1
 800219e:	f045 0504 	orr.w	r5, r5, #4
 80021a2:	e79f      	b.n	80020e4 <_vfprintf_r+0x24c>
 80021a4:	9905      	ldr	r1, [sp, #20]
 80021a6:	1c4e      	adds	r6, r1, #1
 80021a8:	7809      	ldrb	r1, [r1, #0]
 80021aa:	9102      	str	r1, [sp, #8]
 80021ac:	292a      	cmp	r1, #42	; 0x2a
 80021ae:	d010      	beq.n	80021d2 <_vfprintf_r+0x33a>
 80021b0:	f04f 0a00 	mov.w	sl, #0
 80021b4:	9605      	str	r6, [sp, #20]
 80021b6:	9902      	ldr	r1, [sp, #8]
 80021b8:	3930      	subs	r1, #48	; 0x30
 80021ba:	2909      	cmp	r1, #9
 80021bc:	f63f af24 	bhi.w	8002008 <_vfprintf_r+0x170>
 80021c0:	fb00 1a0a 	mla	sl, r0, sl, r1
 80021c4:	9905      	ldr	r1, [sp, #20]
 80021c6:	460e      	mov	r6, r1
 80021c8:	f816 1b01 	ldrb.w	r1, [r6], #1
 80021cc:	9102      	str	r1, [sp, #8]
 80021ce:	9605      	str	r6, [sp, #20]
 80021d0:	e7f1      	b.n	80021b6 <_vfprintf_r+0x31e>
 80021d2:	6839      	ldr	r1, [r7, #0]
 80021d4:	9605      	str	r6, [sp, #20]
 80021d6:	ea41 7ae1 	orr.w	sl, r1, r1, asr #31
 80021da:	3704      	adds	r7, #4
 80021dc:	e782      	b.n	80020e4 <_vfprintf_r+0x24c>
 80021de:	f045 0580 	orr.w	r5, r5, #128	; 0x80
 80021e2:	e77f      	b.n	80020e4 <_vfprintf_r+0x24c>
 80021e4:	2100      	movs	r1, #0
 80021e6:	910b      	str	r1, [sp, #44]	; 0x2c
 80021e8:	9902      	ldr	r1, [sp, #8]
 80021ea:	9e0b      	ldr	r6, [sp, #44]	; 0x2c
 80021ec:	3930      	subs	r1, #48	; 0x30
 80021ee:	fb00 1106 	mla	r1, r0, r6, r1
 80021f2:	910b      	str	r1, [sp, #44]	; 0x2c
 80021f4:	9905      	ldr	r1, [sp, #20]
 80021f6:	460e      	mov	r6, r1
 80021f8:	f816 1b01 	ldrb.w	r1, [r6], #1
 80021fc:	9102      	str	r1, [sp, #8]
 80021fe:	9902      	ldr	r1, [sp, #8]
 8002200:	9605      	str	r6, [sp, #20]
 8002202:	3930      	subs	r1, #48	; 0x30
 8002204:	2909      	cmp	r1, #9
 8002206:	d9ef      	bls.n	80021e8 <_vfprintf_r+0x350>
 8002208:	e6fe      	b.n	8002008 <_vfprintf_r+0x170>
 800220a:	f045 0508 	orr.w	r5, r5, #8
 800220e:	e769      	b.n	80020e4 <_vfprintf_r+0x24c>
 8002210:	f045 0540 	orr.w	r5, r5, #64	; 0x40
 8002214:	e766      	b.n	80020e4 <_vfprintf_r+0x24c>
 8002216:	9905      	ldr	r1, [sp, #20]
 8002218:	7809      	ldrb	r1, [r1, #0]
 800221a:	296c      	cmp	r1, #108	; 0x6c
 800221c:	d105      	bne.n	800222a <_vfprintf_r+0x392>
 800221e:	9905      	ldr	r1, [sp, #20]
 8002220:	3101      	adds	r1, #1
 8002222:	9105      	str	r1, [sp, #20]
 8002224:	f045 0520 	orr.w	r5, r5, #32
 8002228:	e75c      	b.n	80020e4 <_vfprintf_r+0x24c>
 800222a:	f045 0510 	orr.w	r5, r5, #16
 800222e:	e759      	b.n	80020e4 <_vfprintf_r+0x24c>
 8002230:	1d3b      	adds	r3, r7, #4
 8002232:	9304      	str	r3, [sp, #16]
 8002234:	2600      	movs	r6, #0
 8002236:	683b      	ldr	r3, [r7, #0]
 8002238:	f88d 3088 	strb.w	r3, [sp, #136]	; 0x88
 800223c:	f88d 605f 	strb.w	r6, [sp, #95]	; 0x5f
 8002240:	f04f 0a01 	mov.w	sl, #1
 8002244:	9608      	str	r6, [sp, #32]
 8002246:	f10d 0988 	add.w	r9, sp, #136	; 0x88
 800224a:	e11e      	b.n	800248a <_vfprintf_r+0x5f2>
 800224c:	b10b      	cbz	r3, 8002252 <_vfprintf_r+0x3ba>
 800224e:	f88d 205f 	strb.w	r2, [sp, #95]	; 0x5f
 8002252:	f045 0510 	orr.w	r5, r5, #16
 8002256:	e74c      	b.n	80020f2 <_vfprintf_r+0x25a>
 8002258:	f015 0f10 	tst.w	r5, #16
 800225c:	f107 0304 	add.w	r3, r7, #4
 8002260:	d003      	beq.n	800226a <_vfprintf_r+0x3d2>
 8002262:	683e      	ldr	r6, [r7, #0]
 8002264:	9304      	str	r3, [sp, #16]
 8002266:	17f7      	asrs	r7, r6, #31
 8002268:	e74e      	b.n	8002108 <_vfprintf_r+0x270>
 800226a:	683e      	ldr	r6, [r7, #0]
 800226c:	9304      	str	r3, [sp, #16]
 800226e:	f015 0f40 	tst.w	r5, #64	; 0x40
 8002272:	bf18      	it	ne
 8002274:	b236      	sxthne	r6, r6
 8002276:	e7f6      	b.n	8002266 <_vfprintf_r+0x3ce>
 8002278:	b10b      	cbz	r3, 800227e <_vfprintf_r+0x3e6>
 800227a:	f88d 205f 	strb.w	r2, [sp, #95]	; 0x5f
 800227e:	3707      	adds	r7, #7
 8002280:	f027 0707 	bic.w	r7, r7, #7
 8002284:	f107 0308 	add.w	r3, r7, #8
 8002288:	9304      	str	r3, [sp, #16]
 800228a:	ed97 7b00 	vldr	d7, [r7]
 800228e:	ed8d 7b06 	vstr	d7, [sp, #24]
 8002292:	9b06      	ldr	r3, [sp, #24]
 8002294:	9312      	str	r3, [sp, #72]	; 0x48
 8002296:	9b07      	ldr	r3, [sp, #28]
 8002298:	f023 4300 	bic.w	r3, r3, #2147483648	; 0x80000000
 800229c:	9313      	str	r3, [sp, #76]	; 0x4c
 800229e:	f04f 32ff 	mov.w	r2, #4294967295
 80022a2:	4b4b      	ldr	r3, [pc, #300]	; (80023d0 <_vfprintf_r+0x538>)
 80022a4:	e9dd 0112 	ldrd	r0, r1, [sp, #72]	; 0x48
 80022a8:	f7fe fc44 	bl	8000b34 <__aeabi_dcmpun>
 80022ac:	2800      	cmp	r0, #0
 80022ae:	f040 85e3 	bne.w	8002e78 <_vfprintf_r+0xfe0>
 80022b2:	f04f 32ff 	mov.w	r2, #4294967295
 80022b6:	4b46      	ldr	r3, [pc, #280]	; (80023d0 <_vfprintf_r+0x538>)
 80022b8:	e9dd 0112 	ldrd	r0, r1, [sp, #72]	; 0x48
 80022bc:	f7fe fc1c 	bl	8000af8 <__aeabi_dcmple>
 80022c0:	2800      	cmp	r0, #0
 80022c2:	f040 85d9 	bne.w	8002e78 <_vfprintf_r+0xfe0>
 80022c6:	2200      	movs	r2, #0
 80022c8:	2300      	movs	r3, #0
 80022ca:	e9dd 0106 	ldrd	r0, r1, [sp, #24]
 80022ce:	f7fe fc09 	bl	8000ae4 <__aeabi_dcmplt>
 80022d2:	b110      	cbz	r0, 80022da <_vfprintf_r+0x442>
 80022d4:	232d      	movs	r3, #45	; 0x2d
 80022d6:	f88d 305f 	strb.w	r3, [sp, #95]	; 0x5f
 80022da:	4b3e      	ldr	r3, [pc, #248]	; (80023d4 <_vfprintf_r+0x53c>)
 80022dc:	4a3e      	ldr	r2, [pc, #248]	; (80023d8 <_vfprintf_r+0x540>)
 80022de:	9902      	ldr	r1, [sp, #8]
 80022e0:	f025 0580 	bic.w	r5, r5, #128	; 0x80
 80022e4:	2947      	cmp	r1, #71	; 0x47
 80022e6:	bfcc      	ite	gt
 80022e8:	4691      	movgt	r9, r2
 80022ea:	4699      	movle	r9, r3
 80022ec:	f04f 0a03 	mov.w	sl, #3
 80022f0:	2600      	movs	r6, #0
 80022f2:	9608      	str	r6, [sp, #32]
 80022f4:	e0c9      	b.n	800248a <_vfprintf_r+0x5f2>
 80022f6:	f1ba 3fff 	cmp.w	sl, #4294967295
 80022fa:	d022      	beq.n	8002342 <_vfprintf_r+0x4aa>
 80022fc:	9b02      	ldr	r3, [sp, #8]
 80022fe:	f023 0320 	bic.w	r3, r3, #32
 8002302:	2b47      	cmp	r3, #71	; 0x47
 8002304:	d104      	bne.n	8002310 <_vfprintf_r+0x478>
 8002306:	f1ba 0f00 	cmp.w	sl, #0
 800230a:	bf08      	it	eq
 800230c:	f04f 0a01 	moveq.w	sl, #1
 8002310:	f445 7380 	orr.w	r3, r5, #256	; 0x100
 8002314:	9314      	str	r3, [sp, #80]	; 0x50
 8002316:	9b07      	ldr	r3, [sp, #28]
 8002318:	2b00      	cmp	r3, #0
 800231a:	da15      	bge.n	8002348 <_vfprintf_r+0x4b0>
 800231c:	9b06      	ldr	r3, [sp, #24]
 800231e:	930e      	str	r3, [sp, #56]	; 0x38
 8002320:	9b07      	ldr	r3, [sp, #28]
 8002322:	f103 4300 	add.w	r3, r3, #2147483648	; 0x80000000
 8002326:	930f      	str	r3, [sp, #60]	; 0x3c
 8002328:	232d      	movs	r3, #45	; 0x2d
 800232a:	930c      	str	r3, [sp, #48]	; 0x30
 800232c:	9b02      	ldr	r3, [sp, #8]
 800232e:	f023 0720 	bic.w	r7, r3, #32
 8002332:	2f46      	cmp	r7, #70	; 0x46
 8002334:	d00e      	beq.n	8002354 <_vfprintf_r+0x4bc>
 8002336:	2f45      	cmp	r7, #69	; 0x45
 8002338:	d146      	bne.n	80023c8 <_vfprintf_r+0x530>
 800233a:	f10a 0601 	add.w	r6, sl, #1
 800233e:	2102      	movs	r1, #2
 8002340:	e00a      	b.n	8002358 <_vfprintf_r+0x4c0>
 8002342:	f04f 0a06 	mov.w	sl, #6
 8002346:	e7e3      	b.n	8002310 <_vfprintf_r+0x478>
 8002348:	ed9d 7b06 	vldr	d7, [sp, #24]
 800234c:	2300      	movs	r3, #0
 800234e:	ed8d 7b0e 	vstr	d7, [sp, #56]	; 0x38
 8002352:	e7ea      	b.n	800232a <_vfprintf_r+0x492>
 8002354:	4656      	mov	r6, sl
 8002356:	2103      	movs	r1, #3
 8002358:	ab1d      	add	r3, sp, #116	; 0x74
 800235a:	9301      	str	r3, [sp, #4]
 800235c:	ab1a      	add	r3, sp, #104	; 0x68
 800235e:	9300      	str	r3, [sp, #0]
 8002360:	4632      	mov	r2, r6
 8002362:	ab19      	add	r3, sp, #100	; 0x64
 8002364:	ed9d 0b0e 	vldr	d0, [sp, #56]	; 0x38
 8002368:	4658      	mov	r0, fp
 800236a:	f000 ff0d 	bl	8003188 <_dtoa_r>
 800236e:	2f47      	cmp	r7, #71	; 0x47
 8002370:	4681      	mov	r9, r0
 8002372:	d102      	bne.n	800237a <_vfprintf_r+0x4e2>
 8002374:	07eb      	lsls	r3, r5, #31
 8002376:	f140 858c 	bpl.w	8002e92 <_vfprintf_r+0xffa>
 800237a:	eb09 0306 	add.w	r3, r9, r6
 800237e:	2f46      	cmp	r7, #70	; 0x46
 8002380:	9303      	str	r3, [sp, #12]
 8002382:	d111      	bne.n	80023a8 <_vfprintf_r+0x510>
 8002384:	f899 3000 	ldrb.w	r3, [r9]
 8002388:	2b30      	cmp	r3, #48	; 0x30
 800238a:	d109      	bne.n	80023a0 <_vfprintf_r+0x508>
 800238c:	2200      	movs	r2, #0
 800238e:	2300      	movs	r3, #0
 8002390:	e9dd 010e 	ldrd	r0, r1, [sp, #56]	; 0x38
 8002394:	f7fe fb9c 	bl	8000ad0 <__aeabi_dcmpeq>
 8002398:	b910      	cbnz	r0, 80023a0 <_vfprintf_r+0x508>
 800239a:	f1c6 0601 	rsb	r6, r6, #1
 800239e:	9619      	str	r6, [sp, #100]	; 0x64
 80023a0:	9a03      	ldr	r2, [sp, #12]
 80023a2:	9b19      	ldr	r3, [sp, #100]	; 0x64
 80023a4:	441a      	add	r2, r3
 80023a6:	9203      	str	r2, [sp, #12]
 80023a8:	2200      	movs	r2, #0
 80023aa:	2300      	movs	r3, #0
 80023ac:	e9dd 010e 	ldrd	r0, r1, [sp, #56]	; 0x38
 80023b0:	f7fe fb8e 	bl	8000ad0 <__aeabi_dcmpeq>
 80023b4:	b990      	cbnz	r0, 80023dc <_vfprintf_r+0x544>
 80023b6:	2230      	movs	r2, #48	; 0x30
 80023b8:	9b1d      	ldr	r3, [sp, #116]	; 0x74
 80023ba:	9903      	ldr	r1, [sp, #12]
 80023bc:	4299      	cmp	r1, r3
 80023be:	d90f      	bls.n	80023e0 <_vfprintf_r+0x548>
 80023c0:	1c59      	adds	r1, r3, #1
 80023c2:	911d      	str	r1, [sp, #116]	; 0x74
 80023c4:	701a      	strb	r2, [r3, #0]
 80023c6:	e7f7      	b.n	80023b8 <_vfprintf_r+0x520>
 80023c8:	4656      	mov	r6, sl
 80023ca:	e7b8      	b.n	800233e <_vfprintf_r+0x4a6>
 80023cc:	08005952 	.word	0x08005952
 80023d0:	7fefffff 	.word	0x7fefffff
 80023d4:	08005942 	.word	0x08005942
 80023d8:	08005946 	.word	0x08005946
 80023dc:	9b03      	ldr	r3, [sp, #12]
 80023de:	931d      	str	r3, [sp, #116]	; 0x74
 80023e0:	9b1d      	ldr	r3, [sp, #116]	; 0x74
 80023e2:	2f47      	cmp	r7, #71	; 0x47
 80023e4:	eba3 0309 	sub.w	r3, r3, r9
 80023e8:	9303      	str	r3, [sp, #12]
 80023ea:	f040 80f8 	bne.w	80025de <_vfprintf_r+0x746>
 80023ee:	9b19      	ldr	r3, [sp, #100]	; 0x64
 80023f0:	1cdf      	adds	r7, r3, #3
 80023f2:	db02      	blt.n	80023fa <_vfprintf_r+0x562>
 80023f4:	459a      	cmp	sl, r3
 80023f6:	f280 811f 	bge.w	8002638 <_vfprintf_r+0x7a0>
 80023fa:	9b02      	ldr	r3, [sp, #8]
 80023fc:	3b02      	subs	r3, #2
 80023fe:	9302      	str	r3, [sp, #8]
 8002400:	9a19      	ldr	r2, [sp, #100]	; 0x64
 8002402:	f89d 1008 	ldrb.w	r1, [sp, #8]
 8002406:	f88d 106c 	strb.w	r1, [sp, #108]	; 0x6c
 800240a:	1e53      	subs	r3, r2, #1
 800240c:	2b00      	cmp	r3, #0
 800240e:	9319      	str	r3, [sp, #100]	; 0x64
 8002410:	bfb6      	itet	lt
 8002412:	f1c2 0301 	rsblt	r3, r2, #1
 8002416:	222b      	movge	r2, #43	; 0x2b
 8002418:	222d      	movlt	r2, #45	; 0x2d
 800241a:	2b09      	cmp	r3, #9
 800241c:	f88d 206d 	strb.w	r2, [sp, #109]	; 0x6d
 8002420:	f340 80fa 	ble.w	8002618 <_vfprintf_r+0x780>
 8002424:	f10d 027b 	add.w	r2, sp, #123	; 0x7b
 8002428:	260a      	movs	r6, #10
 800242a:	fb93 f0f6 	sdiv	r0, r3, r6
 800242e:	fb06 3310 	mls	r3, r6, r0, r3
 8002432:	3330      	adds	r3, #48	; 0x30
 8002434:	2809      	cmp	r0, #9
 8002436:	f802 3c01 	strb.w	r3, [r2, #-1]
 800243a:	f102 31ff 	add.w	r1, r2, #4294967295
 800243e:	4603      	mov	r3, r0
 8002440:	f300 80e3 	bgt.w	800260a <_vfprintf_r+0x772>
 8002444:	3330      	adds	r3, #48	; 0x30
 8002446:	f801 3c01 	strb.w	r3, [r1, #-1]
 800244a:	3a02      	subs	r2, #2
 800244c:	f10d 036e 	add.w	r3, sp, #110	; 0x6e
 8002450:	f10d 007b 	add.w	r0, sp, #123	; 0x7b
 8002454:	4282      	cmp	r2, r0
 8002456:	4619      	mov	r1, r3
 8002458:	f0c0 80d9 	bcc.w	800260e <_vfprintf_r+0x776>
 800245c:	9a03      	ldr	r2, [sp, #12]
 800245e:	ab1b      	add	r3, sp, #108	; 0x6c
 8002460:	1acb      	subs	r3, r1, r3
 8002462:	2a01      	cmp	r2, #1
 8002464:	9310      	str	r3, [sp, #64]	; 0x40
 8002466:	eb03 0a02 	add.w	sl, r3, r2
 800246a:	dc03      	bgt.n	8002474 <_vfprintf_r+0x5dc>
 800246c:	f015 0301 	ands.w	r3, r5, #1
 8002470:	9308      	str	r3, [sp, #32]
 8002472:	d003      	beq.n	800247c <_vfprintf_r+0x5e4>
 8002474:	9b09      	ldr	r3, [sp, #36]	; 0x24
 8002476:	449a      	add	sl, r3
 8002478:	2300      	movs	r3, #0
 800247a:	9308      	str	r3, [sp, #32]
 800247c:	9b0c      	ldr	r3, [sp, #48]	; 0x30
 800247e:	b113      	cbz	r3, 8002486 <_vfprintf_r+0x5ee>
 8002480:	232d      	movs	r3, #45	; 0x2d
 8002482:	f88d 305f 	strb.w	r3, [sp, #95]	; 0x5f
 8002486:	9d14      	ldr	r5, [sp, #80]	; 0x50
 8002488:	2600      	movs	r6, #0
 800248a:	4556      	cmp	r6, sl
 800248c:	4633      	mov	r3, r6
 800248e:	bfb8      	it	lt
 8002490:	4653      	movlt	r3, sl
 8002492:	930c      	str	r3, [sp, #48]	; 0x30
 8002494:	f89d 305f 	ldrb.w	r3, [sp, #95]	; 0x5f
 8002498:	b113      	cbz	r3, 80024a0 <_vfprintf_r+0x608>
 800249a:	9b0c      	ldr	r3, [sp, #48]	; 0x30
 800249c:	3301      	adds	r3, #1
 800249e:	930c      	str	r3, [sp, #48]	; 0x30
 80024a0:	f015 0302 	ands.w	r3, r5, #2
 80024a4:	9314      	str	r3, [sp, #80]	; 0x50
 80024a6:	bf1e      	ittt	ne
 80024a8:	9b0c      	ldrne	r3, [sp, #48]	; 0x30
 80024aa:	3302      	addne	r3, #2
 80024ac:	930c      	strne	r3, [sp, #48]	; 0x30
 80024ae:	f015 0384 	ands.w	r3, r5, #132	; 0x84
 80024b2:	9315      	str	r3, [sp, #84]	; 0x54
 80024b4:	d114      	bne.n	80024e0 <_vfprintf_r+0x648>
 80024b6:	9b0b      	ldr	r3, [sp, #44]	; 0x2c
 80024b8:	9a0c      	ldr	r2, [sp, #48]	; 0x30
 80024ba:	1a9f      	subs	r7, r3, r2
 80024bc:	2f00      	cmp	r7, #0
 80024be:	dd0f      	ble.n	80024e0 <_vfprintf_r+0x648>
 80024c0:	4ba8      	ldr	r3, [pc, #672]	; (8002764 <_vfprintf_r+0x8cc>)
 80024c2:	6023      	str	r3, [r4, #0]
 80024c4:	2f10      	cmp	r7, #16
 80024c6:	f300 81d3 	bgt.w	8002870 <_vfprintf_r+0x9d8>
 80024ca:	9b21      	ldr	r3, [sp, #132]	; 0x84
 80024cc:	6067      	str	r7, [r4, #4]
 80024ce:	441f      	add	r7, r3
 80024d0:	9b20      	ldr	r3, [sp, #128]	; 0x80
 80024d2:	9721      	str	r7, [sp, #132]	; 0x84
 80024d4:	3301      	adds	r3, #1
 80024d6:	2b07      	cmp	r3, #7
 80024d8:	9320      	str	r3, [sp, #128]	; 0x80
 80024da:	f300 81e0 	bgt.w	800289e <_vfprintf_r+0xa06>
 80024de:	3408      	adds	r4, #8
 80024e0:	f89d 305f 	ldrb.w	r3, [sp, #95]	; 0x5f
 80024e4:	b173      	cbz	r3, 8002504 <_vfprintf_r+0x66c>
 80024e6:	f10d 035f 	add.w	r3, sp, #95	; 0x5f
 80024ea:	6023      	str	r3, [r4, #0]
 80024ec:	2301      	movs	r3, #1
 80024ee:	6063      	str	r3, [r4, #4]
 80024f0:	9b21      	ldr	r3, [sp, #132]	; 0x84
 80024f2:	3301      	adds	r3, #1
 80024f4:	9321      	str	r3, [sp, #132]	; 0x84
 80024f6:	9b20      	ldr	r3, [sp, #128]	; 0x80
 80024f8:	3301      	adds	r3, #1
 80024fa:	2b07      	cmp	r3, #7
 80024fc:	9320      	str	r3, [sp, #128]	; 0x80
 80024fe:	f300 81d8 	bgt.w	80028b2 <_vfprintf_r+0xa1a>
 8002502:	3408      	adds	r4, #8
 8002504:	9b14      	ldr	r3, [sp, #80]	; 0x50
 8002506:	b16b      	cbz	r3, 8002524 <_vfprintf_r+0x68c>
 8002508:	ab18      	add	r3, sp, #96	; 0x60
 800250a:	6023      	str	r3, [r4, #0]
 800250c:	2302      	movs	r3, #2
 800250e:	6063      	str	r3, [r4, #4]
 8002510:	9b21      	ldr	r3, [sp, #132]	; 0x84
 8002512:	3302      	adds	r3, #2
 8002514:	9321      	str	r3, [sp, #132]	; 0x84
 8002516:	9b20      	ldr	r3, [sp, #128]	; 0x80
 8002518:	3301      	adds	r3, #1
 800251a:	2b07      	cmp	r3, #7
 800251c:	9320      	str	r3, [sp, #128]	; 0x80
 800251e:	f300 81d2 	bgt.w	80028c6 <_vfprintf_r+0xa2e>
 8002522:	3408      	adds	r4, #8
 8002524:	9b15      	ldr	r3, [sp, #84]	; 0x54
 8002526:	2b80      	cmp	r3, #128	; 0x80
 8002528:	d114      	bne.n	8002554 <_vfprintf_r+0x6bc>
 800252a:	9b0b      	ldr	r3, [sp, #44]	; 0x2c
 800252c:	9a0c      	ldr	r2, [sp, #48]	; 0x30
 800252e:	1a9f      	subs	r7, r3, r2
 8002530:	2f00      	cmp	r7, #0
 8002532:	dd0f      	ble.n	8002554 <_vfprintf_r+0x6bc>
 8002534:	4b8c      	ldr	r3, [pc, #560]	; (8002768 <_vfprintf_r+0x8d0>)
 8002536:	6023      	str	r3, [r4, #0]
 8002538:	2f10      	cmp	r7, #16
 800253a:	f300 81ce 	bgt.w	80028da <_vfprintf_r+0xa42>
 800253e:	9b21      	ldr	r3, [sp, #132]	; 0x84
 8002540:	6067      	str	r7, [r4, #4]
 8002542:	441f      	add	r7, r3
 8002544:	9b20      	ldr	r3, [sp, #128]	; 0x80
 8002546:	9721      	str	r7, [sp, #132]	; 0x84
 8002548:	3301      	adds	r3, #1
 800254a:	2b07      	cmp	r3, #7
 800254c:	9320      	str	r3, [sp, #128]	; 0x80
 800254e:	f300 81dd 	bgt.w	800290c <_vfprintf_r+0xa74>
 8002552:	3408      	adds	r4, #8
 8002554:	eba6 060a 	sub.w	r6, r6, sl
 8002558:	2e00      	cmp	r6, #0
 800255a:	dd0f      	ble.n	800257c <_vfprintf_r+0x6e4>
 800255c:	4f82      	ldr	r7, [pc, #520]	; (8002768 <_vfprintf_r+0x8d0>)
 800255e:	6027      	str	r7, [r4, #0]
 8002560:	2e10      	cmp	r6, #16
 8002562:	f300 81dd 	bgt.w	8002920 <_vfprintf_r+0xa88>
 8002566:	9b20      	ldr	r3, [sp, #128]	; 0x80
 8002568:	9821      	ldr	r0, [sp, #132]	; 0x84
 800256a:	6066      	str	r6, [r4, #4]
 800256c:	3301      	adds	r3, #1
 800256e:	4406      	add	r6, r0
 8002570:	2b07      	cmp	r3, #7
 8002572:	9621      	str	r6, [sp, #132]	; 0x84
 8002574:	9320      	str	r3, [sp, #128]	; 0x80
 8002576:	f300 81ea 	bgt.w	800294e <_vfprintf_r+0xab6>
 800257a:	3408      	adds	r4, #8
 800257c:	05e9      	lsls	r1, r5, #23
 800257e:	f100 81f0 	bmi.w	8002962 <_vfprintf_r+0xaca>
 8002582:	9b21      	ldr	r3, [sp, #132]	; 0x84
 8002584:	e884 0600 	stmia.w	r4, {r9, sl}
 8002588:	4453      	add	r3, sl
 800258a:	9321      	str	r3, [sp, #132]	; 0x84
 800258c:	9b20      	ldr	r3, [sp, #128]	; 0x80
 800258e:	3301      	adds	r3, #1
 8002590:	2b07      	cmp	r3, #7
 8002592:	9320      	str	r3, [sp, #128]	; 0x80
 8002594:	f340 841b 	ble.w	8002dce <_vfprintf_r+0xf36>
 8002598:	aa1f      	add	r2, sp, #124	; 0x7c
 800259a:	4641      	mov	r1, r8
 800259c:	4658      	mov	r0, fp
 800259e:	f002 ff56 	bl	800544e <__sprint_r>
 80025a2:	2800      	cmp	r0, #0
 80025a4:	f040 8433 	bne.w	8002e0e <_vfprintf_r+0xf76>
 80025a8:	ac2c      	add	r4, sp, #176	; 0xb0
 80025aa:	0768      	lsls	r0, r5, #29
 80025ac:	f100 8412 	bmi.w	8002dd4 <_vfprintf_r+0xf3c>
 80025b0:	9b0a      	ldr	r3, [sp, #40]	; 0x28
 80025b2:	9a0b      	ldr	r2, [sp, #44]	; 0x2c
 80025b4:	990c      	ldr	r1, [sp, #48]	; 0x30
 80025b6:	428a      	cmp	r2, r1
 80025b8:	bfac      	ite	ge
 80025ba:	189b      	addge	r3, r3, r2
 80025bc:	185b      	addlt	r3, r3, r1
 80025be:	930a      	str	r3, [sp, #40]	; 0x28
 80025c0:	9b21      	ldr	r3, [sp, #132]	; 0x84
 80025c2:	b13b      	cbz	r3, 80025d4 <_vfprintf_r+0x73c>
 80025c4:	aa1f      	add	r2, sp, #124	; 0x7c
 80025c6:	4641      	mov	r1, r8
 80025c8:	4658      	mov	r0, fp
 80025ca:	f002 ff40 	bl	800544e <__sprint_r>
 80025ce:	2800      	cmp	r0, #0
 80025d0:	f040 841d 	bne.w	8002e0e <_vfprintf_r+0xf76>
 80025d4:	2300      	movs	r3, #0
 80025d6:	9320      	str	r3, [sp, #128]	; 0x80
 80025d8:	9f04      	ldr	r7, [sp, #16]
 80025da:	ac2c      	add	r4, sp, #176	; 0xb0
 80025dc:	e4e9      	b.n	8001fb2 <_vfprintf_r+0x11a>
 80025de:	9b02      	ldr	r3, [sp, #8]
 80025e0:	2b65      	cmp	r3, #101	; 0x65
 80025e2:	f77f af0d 	ble.w	8002400 <_vfprintf_r+0x568>
 80025e6:	9b02      	ldr	r3, [sp, #8]
 80025e8:	2b66      	cmp	r3, #102	; 0x66
 80025ea:	d125      	bne.n	8002638 <_vfprintf_r+0x7a0>
 80025ec:	9b19      	ldr	r3, [sp, #100]	; 0x64
 80025ee:	2b00      	cmp	r3, #0
 80025f0:	dd1a      	ble.n	8002628 <_vfprintf_r+0x790>
 80025f2:	f1ba 0f00 	cmp.w	sl, #0
 80025f6:	d101      	bne.n	80025fc <_vfprintf_r+0x764>
 80025f8:	07ee      	lsls	r6, r5, #31
 80025fa:	d502      	bpl.n	8002602 <_vfprintf_r+0x76a>
 80025fc:	9a09      	ldr	r2, [sp, #36]	; 0x24
 80025fe:	4413      	add	r3, r2
 8002600:	4453      	add	r3, sl
 8002602:	9a19      	ldr	r2, [sp, #100]	; 0x64
 8002604:	9208      	str	r2, [sp, #32]
 8002606:	469a      	mov	sl, r3
 8002608:	e738      	b.n	800247c <_vfprintf_r+0x5e4>
 800260a:	460a      	mov	r2, r1
 800260c:	e70d      	b.n	800242a <_vfprintf_r+0x592>
 800260e:	f812 1b01 	ldrb.w	r1, [r2], #1
 8002612:	f803 1b01 	strb.w	r1, [r3], #1
 8002616:	e71d      	b.n	8002454 <_vfprintf_r+0x5bc>
 8002618:	2230      	movs	r2, #48	; 0x30
 800261a:	4413      	add	r3, r2
 800261c:	f88d 206e 	strb.w	r2, [sp, #110]	; 0x6e
 8002620:	f88d 306f 	strb.w	r3, [sp, #111]	; 0x6f
 8002624:	a91c      	add	r1, sp, #112	; 0x70
 8002626:	e719      	b.n	800245c <_vfprintf_r+0x5c4>
 8002628:	f1ba 0f00 	cmp.w	sl, #0
 800262c:	d101      	bne.n	8002632 <_vfprintf_r+0x79a>
 800262e:	07ed      	lsls	r5, r5, #31
 8002630:	d515      	bpl.n	800265e <_vfprintf_r+0x7c6>
 8002632:	9b09      	ldr	r3, [sp, #36]	; 0x24
 8002634:	3301      	adds	r3, #1
 8002636:	e7e3      	b.n	8002600 <_vfprintf_r+0x768>
 8002638:	9a19      	ldr	r2, [sp, #100]	; 0x64
 800263a:	9b03      	ldr	r3, [sp, #12]
 800263c:	429a      	cmp	r2, r3
 800263e:	db06      	blt.n	800264e <_vfprintf_r+0x7b6>
 8002640:	07e8      	lsls	r0, r5, #31
 8002642:	d50e      	bpl.n	8002662 <_vfprintf_r+0x7ca>
 8002644:	9b09      	ldr	r3, [sp, #36]	; 0x24
 8002646:	4413      	add	r3, r2
 8002648:	2267      	movs	r2, #103	; 0x67
 800264a:	9202      	str	r2, [sp, #8]
 800264c:	e7d9      	b.n	8002602 <_vfprintf_r+0x76a>
 800264e:	9b03      	ldr	r3, [sp, #12]
 8002650:	9909      	ldr	r1, [sp, #36]	; 0x24
 8002652:	2a00      	cmp	r2, #0
 8002654:	440b      	add	r3, r1
 8002656:	dcf7      	bgt.n	8002648 <_vfprintf_r+0x7b0>
 8002658:	f1c2 0201 	rsb	r2, r2, #1
 800265c:	e7f3      	b.n	8002646 <_vfprintf_r+0x7ae>
 800265e:	2301      	movs	r3, #1
 8002660:	e7cf      	b.n	8002602 <_vfprintf_r+0x76a>
 8002662:	4613      	mov	r3, r2
 8002664:	e7f0      	b.n	8002648 <_vfprintf_r+0x7b0>
 8002666:	b10b      	cbz	r3, 800266c <_vfprintf_r+0x7d4>
 8002668:	f88d 205f 	strb.w	r2, [sp, #95]	; 0x5f
 800266c:	f015 0f20 	tst.w	r5, #32
 8002670:	f107 0304 	add.w	r3, r7, #4
 8002674:	d008      	beq.n	8002688 <_vfprintf_r+0x7f0>
 8002676:	990a      	ldr	r1, [sp, #40]	; 0x28
 8002678:	683a      	ldr	r2, [r7, #0]
 800267a:	17ce      	asrs	r6, r1, #31
 800267c:	4608      	mov	r0, r1
 800267e:	4631      	mov	r1, r6
 8002680:	e9c2 0100 	strd	r0, r1, [r2]
 8002684:	461f      	mov	r7, r3
 8002686:	e494      	b.n	8001fb2 <_vfprintf_r+0x11a>
 8002688:	06e9      	lsls	r1, r5, #27
 800268a:	d503      	bpl.n	8002694 <_vfprintf_r+0x7fc>
 800268c:	683a      	ldr	r2, [r7, #0]
 800268e:	990a      	ldr	r1, [sp, #40]	; 0x28
 8002690:	6011      	str	r1, [r2, #0]
 8002692:	e7f7      	b.n	8002684 <_vfprintf_r+0x7ec>
 8002694:	066a      	lsls	r2, r5, #25
 8002696:	d5f9      	bpl.n	800268c <_vfprintf_r+0x7f4>
 8002698:	683a      	ldr	r2, [r7, #0]
 800269a:	f8bd 1028 	ldrh.w	r1, [sp, #40]	; 0x28
 800269e:	8011      	strh	r1, [r2, #0]
 80026a0:	e7f0      	b.n	8002684 <_vfprintf_r+0x7ec>
 80026a2:	f045 0510 	orr.w	r5, r5, #16
 80026a6:	f015 0320 	ands.w	r3, r5, #32
 80026aa:	d022      	beq.n	80026f2 <_vfprintf_r+0x85a>
 80026ac:	3707      	adds	r7, #7
 80026ae:	f027 0707 	bic.w	r7, r7, #7
 80026b2:	f107 0308 	add.w	r3, r7, #8
 80026b6:	e9d7 6700 	ldrd	r6, r7, [r7]
 80026ba:	9304      	str	r3, [sp, #16]
 80026bc:	2300      	movs	r3, #0
 80026be:	2200      	movs	r2, #0
 80026c0:	f88d 205f 	strb.w	r2, [sp, #95]	; 0x5f
 80026c4:	f1ba 3fff 	cmp.w	sl, #4294967295
 80026c8:	f000 83e8 	beq.w	8002e9c <_vfprintf_r+0x1004>
 80026cc:	f025 0280 	bic.w	r2, r5, #128	; 0x80
 80026d0:	9208      	str	r2, [sp, #32]
 80026d2:	ea56 0207 	orrs.w	r2, r6, r7
 80026d6:	f040 83e6 	bne.w	8002ea6 <_vfprintf_r+0x100e>
 80026da:	f1ba 0f00 	cmp.w	sl, #0
 80026de:	f000 80a9 	beq.w	8002834 <_vfprintf_r+0x99c>
 80026e2:	2b01      	cmp	r3, #1
 80026e4:	d075      	beq.n	80027d2 <_vfprintf_r+0x93a>
 80026e6:	2b02      	cmp	r3, #2
 80026e8:	f000 8090 	beq.w	800280c <_vfprintf_r+0x974>
 80026ec:	2600      	movs	r6, #0
 80026ee:	2700      	movs	r7, #0
 80026f0:	e3df      	b.n	8002eb2 <_vfprintf_r+0x101a>
 80026f2:	1d3a      	adds	r2, r7, #4
 80026f4:	f015 0110 	ands.w	r1, r5, #16
 80026f8:	9204      	str	r2, [sp, #16]
 80026fa:	d002      	beq.n	8002702 <_vfprintf_r+0x86a>
 80026fc:	683e      	ldr	r6, [r7, #0]
 80026fe:	2700      	movs	r7, #0
 8002700:	e7dd      	b.n	80026be <_vfprintf_r+0x826>
 8002702:	f015 0340 	ands.w	r3, r5, #64	; 0x40
 8002706:	d0f9      	beq.n	80026fc <_vfprintf_r+0x864>
 8002708:	883e      	ldrh	r6, [r7, #0]
 800270a:	2700      	movs	r7, #0
 800270c:	e7d6      	b.n	80026bc <_vfprintf_r+0x824>
 800270e:	1d3b      	adds	r3, r7, #4
 8002710:	9304      	str	r3, [sp, #16]
 8002712:	2330      	movs	r3, #48	; 0x30
 8002714:	2278      	movs	r2, #120	; 0x78
 8002716:	f88d 3060 	strb.w	r3, [sp, #96]	; 0x60
 800271a:	4b14      	ldr	r3, [pc, #80]	; (800276c <_vfprintf_r+0x8d4>)
 800271c:	683e      	ldr	r6, [r7, #0]
 800271e:	9311      	str	r3, [sp, #68]	; 0x44
 8002720:	2700      	movs	r7, #0
 8002722:	f045 0502 	orr.w	r5, r5, #2
 8002726:	f88d 2061 	strb.w	r2, [sp, #97]	; 0x61
 800272a:	2302      	movs	r3, #2
 800272c:	9202      	str	r2, [sp, #8]
 800272e:	e7c6      	b.n	80026be <_vfprintf_r+0x826>
 8002730:	1d3b      	adds	r3, r7, #4
 8002732:	2600      	movs	r6, #0
 8002734:	f1ba 3fff 	cmp.w	sl, #4294967295
 8002738:	9304      	str	r3, [sp, #16]
 800273a:	f8d7 9000 	ldr.w	r9, [r7]
 800273e:	f88d 605f 	strb.w	r6, [sp, #95]	; 0x5f
 8002742:	d00a      	beq.n	800275a <_vfprintf_r+0x8c2>
 8002744:	4652      	mov	r2, sl
 8002746:	4631      	mov	r1, r6
 8002748:	4648      	mov	r0, r9
 800274a:	f7fd fd51 	bl	80001f0 <memchr>
 800274e:	2800      	cmp	r0, #0
 8002750:	f000 808c 	beq.w	800286c <_vfprintf_r+0x9d4>
 8002754:	eba0 0a09 	sub.w	sl, r0, r9
 8002758:	e5cb      	b.n	80022f2 <_vfprintf_r+0x45a>
 800275a:	4648      	mov	r0, r9
 800275c:	f7fd fd40 	bl	80001e0 <strlen>
 8002760:	4682      	mov	sl, r0
 8002762:	e5c6      	b.n	80022f2 <_vfprintf_r+0x45a>
 8002764:	08005976 	.word	0x08005976
 8002768:	08005986 	.word	0x08005986
 800276c:	08005963 	.word	0x08005963
 8002770:	f045 0510 	orr.w	r5, r5, #16
 8002774:	06ae      	lsls	r6, r5, #26
 8002776:	d509      	bpl.n	800278c <_vfprintf_r+0x8f4>
 8002778:	3707      	adds	r7, #7
 800277a:	f027 0707 	bic.w	r7, r7, #7
 800277e:	f107 0308 	add.w	r3, r7, #8
 8002782:	e9d7 6700 	ldrd	r6, r7, [r7]
 8002786:	9304      	str	r3, [sp, #16]
 8002788:	2301      	movs	r3, #1
 800278a:	e798      	b.n	80026be <_vfprintf_r+0x826>
 800278c:	1d3b      	adds	r3, r7, #4
 800278e:	f015 0f10 	tst.w	r5, #16
 8002792:	9304      	str	r3, [sp, #16]
 8002794:	d001      	beq.n	800279a <_vfprintf_r+0x902>
 8002796:	683e      	ldr	r6, [r7, #0]
 8002798:	e002      	b.n	80027a0 <_vfprintf_r+0x908>
 800279a:	0668      	lsls	r0, r5, #25
 800279c:	d5fb      	bpl.n	8002796 <_vfprintf_r+0x8fe>
 800279e:	883e      	ldrh	r6, [r7, #0]
 80027a0:	2700      	movs	r7, #0
 80027a2:	e7f1      	b.n	8002788 <_vfprintf_r+0x8f0>
 80027a4:	b10b      	cbz	r3, 80027aa <_vfprintf_r+0x912>
 80027a6:	f88d 205f 	strb.w	r2, [sp, #95]	; 0x5f
 80027aa:	4ba2      	ldr	r3, [pc, #648]	; (8002a34 <_vfprintf_r+0xb9c>)
 80027ac:	e4ca      	b.n	8002144 <_vfprintf_r+0x2ac>
 80027ae:	1d3b      	adds	r3, r7, #4
 80027b0:	f015 0f10 	tst.w	r5, #16
 80027b4:	9304      	str	r3, [sp, #16]
 80027b6:	d001      	beq.n	80027bc <_vfprintf_r+0x924>
 80027b8:	683e      	ldr	r6, [r7, #0]
 80027ba:	e002      	b.n	80027c2 <_vfprintf_r+0x92a>
 80027bc:	066a      	lsls	r2, r5, #25
 80027be:	d5fb      	bpl.n	80027b8 <_vfprintf_r+0x920>
 80027c0:	883e      	ldrh	r6, [r7, #0]
 80027c2:	2700      	movs	r7, #0
 80027c4:	e4ca      	b.n	800215c <_vfprintf_r+0x2c4>
 80027c6:	464b      	mov	r3, r9
 80027c8:	e374      	b.n	8002eb4 <_vfprintf_r+0x101c>
 80027ca:	2f00      	cmp	r7, #0
 80027cc:	bf08      	it	eq
 80027ce:	2e0a      	cmpeq	r6, #10
 80027d0:	d205      	bcs.n	80027de <_vfprintf_r+0x946>
 80027d2:	f10d 09f0 	add.w	r9, sp, #240	; 0xf0
 80027d6:	3630      	adds	r6, #48	; 0x30
 80027d8:	f809 6d41 	strb.w	r6, [r9, #-65]!
 80027dc:	e385      	b.n	8002eea <_vfprintf_r+0x1052>
 80027de:	f10d 09b0 	add.w	r9, sp, #176	; 0xb0
 80027e2:	4630      	mov	r0, r6
 80027e4:	4639      	mov	r1, r7
 80027e6:	220a      	movs	r2, #10
 80027e8:	2300      	movs	r3, #0
 80027ea:	f7fe f9e1 	bl	8000bb0 <__aeabi_uldivmod>
 80027ee:	3230      	adds	r2, #48	; 0x30
 80027f0:	f809 2d01 	strb.w	r2, [r9, #-1]!
 80027f4:	2300      	movs	r3, #0
 80027f6:	4630      	mov	r0, r6
 80027f8:	4639      	mov	r1, r7
 80027fa:	220a      	movs	r2, #10
 80027fc:	f7fe f9d8 	bl	8000bb0 <__aeabi_uldivmod>
 8002800:	4606      	mov	r6, r0
 8002802:	460f      	mov	r7, r1
 8002804:	ea56 0307 	orrs.w	r3, r6, r7
 8002808:	d1eb      	bne.n	80027e2 <_vfprintf_r+0x94a>
 800280a:	e36e      	b.n	8002eea <_vfprintf_r+0x1052>
 800280c:	2600      	movs	r6, #0
 800280e:	2700      	movs	r7, #0
 8002810:	f10d 09b0 	add.w	r9, sp, #176	; 0xb0
 8002814:	f006 030f 	and.w	r3, r6, #15
 8002818:	9a11      	ldr	r2, [sp, #68]	; 0x44
 800281a:	5cd3      	ldrb	r3, [r2, r3]
 800281c:	f809 3d01 	strb.w	r3, [r9, #-1]!
 8002820:	0933      	lsrs	r3, r6, #4
 8002822:	ea43 7307 	orr.w	r3, r3, r7, lsl #28
 8002826:	093a      	lsrs	r2, r7, #4
 8002828:	461e      	mov	r6, r3
 800282a:	4617      	mov	r7, r2
 800282c:	ea56 0307 	orrs.w	r3, r6, r7
 8002830:	d1f0      	bne.n	8002814 <_vfprintf_r+0x97c>
 8002832:	e35a      	b.n	8002eea <_vfprintf_r+0x1052>
 8002834:	b93b      	cbnz	r3, 8002846 <_vfprintf_r+0x9ae>
 8002836:	07e8      	lsls	r0, r5, #31
 8002838:	d505      	bpl.n	8002846 <_vfprintf_r+0x9ae>
 800283a:	f10d 09f0 	add.w	r9, sp, #240	; 0xf0
 800283e:	2330      	movs	r3, #48	; 0x30
 8002840:	f809 3d41 	strb.w	r3, [r9, #-65]!
 8002844:	e351      	b.n	8002eea <_vfprintf_r+0x1052>
 8002846:	f10d 09b0 	add.w	r9, sp, #176	; 0xb0
 800284a:	e34e      	b.n	8002eea <_vfprintf_r+0x1052>
 800284c:	b10b      	cbz	r3, 8002852 <_vfprintf_r+0x9ba>
 800284e:	f88d 205f 	strb.w	r2, [sp, #95]	; 0x5f
 8002852:	9b02      	ldr	r3, [sp, #8]
 8002854:	2b00      	cmp	r3, #0
 8002856:	f000 8302 	beq.w	8002e5e <_vfprintf_r+0xfc6>
 800285a:	f89d 3008 	ldrb.w	r3, [sp, #8]
 800285e:	f88d 3088 	strb.w	r3, [sp, #136]	; 0x88
 8002862:	2600      	movs	r6, #0
 8002864:	f88d 605f 	strb.w	r6, [sp, #95]	; 0x5f
 8002868:	9704      	str	r7, [sp, #16]
 800286a:	e4e9      	b.n	8002240 <_vfprintf_r+0x3a8>
 800286c:	4606      	mov	r6, r0
 800286e:	e540      	b.n	80022f2 <_vfprintf_r+0x45a>
 8002870:	2310      	movs	r3, #16
 8002872:	6063      	str	r3, [r4, #4]
 8002874:	9b21      	ldr	r3, [sp, #132]	; 0x84
 8002876:	3310      	adds	r3, #16
 8002878:	9321      	str	r3, [sp, #132]	; 0x84
 800287a:	9b20      	ldr	r3, [sp, #128]	; 0x80
 800287c:	3301      	adds	r3, #1
 800287e:	2b07      	cmp	r3, #7
 8002880:	9320      	str	r3, [sp, #128]	; 0x80
 8002882:	dc02      	bgt.n	800288a <_vfprintf_r+0x9f2>
 8002884:	3408      	adds	r4, #8
 8002886:	3f10      	subs	r7, #16
 8002888:	e61a      	b.n	80024c0 <_vfprintf_r+0x628>
 800288a:	aa1f      	add	r2, sp, #124	; 0x7c
 800288c:	4641      	mov	r1, r8
 800288e:	4658      	mov	r0, fp
 8002890:	f002 fddd 	bl	800544e <__sprint_r>
 8002894:	2800      	cmp	r0, #0
 8002896:	f040 82ba 	bne.w	8002e0e <_vfprintf_r+0xf76>
 800289a:	ac2c      	add	r4, sp, #176	; 0xb0
 800289c:	e7f3      	b.n	8002886 <_vfprintf_r+0x9ee>
 800289e:	aa1f      	add	r2, sp, #124	; 0x7c
 80028a0:	4641      	mov	r1, r8
 80028a2:	4658      	mov	r0, fp
 80028a4:	f002 fdd3 	bl	800544e <__sprint_r>
 80028a8:	2800      	cmp	r0, #0
 80028aa:	f040 82b0 	bne.w	8002e0e <_vfprintf_r+0xf76>
 80028ae:	ac2c      	add	r4, sp, #176	; 0xb0
 80028b0:	e616      	b.n	80024e0 <_vfprintf_r+0x648>
 80028b2:	aa1f      	add	r2, sp, #124	; 0x7c
 80028b4:	4641      	mov	r1, r8
 80028b6:	4658      	mov	r0, fp
 80028b8:	f002 fdc9 	bl	800544e <__sprint_r>
 80028bc:	2800      	cmp	r0, #0
 80028be:	f040 82a6 	bne.w	8002e0e <_vfprintf_r+0xf76>
 80028c2:	ac2c      	add	r4, sp, #176	; 0xb0
 80028c4:	e61e      	b.n	8002504 <_vfprintf_r+0x66c>
 80028c6:	aa1f      	add	r2, sp, #124	; 0x7c
 80028c8:	4641      	mov	r1, r8
 80028ca:	4658      	mov	r0, fp
 80028cc:	f002 fdbf 	bl	800544e <__sprint_r>
 80028d0:	2800      	cmp	r0, #0
 80028d2:	f040 829c 	bne.w	8002e0e <_vfprintf_r+0xf76>
 80028d6:	ac2c      	add	r4, sp, #176	; 0xb0
 80028d8:	e624      	b.n	8002524 <_vfprintf_r+0x68c>
 80028da:	2210      	movs	r2, #16
 80028dc:	6062      	str	r2, [r4, #4]
 80028de:	9a21      	ldr	r2, [sp, #132]	; 0x84
 80028e0:	3210      	adds	r2, #16
 80028e2:	9221      	str	r2, [sp, #132]	; 0x84
 80028e4:	9a20      	ldr	r2, [sp, #128]	; 0x80
 80028e6:	3201      	adds	r2, #1
 80028e8:	2a07      	cmp	r2, #7
 80028ea:	9220      	str	r2, [sp, #128]	; 0x80
 80028ec:	dc02      	bgt.n	80028f4 <_vfprintf_r+0xa5c>
 80028ee:	3408      	adds	r4, #8
 80028f0:	3f10      	subs	r7, #16
 80028f2:	e620      	b.n	8002536 <_vfprintf_r+0x69e>
 80028f4:	aa1f      	add	r2, sp, #124	; 0x7c
 80028f6:	4641      	mov	r1, r8
 80028f8:	4658      	mov	r0, fp
 80028fa:	9314      	str	r3, [sp, #80]	; 0x50
 80028fc:	f002 fda7 	bl	800544e <__sprint_r>
 8002900:	2800      	cmp	r0, #0
 8002902:	f040 8284 	bne.w	8002e0e <_vfprintf_r+0xf76>
 8002906:	ac2c      	add	r4, sp, #176	; 0xb0
 8002908:	9b14      	ldr	r3, [sp, #80]	; 0x50
 800290a:	e7f1      	b.n	80028f0 <_vfprintf_r+0xa58>
 800290c:	aa1f      	add	r2, sp, #124	; 0x7c
 800290e:	4641      	mov	r1, r8
 8002910:	4658      	mov	r0, fp
 8002912:	f002 fd9c 	bl	800544e <__sprint_r>
 8002916:	2800      	cmp	r0, #0
 8002918:	f040 8279 	bne.w	8002e0e <_vfprintf_r+0xf76>
 800291c:	ac2c      	add	r4, sp, #176	; 0xb0
 800291e:	e619      	b.n	8002554 <_vfprintf_r+0x6bc>
 8002920:	2310      	movs	r3, #16
 8002922:	6063      	str	r3, [r4, #4]
 8002924:	9b21      	ldr	r3, [sp, #132]	; 0x84
 8002926:	3310      	adds	r3, #16
 8002928:	9321      	str	r3, [sp, #132]	; 0x84
 800292a:	9b20      	ldr	r3, [sp, #128]	; 0x80
 800292c:	3301      	adds	r3, #1
 800292e:	2b07      	cmp	r3, #7
 8002930:	9320      	str	r3, [sp, #128]	; 0x80
 8002932:	dc02      	bgt.n	800293a <_vfprintf_r+0xaa2>
 8002934:	3408      	adds	r4, #8
 8002936:	3e10      	subs	r6, #16
 8002938:	e611      	b.n	800255e <_vfprintf_r+0x6c6>
 800293a:	aa1f      	add	r2, sp, #124	; 0x7c
 800293c:	4641      	mov	r1, r8
 800293e:	4658      	mov	r0, fp
 8002940:	f002 fd85 	bl	800544e <__sprint_r>
 8002944:	2800      	cmp	r0, #0
 8002946:	f040 8262 	bne.w	8002e0e <_vfprintf_r+0xf76>
 800294a:	ac2c      	add	r4, sp, #176	; 0xb0
 800294c:	e7f3      	b.n	8002936 <_vfprintf_r+0xa9e>
 800294e:	aa1f      	add	r2, sp, #124	; 0x7c
 8002950:	4641      	mov	r1, r8
 8002952:	4658      	mov	r0, fp
 8002954:	f002 fd7b 	bl	800544e <__sprint_r>
 8002958:	2800      	cmp	r0, #0
 800295a:	f040 8258 	bne.w	8002e0e <_vfprintf_r+0xf76>
 800295e:	ac2c      	add	r4, sp, #176	; 0xb0
 8002960:	e60c      	b.n	800257c <_vfprintf_r+0x6e4>
 8002962:	9b02      	ldr	r3, [sp, #8]
 8002964:	2b65      	cmp	r3, #101	; 0x65
 8002966:	f340 81ad 	ble.w	8002cc4 <_vfprintf_r+0xe2c>
 800296a:	2200      	movs	r2, #0
 800296c:	2300      	movs	r3, #0
 800296e:	e9dd 0106 	ldrd	r0, r1, [sp, #24]
 8002972:	f7fe f8ad 	bl	8000ad0 <__aeabi_dcmpeq>
 8002976:	2800      	cmp	r0, #0
 8002978:	d062      	beq.n	8002a40 <_vfprintf_r+0xba8>
 800297a:	4b2f      	ldr	r3, [pc, #188]	; (8002a38 <_vfprintf_r+0xba0>)
 800297c:	6023      	str	r3, [r4, #0]
 800297e:	2301      	movs	r3, #1
 8002980:	6063      	str	r3, [r4, #4]
 8002982:	9b21      	ldr	r3, [sp, #132]	; 0x84
 8002984:	3301      	adds	r3, #1
 8002986:	9321      	str	r3, [sp, #132]	; 0x84
 8002988:	9b20      	ldr	r3, [sp, #128]	; 0x80
 800298a:	3301      	adds	r3, #1
 800298c:	2b07      	cmp	r3, #7
 800298e:	9320      	str	r3, [sp, #128]	; 0x80
 8002990:	dc25      	bgt.n	80029de <_vfprintf_r+0xb46>
 8002992:	3408      	adds	r4, #8
 8002994:	9b19      	ldr	r3, [sp, #100]	; 0x64
 8002996:	9a03      	ldr	r2, [sp, #12]
 8002998:	4293      	cmp	r3, r2
 800299a:	db02      	blt.n	80029a2 <_vfprintf_r+0xb0a>
 800299c:	07ea      	lsls	r2, r5, #31
 800299e:	f57f ae04 	bpl.w	80025aa <_vfprintf_r+0x712>
 80029a2:	9b0d      	ldr	r3, [sp, #52]	; 0x34
 80029a4:	6023      	str	r3, [r4, #0]
 80029a6:	9b09      	ldr	r3, [sp, #36]	; 0x24
 80029a8:	6063      	str	r3, [r4, #4]
 80029aa:	9a09      	ldr	r2, [sp, #36]	; 0x24
 80029ac:	9b21      	ldr	r3, [sp, #132]	; 0x84
 80029ae:	4413      	add	r3, r2
 80029b0:	9321      	str	r3, [sp, #132]	; 0x84
 80029b2:	9b20      	ldr	r3, [sp, #128]	; 0x80
 80029b4:	3301      	adds	r3, #1
 80029b6:	2b07      	cmp	r3, #7
 80029b8:	9320      	str	r3, [sp, #128]	; 0x80
 80029ba:	dc1a      	bgt.n	80029f2 <_vfprintf_r+0xb5a>
 80029bc:	3408      	adds	r4, #8
 80029be:	9b03      	ldr	r3, [sp, #12]
 80029c0:	1e5e      	subs	r6, r3, #1
 80029c2:	2e00      	cmp	r6, #0
 80029c4:	f77f adf1 	ble.w	80025aa <_vfprintf_r+0x712>
 80029c8:	4f1c      	ldr	r7, [pc, #112]	; (8002a3c <_vfprintf_r+0xba4>)
 80029ca:	f04f 0910 	mov.w	r9, #16
 80029ce:	2e10      	cmp	r6, #16
 80029d0:	6027      	str	r7, [r4, #0]
 80029d2:	dc18      	bgt.n	8002a06 <_vfprintf_r+0xb6e>
 80029d4:	6066      	str	r6, [r4, #4]
 80029d6:	9b21      	ldr	r3, [sp, #132]	; 0x84
 80029d8:	441e      	add	r6, r3
 80029da:	9621      	str	r6, [sp, #132]	; 0x84
 80029dc:	e5d6      	b.n	800258c <_vfprintf_r+0x6f4>
 80029de:	aa1f      	add	r2, sp, #124	; 0x7c
 80029e0:	4641      	mov	r1, r8
 80029e2:	4658      	mov	r0, fp
 80029e4:	f002 fd33 	bl	800544e <__sprint_r>
 80029e8:	2800      	cmp	r0, #0
 80029ea:	f040 8210 	bne.w	8002e0e <_vfprintf_r+0xf76>
 80029ee:	ac2c      	add	r4, sp, #176	; 0xb0
 80029f0:	e7d0      	b.n	8002994 <_vfprintf_r+0xafc>
 80029f2:	aa1f      	add	r2, sp, #124	; 0x7c
 80029f4:	4641      	mov	r1, r8
 80029f6:	4658      	mov	r0, fp
 80029f8:	f002 fd29 	bl	800544e <__sprint_r>
 80029fc:	2800      	cmp	r0, #0
 80029fe:	f040 8206 	bne.w	8002e0e <_vfprintf_r+0xf76>
 8002a02:	ac2c      	add	r4, sp, #176	; 0xb0
 8002a04:	e7db      	b.n	80029be <_vfprintf_r+0xb26>
 8002a06:	9b21      	ldr	r3, [sp, #132]	; 0x84
 8002a08:	f8c4 9004 	str.w	r9, [r4, #4]
 8002a0c:	3310      	adds	r3, #16
 8002a0e:	9321      	str	r3, [sp, #132]	; 0x84
 8002a10:	9b20      	ldr	r3, [sp, #128]	; 0x80
 8002a12:	3301      	adds	r3, #1
 8002a14:	2b07      	cmp	r3, #7
 8002a16:	9320      	str	r3, [sp, #128]	; 0x80
 8002a18:	dc02      	bgt.n	8002a20 <_vfprintf_r+0xb88>
 8002a1a:	3408      	adds	r4, #8
 8002a1c:	3e10      	subs	r6, #16
 8002a1e:	e7d6      	b.n	80029ce <_vfprintf_r+0xb36>
 8002a20:	aa1f      	add	r2, sp, #124	; 0x7c
 8002a22:	4641      	mov	r1, r8
 8002a24:	4658      	mov	r0, fp
 8002a26:	f002 fd12 	bl	800544e <__sprint_r>
 8002a2a:	2800      	cmp	r0, #0
 8002a2c:	f040 81ef 	bne.w	8002e0e <_vfprintf_r+0xf76>
 8002a30:	ac2c      	add	r4, sp, #176	; 0xb0
 8002a32:	e7f3      	b.n	8002a1c <_vfprintf_r+0xb84>
 8002a34:	08005963 	.word	0x08005963
 8002a38:	08005974 	.word	0x08005974
 8002a3c:	08005986 	.word	0x08005986
 8002a40:	9b19      	ldr	r3, [sp, #100]	; 0x64
 8002a42:	2b00      	cmp	r3, #0
 8002a44:	dc7a      	bgt.n	8002b3c <_vfprintf_r+0xca4>
 8002a46:	4b9d      	ldr	r3, [pc, #628]	; (8002cbc <_vfprintf_r+0xe24>)
 8002a48:	6023      	str	r3, [r4, #0]
 8002a4a:	2301      	movs	r3, #1
 8002a4c:	6063      	str	r3, [r4, #4]
 8002a4e:	9b21      	ldr	r3, [sp, #132]	; 0x84
 8002a50:	3301      	adds	r3, #1
 8002a52:	9321      	str	r3, [sp, #132]	; 0x84
 8002a54:	9b20      	ldr	r3, [sp, #128]	; 0x80
 8002a56:	3301      	adds	r3, #1
 8002a58:	2b07      	cmp	r3, #7
 8002a5a:	9320      	str	r3, [sp, #128]	; 0x80
 8002a5c:	dc44      	bgt.n	8002ae8 <_vfprintf_r+0xc50>
 8002a5e:	3408      	adds	r4, #8
 8002a60:	9b19      	ldr	r3, [sp, #100]	; 0x64
 8002a62:	b923      	cbnz	r3, 8002a6e <_vfprintf_r+0xbd6>
 8002a64:	9b03      	ldr	r3, [sp, #12]
 8002a66:	b913      	cbnz	r3, 8002a6e <_vfprintf_r+0xbd6>
 8002a68:	07eb      	lsls	r3, r5, #31
 8002a6a:	f57f ad9e 	bpl.w	80025aa <_vfprintf_r+0x712>
 8002a6e:	9b0d      	ldr	r3, [sp, #52]	; 0x34
 8002a70:	6023      	str	r3, [r4, #0]
 8002a72:	9b09      	ldr	r3, [sp, #36]	; 0x24
 8002a74:	6063      	str	r3, [r4, #4]
 8002a76:	9a09      	ldr	r2, [sp, #36]	; 0x24
 8002a78:	9b21      	ldr	r3, [sp, #132]	; 0x84
 8002a7a:	4413      	add	r3, r2
 8002a7c:	9321      	str	r3, [sp, #132]	; 0x84
 8002a7e:	9b20      	ldr	r3, [sp, #128]	; 0x80
 8002a80:	3301      	adds	r3, #1
 8002a82:	2b07      	cmp	r3, #7
 8002a84:	9320      	str	r3, [sp, #128]	; 0x80
 8002a86:	dc39      	bgt.n	8002afc <_vfprintf_r+0xc64>
 8002a88:	f104 0308 	add.w	r3, r4, #8
 8002a8c:	9e19      	ldr	r6, [sp, #100]	; 0x64
 8002a8e:	2e00      	cmp	r6, #0
 8002a90:	da19      	bge.n	8002ac6 <_vfprintf_r+0xc2e>
 8002a92:	4f8b      	ldr	r7, [pc, #556]	; (8002cc0 <_vfprintf_r+0xe28>)
 8002a94:	4276      	negs	r6, r6
 8002a96:	2410      	movs	r4, #16
 8002a98:	2e10      	cmp	r6, #16
 8002a9a:	601f      	str	r7, [r3, #0]
 8002a9c:	dc38      	bgt.n	8002b10 <_vfprintf_r+0xc78>
 8002a9e:	9a21      	ldr	r2, [sp, #132]	; 0x84
 8002aa0:	605e      	str	r6, [r3, #4]
 8002aa2:	4416      	add	r6, r2
 8002aa4:	9a20      	ldr	r2, [sp, #128]	; 0x80
 8002aa6:	9621      	str	r6, [sp, #132]	; 0x84
 8002aa8:	3201      	adds	r2, #1
 8002aaa:	2a07      	cmp	r2, #7
 8002aac:	f103 0308 	add.w	r3, r3, #8
 8002ab0:	9220      	str	r2, [sp, #128]	; 0x80
 8002ab2:	dd08      	ble.n	8002ac6 <_vfprintf_r+0xc2e>
 8002ab4:	aa1f      	add	r2, sp, #124	; 0x7c
 8002ab6:	4641      	mov	r1, r8
 8002ab8:	4658      	mov	r0, fp
 8002aba:	f002 fcc8 	bl	800544e <__sprint_r>
 8002abe:	2800      	cmp	r0, #0
 8002ac0:	f040 81a5 	bne.w	8002e0e <_vfprintf_r+0xf76>
 8002ac4:	ab2c      	add	r3, sp, #176	; 0xb0
 8002ac6:	9a03      	ldr	r2, [sp, #12]
 8002ac8:	605a      	str	r2, [r3, #4]
 8002aca:	9903      	ldr	r1, [sp, #12]
 8002acc:	9a21      	ldr	r2, [sp, #132]	; 0x84
 8002ace:	f8c3 9000 	str.w	r9, [r3]
 8002ad2:	440a      	add	r2, r1
 8002ad4:	9221      	str	r2, [sp, #132]	; 0x84
 8002ad6:	9a20      	ldr	r2, [sp, #128]	; 0x80
 8002ad8:	3201      	adds	r2, #1
 8002ada:	2a07      	cmp	r2, #7
 8002adc:	9220      	str	r2, [sp, #128]	; 0x80
 8002ade:	f73f ad5b 	bgt.w	8002598 <_vfprintf_r+0x700>
 8002ae2:	f103 0408 	add.w	r4, r3, #8
 8002ae6:	e560      	b.n	80025aa <_vfprintf_r+0x712>
 8002ae8:	aa1f      	add	r2, sp, #124	; 0x7c
 8002aea:	4641      	mov	r1, r8
 8002aec:	4658      	mov	r0, fp
 8002aee:	f002 fcae 	bl	800544e <__sprint_r>
 8002af2:	2800      	cmp	r0, #0
 8002af4:	f040 818b 	bne.w	8002e0e <_vfprintf_r+0xf76>
 8002af8:	ac2c      	add	r4, sp, #176	; 0xb0
 8002afa:	e7b1      	b.n	8002a60 <_vfprintf_r+0xbc8>
 8002afc:	aa1f      	add	r2, sp, #124	; 0x7c
 8002afe:	4641      	mov	r1, r8
 8002b00:	4658      	mov	r0, fp
 8002b02:	f002 fca4 	bl	800544e <__sprint_r>
 8002b06:	2800      	cmp	r0, #0
 8002b08:	f040 8181 	bne.w	8002e0e <_vfprintf_r+0xf76>
 8002b0c:	ab2c      	add	r3, sp, #176	; 0xb0
 8002b0e:	e7bd      	b.n	8002a8c <_vfprintf_r+0xbf4>
 8002b10:	9a21      	ldr	r2, [sp, #132]	; 0x84
 8002b12:	605c      	str	r4, [r3, #4]
 8002b14:	3210      	adds	r2, #16
 8002b16:	9221      	str	r2, [sp, #132]	; 0x84
 8002b18:	9a20      	ldr	r2, [sp, #128]	; 0x80
 8002b1a:	3201      	adds	r2, #1
 8002b1c:	2a07      	cmp	r2, #7
 8002b1e:	9220      	str	r2, [sp, #128]	; 0x80
 8002b20:	dc02      	bgt.n	8002b28 <_vfprintf_r+0xc90>
 8002b22:	3308      	adds	r3, #8
 8002b24:	3e10      	subs	r6, #16
 8002b26:	e7b7      	b.n	8002a98 <_vfprintf_r+0xc00>
 8002b28:	aa1f      	add	r2, sp, #124	; 0x7c
 8002b2a:	4641      	mov	r1, r8
 8002b2c:	4658      	mov	r0, fp
 8002b2e:	f002 fc8e 	bl	800544e <__sprint_r>
 8002b32:	2800      	cmp	r0, #0
 8002b34:	f040 816b 	bne.w	8002e0e <_vfprintf_r+0xf76>
 8002b38:	ab2c      	add	r3, sp, #176	; 0xb0
 8002b3a:	e7f3      	b.n	8002b24 <_vfprintf_r+0xc8c>
 8002b3c:	9b08      	ldr	r3, [sp, #32]
 8002b3e:	9a03      	ldr	r2, [sp, #12]
 8002b40:	4293      	cmp	r3, r2
 8002b42:	bfa8      	it	ge
 8002b44:	4613      	movge	r3, r2
 8002b46:	2b00      	cmp	r3, #0
 8002b48:	461e      	mov	r6, r3
 8002b4a:	dd0b      	ble.n	8002b64 <_vfprintf_r+0xccc>
 8002b4c:	6063      	str	r3, [r4, #4]
 8002b4e:	9b21      	ldr	r3, [sp, #132]	; 0x84
 8002b50:	f8c4 9000 	str.w	r9, [r4]
 8002b54:	4433      	add	r3, r6
 8002b56:	9321      	str	r3, [sp, #132]	; 0x84
 8002b58:	9b20      	ldr	r3, [sp, #128]	; 0x80
 8002b5a:	3301      	adds	r3, #1
 8002b5c:	2b07      	cmp	r3, #7
 8002b5e:	9320      	str	r3, [sp, #128]	; 0x80
 8002b60:	dc62      	bgt.n	8002c28 <_vfprintf_r+0xd90>
 8002b62:	3408      	adds	r4, #8
 8002b64:	9b08      	ldr	r3, [sp, #32]
 8002b66:	2e00      	cmp	r6, #0
 8002b68:	bfa8      	it	ge
 8002b6a:	1b9b      	subge	r3, r3, r6
 8002b6c:	2b00      	cmp	r3, #0
 8002b6e:	461e      	mov	r6, r3
 8002b70:	dd0f      	ble.n	8002b92 <_vfprintf_r+0xcfa>
 8002b72:	4f53      	ldr	r7, [pc, #332]	; (8002cc0 <_vfprintf_r+0xe28>)
 8002b74:	f04f 0a10 	mov.w	sl, #16
 8002b78:	2e10      	cmp	r6, #16
 8002b7a:	6027      	str	r7, [r4, #0]
 8002b7c:	dc5e      	bgt.n	8002c3c <_vfprintf_r+0xda4>
 8002b7e:	9b21      	ldr	r3, [sp, #132]	; 0x84
 8002b80:	6066      	str	r6, [r4, #4]
 8002b82:	441e      	add	r6, r3
 8002b84:	9b20      	ldr	r3, [sp, #128]	; 0x80
 8002b86:	9621      	str	r6, [sp, #132]	; 0x84
 8002b88:	3301      	adds	r3, #1
 8002b8a:	2b07      	cmp	r3, #7
 8002b8c:	9320      	str	r3, [sp, #128]	; 0x80
 8002b8e:	dc6c      	bgt.n	8002c6a <_vfprintf_r+0xdd2>
 8002b90:	3408      	adds	r4, #8
 8002b92:	9b19      	ldr	r3, [sp, #100]	; 0x64
 8002b94:	9a03      	ldr	r2, [sp, #12]
 8002b96:	4293      	cmp	r3, r2
 8002b98:	db01      	blt.n	8002b9e <_vfprintf_r+0xd06>
 8002b9a:	07ef      	lsls	r7, r5, #31
 8002b9c:	d50d      	bpl.n	8002bba <_vfprintf_r+0xd22>
 8002b9e:	9b0d      	ldr	r3, [sp, #52]	; 0x34
 8002ba0:	6023      	str	r3, [r4, #0]
 8002ba2:	9b09      	ldr	r3, [sp, #36]	; 0x24
 8002ba4:	6063      	str	r3, [r4, #4]
 8002ba6:	9a09      	ldr	r2, [sp, #36]	; 0x24
 8002ba8:	9b21      	ldr	r3, [sp, #132]	; 0x84
 8002baa:	4413      	add	r3, r2
 8002bac:	9321      	str	r3, [sp, #132]	; 0x84
 8002bae:	9b20      	ldr	r3, [sp, #128]	; 0x80
 8002bb0:	3301      	adds	r3, #1
 8002bb2:	2b07      	cmp	r3, #7
 8002bb4:	9320      	str	r3, [sp, #128]	; 0x80
 8002bb6:	dc62      	bgt.n	8002c7e <_vfprintf_r+0xde6>
 8002bb8:	3408      	adds	r4, #8
 8002bba:	9b03      	ldr	r3, [sp, #12]
 8002bbc:	9a08      	ldr	r2, [sp, #32]
 8002bbe:	1a9e      	subs	r6, r3, r2
 8002bc0:	9b19      	ldr	r3, [sp, #100]	; 0x64
 8002bc2:	9a03      	ldr	r2, [sp, #12]
 8002bc4:	1ad3      	subs	r3, r2, r3
 8002bc6:	429e      	cmp	r6, r3
 8002bc8:	bfa8      	it	ge
 8002bca:	461e      	movge	r6, r3
 8002bcc:	2e00      	cmp	r6, #0
 8002bce:	dd0c      	ble.n	8002bea <_vfprintf_r+0xd52>
 8002bd0:	9b08      	ldr	r3, [sp, #32]
 8002bd2:	444b      	add	r3, r9
 8002bd4:	e884 0048 	stmia.w	r4, {r3, r6}
 8002bd8:	9b21      	ldr	r3, [sp, #132]	; 0x84
 8002bda:	4433      	add	r3, r6
 8002bdc:	9321      	str	r3, [sp, #132]	; 0x84
 8002bde:	9b20      	ldr	r3, [sp, #128]	; 0x80
 8002be0:	3301      	adds	r3, #1
 8002be2:	2b07      	cmp	r3, #7
 8002be4:	9320      	str	r3, [sp, #128]	; 0x80
 8002be6:	dc54      	bgt.n	8002c92 <_vfprintf_r+0xdfa>
 8002be8:	3408      	adds	r4, #8
 8002bea:	9b19      	ldr	r3, [sp, #100]	; 0x64
 8002bec:	9a03      	ldr	r2, [sp, #12]
 8002bee:	2e00      	cmp	r6, #0
 8002bf0:	eba2 0303 	sub.w	r3, r2, r3
 8002bf4:	bfac      	ite	ge
 8002bf6:	1b9e      	subge	r6, r3, r6
 8002bf8:	461e      	movlt	r6, r3
 8002bfa:	2e00      	cmp	r6, #0
 8002bfc:	f77f acd5 	ble.w	80025aa <_vfprintf_r+0x712>
 8002c00:	4f2f      	ldr	r7, [pc, #188]	; (8002cc0 <_vfprintf_r+0xe28>)
 8002c02:	f04f 0910 	mov.w	r9, #16
 8002c06:	2e10      	cmp	r6, #16
 8002c08:	6027      	str	r7, [r4, #0]
 8002c0a:	f77f aee3 	ble.w	80029d4 <_vfprintf_r+0xb3c>
 8002c0e:	9b21      	ldr	r3, [sp, #132]	; 0x84
 8002c10:	f8c4 9004 	str.w	r9, [r4, #4]
 8002c14:	3310      	adds	r3, #16
 8002c16:	9321      	str	r3, [sp, #132]	; 0x84
 8002c18:	9b20      	ldr	r3, [sp, #128]	; 0x80
 8002c1a:	3301      	adds	r3, #1
 8002c1c:	2b07      	cmp	r3, #7
 8002c1e:	9320      	str	r3, [sp, #128]	; 0x80
 8002c20:	dc41      	bgt.n	8002ca6 <_vfprintf_r+0xe0e>
 8002c22:	3408      	adds	r4, #8
 8002c24:	3e10      	subs	r6, #16
 8002c26:	e7ee      	b.n	8002c06 <_vfprintf_r+0xd6e>
 8002c28:	aa1f      	add	r2, sp, #124	; 0x7c
 8002c2a:	4641      	mov	r1, r8
 8002c2c:	4658      	mov	r0, fp
 8002c2e:	f002 fc0e 	bl	800544e <__sprint_r>
 8002c32:	2800      	cmp	r0, #0
 8002c34:	f040 80eb 	bne.w	8002e0e <_vfprintf_r+0xf76>
 8002c38:	ac2c      	add	r4, sp, #176	; 0xb0
 8002c3a:	e793      	b.n	8002b64 <_vfprintf_r+0xccc>
 8002c3c:	9b21      	ldr	r3, [sp, #132]	; 0x84
 8002c3e:	f8c4 a004 	str.w	sl, [r4, #4]
 8002c42:	3310      	adds	r3, #16
 8002c44:	9321      	str	r3, [sp, #132]	; 0x84
 8002c46:	9b20      	ldr	r3, [sp, #128]	; 0x80
 8002c48:	3301      	adds	r3, #1
 8002c4a:	2b07      	cmp	r3, #7
 8002c4c:	9320      	str	r3, [sp, #128]	; 0x80
 8002c4e:	dc02      	bgt.n	8002c56 <_vfprintf_r+0xdbe>
 8002c50:	3408      	adds	r4, #8
 8002c52:	3e10      	subs	r6, #16
 8002c54:	e790      	b.n	8002b78 <_vfprintf_r+0xce0>
 8002c56:	aa1f      	add	r2, sp, #124	; 0x7c
 8002c58:	4641      	mov	r1, r8
 8002c5a:	4658      	mov	r0, fp
 8002c5c:	f002 fbf7 	bl	800544e <__sprint_r>
 8002c60:	2800      	cmp	r0, #0
 8002c62:	f040 80d4 	bne.w	8002e0e <_vfprintf_r+0xf76>
 8002c66:	ac2c      	add	r4, sp, #176	; 0xb0
 8002c68:	e7f3      	b.n	8002c52 <_vfprintf_r+0xdba>
 8002c6a:	aa1f      	add	r2, sp, #124	; 0x7c
 8002c6c:	4641      	mov	r1, r8
 8002c6e:	4658      	mov	r0, fp
 8002c70:	f002 fbed 	bl	800544e <__sprint_r>
 8002c74:	2800      	cmp	r0, #0
 8002c76:	f040 80ca 	bne.w	8002e0e <_vfprintf_r+0xf76>
 8002c7a:	ac2c      	add	r4, sp, #176	; 0xb0
 8002c7c:	e789      	b.n	8002b92 <_vfprintf_r+0xcfa>
 8002c7e:	aa1f      	add	r2, sp, #124	; 0x7c
 8002c80:	4641      	mov	r1, r8
 8002c82:	4658      	mov	r0, fp
 8002c84:	f002 fbe3 	bl	800544e <__sprint_r>
 8002c88:	2800      	cmp	r0, #0
 8002c8a:	f040 80c0 	bne.w	8002e0e <_vfprintf_r+0xf76>
 8002c8e:	ac2c      	add	r4, sp, #176	; 0xb0
 8002c90:	e793      	b.n	8002bba <_vfprintf_r+0xd22>
 8002c92:	aa1f      	add	r2, sp, #124	; 0x7c
 8002c94:	4641      	mov	r1, r8
 8002c96:	4658      	mov	r0, fp
 8002c98:	f002 fbd9 	bl	800544e <__sprint_r>
 8002c9c:	2800      	cmp	r0, #0
 8002c9e:	f040 80b6 	bne.w	8002e0e <_vfprintf_r+0xf76>
 8002ca2:	ac2c      	add	r4, sp, #176	; 0xb0
 8002ca4:	e7a1      	b.n	8002bea <_vfprintf_r+0xd52>
 8002ca6:	aa1f      	add	r2, sp, #124	; 0x7c
 8002ca8:	4641      	mov	r1, r8
 8002caa:	4658      	mov	r0, fp
 8002cac:	f002 fbcf 	bl	800544e <__sprint_r>
 8002cb0:	2800      	cmp	r0, #0
 8002cb2:	f040 80ac 	bne.w	8002e0e <_vfprintf_r+0xf76>
 8002cb6:	ac2c      	add	r4, sp, #176	; 0xb0
 8002cb8:	e7b4      	b.n	8002c24 <_vfprintf_r+0xd8c>
 8002cba:	bf00      	nop
 8002cbc:	08005974 	.word	0x08005974
 8002cc0:	08005986 	.word	0x08005986
 8002cc4:	9b03      	ldr	r3, [sp, #12]
 8002cc6:	2b01      	cmp	r3, #1
 8002cc8:	dc01      	bgt.n	8002cce <_vfprintf_r+0xe36>
 8002cca:	07ee      	lsls	r6, r5, #31
 8002ccc:	d576      	bpl.n	8002dbc <_vfprintf_r+0xf24>
 8002cce:	2301      	movs	r3, #1
 8002cd0:	6063      	str	r3, [r4, #4]
 8002cd2:	9b21      	ldr	r3, [sp, #132]	; 0x84
 8002cd4:	f8c4 9000 	str.w	r9, [r4]
 8002cd8:	3301      	adds	r3, #1
 8002cda:	9321      	str	r3, [sp, #132]	; 0x84
 8002cdc:	9b20      	ldr	r3, [sp, #128]	; 0x80
 8002cde:	3301      	adds	r3, #1
 8002ce0:	2b07      	cmp	r3, #7
 8002ce2:	9320      	str	r3, [sp, #128]	; 0x80
 8002ce4:	dc36      	bgt.n	8002d54 <_vfprintf_r+0xebc>
 8002ce6:	3408      	adds	r4, #8
 8002ce8:	9b0d      	ldr	r3, [sp, #52]	; 0x34
 8002cea:	6023      	str	r3, [r4, #0]
 8002cec:	9b09      	ldr	r3, [sp, #36]	; 0x24
 8002cee:	6063      	str	r3, [r4, #4]
 8002cf0:	9a09      	ldr	r2, [sp, #36]	; 0x24
 8002cf2:	9b21      	ldr	r3, [sp, #132]	; 0x84
 8002cf4:	4413      	add	r3, r2
 8002cf6:	9321      	str	r3, [sp, #132]	; 0x84
 8002cf8:	9b20      	ldr	r3, [sp, #128]	; 0x80
 8002cfa:	3301      	adds	r3, #1
 8002cfc:	2b07      	cmp	r3, #7
 8002cfe:	9320      	str	r3, [sp, #128]	; 0x80
 8002d00:	dc31      	bgt.n	8002d66 <_vfprintf_r+0xece>
 8002d02:	3408      	adds	r4, #8
 8002d04:	2300      	movs	r3, #0
 8002d06:	2200      	movs	r2, #0
 8002d08:	e9dd 0106 	ldrd	r0, r1, [sp, #24]
 8002d0c:	f7fd fee0 	bl	8000ad0 <__aeabi_dcmpeq>
 8002d10:	9b03      	ldr	r3, [sp, #12]
 8002d12:	1e5e      	subs	r6, r3, #1
 8002d14:	2800      	cmp	r0, #0
 8002d16:	d12f      	bne.n	8002d78 <_vfprintf_r+0xee0>
 8002d18:	f109 0301 	add.w	r3, r9, #1
 8002d1c:	e884 0048 	stmia.w	r4, {r3, r6}
 8002d20:	9b21      	ldr	r3, [sp, #132]	; 0x84
 8002d22:	9a03      	ldr	r2, [sp, #12]
 8002d24:	3b01      	subs	r3, #1
 8002d26:	4413      	add	r3, r2
 8002d28:	9321      	str	r3, [sp, #132]	; 0x84
 8002d2a:	9b20      	ldr	r3, [sp, #128]	; 0x80
 8002d2c:	3301      	adds	r3, #1
 8002d2e:	2b07      	cmp	r3, #7
 8002d30:	9320      	str	r3, [sp, #128]	; 0x80
 8002d32:	dd4a      	ble.n	8002dca <_vfprintf_r+0xf32>
 8002d34:	aa1f      	add	r2, sp, #124	; 0x7c
 8002d36:	4641      	mov	r1, r8
 8002d38:	4658      	mov	r0, fp
 8002d3a:	f002 fb88 	bl	800544e <__sprint_r>
 8002d3e:	2800      	cmp	r0, #0
 8002d40:	d165      	bne.n	8002e0e <_vfprintf_r+0xf76>
 8002d42:	ac2c      	add	r4, sp, #176	; 0xb0
 8002d44:	ab1b      	add	r3, sp, #108	; 0x6c
 8002d46:	6023      	str	r3, [r4, #0]
 8002d48:	9b10      	ldr	r3, [sp, #64]	; 0x40
 8002d4a:	6063      	str	r3, [r4, #4]
 8002d4c:	9a10      	ldr	r2, [sp, #64]	; 0x40
 8002d4e:	9b21      	ldr	r3, [sp, #132]	; 0x84
 8002d50:	4413      	add	r3, r2
 8002d52:	e41a      	b.n	800258a <_vfprintf_r+0x6f2>
 8002d54:	aa1f      	add	r2, sp, #124	; 0x7c
 8002d56:	4641      	mov	r1, r8
 8002d58:	4658      	mov	r0, fp
 8002d5a:	f002 fb78 	bl	800544e <__sprint_r>
 8002d5e:	2800      	cmp	r0, #0
 8002d60:	d155      	bne.n	8002e0e <_vfprintf_r+0xf76>
 8002d62:	ac2c      	add	r4, sp, #176	; 0xb0
 8002d64:	e7c0      	b.n	8002ce8 <_vfprintf_r+0xe50>
 8002d66:	aa1f      	add	r2, sp, #124	; 0x7c
 8002d68:	4641      	mov	r1, r8
 8002d6a:	4658      	mov	r0, fp
 8002d6c:	f002 fb6f 	bl	800544e <__sprint_r>
 8002d70:	2800      	cmp	r0, #0
 8002d72:	d14c      	bne.n	8002e0e <_vfprintf_r+0xf76>
 8002d74:	ac2c      	add	r4, sp, #176	; 0xb0
 8002d76:	e7c5      	b.n	8002d04 <_vfprintf_r+0xe6c>
 8002d78:	2e00      	cmp	r6, #0
 8002d7a:	dde3      	ble.n	8002d44 <_vfprintf_r+0xeac>
 8002d7c:	4f60      	ldr	r7, [pc, #384]	; (8002f00 <_vfprintf_r+0x1068>)
 8002d7e:	f04f 0910 	mov.w	r9, #16
 8002d82:	2e10      	cmp	r6, #16
 8002d84:	6027      	str	r7, [r4, #0]
 8002d86:	dc04      	bgt.n	8002d92 <_vfprintf_r+0xefa>
 8002d88:	9b21      	ldr	r3, [sp, #132]	; 0x84
 8002d8a:	6066      	str	r6, [r4, #4]
 8002d8c:	441e      	add	r6, r3
 8002d8e:	9621      	str	r6, [sp, #132]	; 0x84
 8002d90:	e7cb      	b.n	8002d2a <_vfprintf_r+0xe92>
 8002d92:	9b21      	ldr	r3, [sp, #132]	; 0x84
 8002d94:	f8c4 9004 	str.w	r9, [r4, #4]
 8002d98:	3310      	adds	r3, #16
 8002d9a:	9321      	str	r3, [sp, #132]	; 0x84
 8002d9c:	9b20      	ldr	r3, [sp, #128]	; 0x80
 8002d9e:	3301      	adds	r3, #1
 8002da0:	2b07      	cmp	r3, #7
 8002da2:	9320      	str	r3, [sp, #128]	; 0x80
 8002da4:	dc02      	bgt.n	8002dac <_vfprintf_r+0xf14>
 8002da6:	3408      	adds	r4, #8
 8002da8:	3e10      	subs	r6, #16
 8002daa:	e7ea      	b.n	8002d82 <_vfprintf_r+0xeea>
 8002dac:	aa1f      	add	r2, sp, #124	; 0x7c
 8002dae:	4641      	mov	r1, r8
 8002db0:	4658      	mov	r0, fp
 8002db2:	f002 fb4c 	bl	800544e <__sprint_r>
 8002db6:	bb50      	cbnz	r0, 8002e0e <_vfprintf_r+0xf76>
 8002db8:	ac2c      	add	r4, sp, #176	; 0xb0
 8002dba:	e7f5      	b.n	8002da8 <_vfprintf_r+0xf10>
 8002dbc:	2301      	movs	r3, #1
 8002dbe:	6063      	str	r3, [r4, #4]
 8002dc0:	9b21      	ldr	r3, [sp, #132]	; 0x84
 8002dc2:	f8c4 9000 	str.w	r9, [r4]
 8002dc6:	3301      	adds	r3, #1
 8002dc8:	e7ae      	b.n	8002d28 <_vfprintf_r+0xe90>
 8002dca:	3408      	adds	r4, #8
 8002dcc:	e7ba      	b.n	8002d44 <_vfprintf_r+0xeac>
 8002dce:	3408      	adds	r4, #8
 8002dd0:	f7ff bbeb 	b.w	80025aa <_vfprintf_r+0x712>
 8002dd4:	9b0b      	ldr	r3, [sp, #44]	; 0x2c
 8002dd6:	9a0c      	ldr	r2, [sp, #48]	; 0x30
 8002dd8:	1a9d      	subs	r5, r3, r2
 8002dda:	2d00      	cmp	r5, #0
 8002ddc:	f77f abe8 	ble.w	80025b0 <_vfprintf_r+0x718>
 8002de0:	2610      	movs	r6, #16
 8002de2:	4b48      	ldr	r3, [pc, #288]	; (8002f04 <_vfprintf_r+0x106c>)
 8002de4:	6023      	str	r3, [r4, #0]
 8002de6:	2d10      	cmp	r5, #16
 8002de8:	dc24      	bgt.n	8002e34 <_vfprintf_r+0xf9c>
 8002dea:	9b21      	ldr	r3, [sp, #132]	; 0x84
 8002dec:	6065      	str	r5, [r4, #4]
 8002dee:	441d      	add	r5, r3
 8002df0:	9b20      	ldr	r3, [sp, #128]	; 0x80
 8002df2:	9521      	str	r5, [sp, #132]	; 0x84
 8002df4:	3301      	adds	r3, #1
 8002df6:	2b07      	cmp	r3, #7
 8002df8:	9320      	str	r3, [sp, #128]	; 0x80
 8002dfa:	f77f abd9 	ble.w	80025b0 <_vfprintf_r+0x718>
 8002dfe:	aa1f      	add	r2, sp, #124	; 0x7c
 8002e00:	4641      	mov	r1, r8
 8002e02:	4658      	mov	r0, fp
 8002e04:	f002 fb23 	bl	800544e <__sprint_r>
 8002e08:	2800      	cmp	r0, #0
 8002e0a:	f43f abd1 	beq.w	80025b0 <_vfprintf_r+0x718>
 8002e0e:	f8d8 3064 	ldr.w	r3, [r8, #100]	; 0x64
 8002e12:	07d9      	lsls	r1, r3, #31
 8002e14:	d407      	bmi.n	8002e26 <_vfprintf_r+0xf8e>
 8002e16:	f8b8 300c 	ldrh.w	r3, [r8, #12]
 8002e1a:	059a      	lsls	r2, r3, #22
 8002e1c:	d403      	bmi.n	8002e26 <_vfprintf_r+0xf8e>
 8002e1e:	f8d8 0058 	ldr.w	r0, [r8, #88]	; 0x58
 8002e22:	f001 fbb4 	bl	800458e <__retarget_lock_release_recursive>
 8002e26:	f8b8 300c 	ldrh.w	r3, [r8, #12]
 8002e2a:	065b      	lsls	r3, r3, #25
 8002e2c:	f57f a8af 	bpl.w	8001f8e <_vfprintf_r+0xf6>
 8002e30:	f7ff b882 	b.w	8001f38 <_vfprintf_r+0xa0>
 8002e34:	9b21      	ldr	r3, [sp, #132]	; 0x84
 8002e36:	6066      	str	r6, [r4, #4]
 8002e38:	3310      	adds	r3, #16
 8002e3a:	9321      	str	r3, [sp, #132]	; 0x84
 8002e3c:	9b20      	ldr	r3, [sp, #128]	; 0x80
 8002e3e:	3301      	adds	r3, #1
 8002e40:	2b07      	cmp	r3, #7
 8002e42:	9320      	str	r3, [sp, #128]	; 0x80
 8002e44:	dc02      	bgt.n	8002e4c <_vfprintf_r+0xfb4>
 8002e46:	3408      	adds	r4, #8
 8002e48:	3d10      	subs	r5, #16
 8002e4a:	e7ca      	b.n	8002de2 <_vfprintf_r+0xf4a>
 8002e4c:	aa1f      	add	r2, sp, #124	; 0x7c
 8002e4e:	4641      	mov	r1, r8
 8002e50:	4658      	mov	r0, fp
 8002e52:	f002 fafc 	bl	800544e <__sprint_r>
 8002e56:	2800      	cmp	r0, #0
 8002e58:	d1d9      	bne.n	8002e0e <_vfprintf_r+0xf76>
 8002e5a:	ac2c      	add	r4, sp, #176	; 0xb0
 8002e5c:	e7f4      	b.n	8002e48 <_vfprintf_r+0xfb0>
 8002e5e:	9b21      	ldr	r3, [sp, #132]	; 0x84
 8002e60:	b913      	cbnz	r3, 8002e68 <_vfprintf_r+0xfd0>
 8002e62:	2300      	movs	r3, #0
 8002e64:	9320      	str	r3, [sp, #128]	; 0x80
 8002e66:	e7d2      	b.n	8002e0e <_vfprintf_r+0xf76>
 8002e68:	aa1f      	add	r2, sp, #124	; 0x7c
 8002e6a:	4641      	mov	r1, r8
 8002e6c:	4658      	mov	r0, fp
 8002e6e:	f002 faee 	bl	800544e <__sprint_r>
 8002e72:	2800      	cmp	r0, #0
 8002e74:	d0f5      	beq.n	8002e62 <_vfprintf_r+0xfca>
 8002e76:	e7ca      	b.n	8002e0e <_vfprintf_r+0xf76>
 8002e78:	e9dd 2306 	ldrd	r2, r3, [sp, #24]
 8002e7c:	4610      	mov	r0, r2
 8002e7e:	4619      	mov	r1, r3
 8002e80:	f7fd fe58 	bl	8000b34 <__aeabi_dcmpun>
 8002e84:	2800      	cmp	r0, #0
 8002e86:	f43f aa36 	beq.w	80022f6 <_vfprintf_r+0x45e>
 8002e8a:	4b1f      	ldr	r3, [pc, #124]	; (8002f08 <_vfprintf_r+0x1070>)
 8002e8c:	4a1f      	ldr	r2, [pc, #124]	; (8002f0c <_vfprintf_r+0x1074>)
 8002e8e:	f7ff ba26 	b.w	80022de <_vfprintf_r+0x446>
 8002e92:	9b1d      	ldr	r3, [sp, #116]	; 0x74
 8002e94:	1a1b      	subs	r3, r3, r0
 8002e96:	9303      	str	r3, [sp, #12]
 8002e98:	f7ff baa9 	b.w	80023ee <_vfprintf_r+0x556>
 8002e9c:	ea56 0207 	orrs.w	r2, r6, r7
 8002ea0:	9508      	str	r5, [sp, #32]
 8002ea2:	f43f ac1e 	beq.w	80026e2 <_vfprintf_r+0x84a>
 8002ea6:	2b01      	cmp	r3, #1
 8002ea8:	f43f ac8f 	beq.w	80027ca <_vfprintf_r+0x932>
 8002eac:	2b02      	cmp	r3, #2
 8002eae:	f43f acaf 	beq.w	8002810 <_vfprintf_r+0x978>
 8002eb2:	ab2c      	add	r3, sp, #176	; 0xb0
 8002eb4:	08f1      	lsrs	r1, r6, #3
 8002eb6:	ea41 7147 	orr.w	r1, r1, r7, lsl #29
 8002eba:	08f8      	lsrs	r0, r7, #3
 8002ebc:	f006 0207 	and.w	r2, r6, #7
 8002ec0:	4607      	mov	r7, r0
 8002ec2:	460e      	mov	r6, r1
 8002ec4:	3230      	adds	r2, #48	; 0x30
 8002ec6:	ea56 0107 	orrs.w	r1, r6, r7
 8002eca:	f103 39ff 	add.w	r9, r3, #4294967295
 8002ece:	f803 2c01 	strb.w	r2, [r3, #-1]
 8002ed2:	f47f ac78 	bne.w	80027c6 <_vfprintf_r+0x92e>
 8002ed6:	9908      	ldr	r1, [sp, #32]
 8002ed8:	07cd      	lsls	r5, r1, #31
 8002eda:	d506      	bpl.n	8002eea <_vfprintf_r+0x1052>
 8002edc:	2a30      	cmp	r2, #48	; 0x30
 8002ede:	d004      	beq.n	8002eea <_vfprintf_r+0x1052>
 8002ee0:	2230      	movs	r2, #48	; 0x30
 8002ee2:	f809 2c01 	strb.w	r2, [r9, #-1]
 8002ee6:	f1a3 0902 	sub.w	r9, r3, #2
 8002eea:	4656      	mov	r6, sl
 8002eec:	2300      	movs	r3, #0
 8002eee:	f10d 0ab0 	add.w	sl, sp, #176	; 0xb0
 8002ef2:	9d08      	ldr	r5, [sp, #32]
 8002ef4:	9308      	str	r3, [sp, #32]
 8002ef6:	ebaa 0a09 	sub.w	sl, sl, r9
 8002efa:	f7ff bac6 	b.w	800248a <_vfprintf_r+0x5f2>
 8002efe:	bf00      	nop
 8002f00:	08005986 	.word	0x08005986
 8002f04:	08005976 	.word	0x08005976
 8002f08:	0800594a 	.word	0x0800594a
 8002f0c:	0800594e 	.word	0x0800594e

08002f10 <__sbprintf>:
 8002f10:	b5f0      	push	{r4, r5, r6, r7, lr}
 8002f12:	460c      	mov	r4, r1
 8002f14:	f2ad 4d6c 	subw	sp, sp, #1132	; 0x46c
 8002f18:	461f      	mov	r7, r3
 8002f1a:	8989      	ldrh	r1, [r1, #12]
 8002f1c:	6e63      	ldr	r3, [r4, #100]	; 0x64
 8002f1e:	9319      	str	r3, [sp, #100]	; 0x64
 8002f20:	89e3      	ldrh	r3, [r4, #14]
 8002f22:	f8ad 300e 	strh.w	r3, [sp, #14]
 8002f26:	f021 0102 	bic.w	r1, r1, #2
 8002f2a:	6a23      	ldr	r3, [r4, #32]
 8002f2c:	f8ad 100c 	strh.w	r1, [sp, #12]
 8002f30:	9308      	str	r3, [sp, #32]
 8002f32:	a91a      	add	r1, sp, #104	; 0x68
 8002f34:	6aa3      	ldr	r3, [r4, #40]	; 0x28
 8002f36:	930a      	str	r3, [sp, #40]	; 0x28
 8002f38:	4615      	mov	r5, r2
 8002f3a:	2300      	movs	r3, #0
 8002f3c:	4606      	mov	r6, r0
 8002f3e:	9100      	str	r1, [sp, #0]
 8002f40:	9104      	str	r1, [sp, #16]
 8002f42:	a816      	add	r0, sp, #88	; 0x58
 8002f44:	f44f 6180 	mov.w	r1, #1024	; 0x400
 8002f48:	9102      	str	r1, [sp, #8]
 8002f4a:	9105      	str	r1, [sp, #20]
 8002f4c:	9306      	str	r3, [sp, #24]
 8002f4e:	f001 fb1b 	bl	8004588 <__retarget_lock_init_recursive>
 8002f52:	462a      	mov	r2, r5
 8002f54:	463b      	mov	r3, r7
 8002f56:	4669      	mov	r1, sp
 8002f58:	4630      	mov	r0, r6
 8002f5a:	f7fe ff9d 	bl	8001e98 <_vfprintf_r>
 8002f5e:	1e05      	subs	r5, r0, #0
 8002f60:	db07      	blt.n	8002f72 <__sbprintf+0x62>
 8002f62:	4669      	mov	r1, sp
 8002f64:	4630      	mov	r0, r6
 8002f66:	f000 ff6f 	bl	8003e48 <_fflush_r>
 8002f6a:	2800      	cmp	r0, #0
 8002f6c:	bf18      	it	ne
 8002f6e:	f04f 35ff 	movne.w	r5, #4294967295
 8002f72:	f8bd 300c 	ldrh.w	r3, [sp, #12]
 8002f76:	9816      	ldr	r0, [sp, #88]	; 0x58
 8002f78:	065b      	lsls	r3, r3, #25
 8002f7a:	bf42      	ittt	mi
 8002f7c:	89a3      	ldrhmi	r3, [r4, #12]
 8002f7e:	f043 0340 	orrmi.w	r3, r3, #64	; 0x40
 8002f82:	81a3      	strhmi	r3, [r4, #12]
 8002f84:	f001 fb01 	bl	800458a <__retarget_lock_close_recursive>
 8002f88:	4628      	mov	r0, r5
 8002f8a:	f20d 4d6c 	addw	sp, sp, #1132	; 0x46c
 8002f8e:	bdf0      	pop	{r4, r5, r6, r7, pc}

08002f90 <__swsetup_r>:
 8002f90:	4b32      	ldr	r3, [pc, #200]	; (800305c <__swsetup_r+0xcc>)
 8002f92:	b570      	push	{r4, r5, r6, lr}
 8002f94:	681d      	ldr	r5, [r3, #0]
 8002f96:	4606      	mov	r6, r0
 8002f98:	460c      	mov	r4, r1
 8002f9a:	b125      	cbz	r5, 8002fa6 <__swsetup_r+0x16>
 8002f9c:	69ab      	ldr	r3, [r5, #24]
 8002f9e:	b913      	cbnz	r3, 8002fa6 <__swsetup_r+0x16>
 8002fa0:	4628      	mov	r0, r5
 8002fa2:	f000 ffe5 	bl	8003f70 <__sinit>
 8002fa6:	4b2e      	ldr	r3, [pc, #184]	; (8003060 <__swsetup_r+0xd0>)
 8002fa8:	429c      	cmp	r4, r3
 8002faa:	d10f      	bne.n	8002fcc <__swsetup_r+0x3c>
 8002fac:	686c      	ldr	r4, [r5, #4]
 8002fae:	f9b4 300c 	ldrsh.w	r3, [r4, #12]
 8002fb2:	b29a      	uxth	r2, r3
 8002fb4:	0715      	lsls	r5, r2, #28
 8002fb6:	d42c      	bmi.n	8003012 <__swsetup_r+0x82>
 8002fb8:	06d0      	lsls	r0, r2, #27
 8002fba:	d411      	bmi.n	8002fe0 <__swsetup_r+0x50>
 8002fbc:	2209      	movs	r2, #9
 8002fbe:	6032      	str	r2, [r6, #0]
 8002fc0:	f043 0340 	orr.w	r3, r3, #64	; 0x40
 8002fc4:	81a3      	strh	r3, [r4, #12]
 8002fc6:	f04f 30ff 	mov.w	r0, #4294967295
 8002fca:	bd70      	pop	{r4, r5, r6, pc}
 8002fcc:	4b25      	ldr	r3, [pc, #148]	; (8003064 <__swsetup_r+0xd4>)
 8002fce:	429c      	cmp	r4, r3
 8002fd0:	d101      	bne.n	8002fd6 <__swsetup_r+0x46>
 8002fd2:	68ac      	ldr	r4, [r5, #8]
 8002fd4:	e7eb      	b.n	8002fae <__swsetup_r+0x1e>
 8002fd6:	4b24      	ldr	r3, [pc, #144]	; (8003068 <__swsetup_r+0xd8>)
 8002fd8:	429c      	cmp	r4, r3
 8002fda:	bf08      	it	eq
 8002fdc:	68ec      	ldreq	r4, [r5, #12]
 8002fde:	e7e6      	b.n	8002fae <__swsetup_r+0x1e>
 8002fe0:	0751      	lsls	r1, r2, #29
 8002fe2:	d512      	bpl.n	800300a <__swsetup_r+0x7a>
 8002fe4:	6b61      	ldr	r1, [r4, #52]	; 0x34
 8002fe6:	b141      	cbz	r1, 8002ffa <__swsetup_r+0x6a>
 8002fe8:	f104 0344 	add.w	r3, r4, #68	; 0x44
 8002fec:	4299      	cmp	r1, r3
 8002fee:	d002      	beq.n	8002ff6 <__swsetup_r+0x66>
 8002ff0:	4630      	mov	r0, r6
 8002ff2:	f001 f893 	bl	800411c <_free_r>
 8002ff6:	2300      	movs	r3, #0
 8002ff8:	6363      	str	r3, [r4, #52]	; 0x34
 8002ffa:	89a3      	ldrh	r3, [r4, #12]
 8002ffc:	f023 0324 	bic.w	r3, r3, #36	; 0x24
 8003000:	81a3      	strh	r3, [r4, #12]
 8003002:	2300      	movs	r3, #0
 8003004:	6063      	str	r3, [r4, #4]
 8003006:	6923      	ldr	r3, [r4, #16]
 8003008:	6023      	str	r3, [r4, #0]
 800300a:	89a3      	ldrh	r3, [r4, #12]
 800300c:	f043 0308 	orr.w	r3, r3, #8
 8003010:	81a3      	strh	r3, [r4, #12]
 8003012:	6923      	ldr	r3, [r4, #16]
 8003014:	b94b      	cbnz	r3, 800302a <__swsetup_r+0x9a>
 8003016:	89a3      	ldrh	r3, [r4, #12]
 8003018:	f403 7320 	and.w	r3, r3, #640	; 0x280
 800301c:	f5b3 7f00 	cmp.w	r3, #512	; 0x200
 8003020:	d003      	beq.n	800302a <__swsetup_r+0x9a>
 8003022:	4621      	mov	r1, r4
 8003024:	4630      	mov	r0, r6
 8003026:	f001 fadf 	bl	80045e8 <__smakebuf_r>
 800302a:	89a2      	ldrh	r2, [r4, #12]
 800302c:	f012 0301 	ands.w	r3, r2, #1
 8003030:	d00c      	beq.n	800304c <__swsetup_r+0xbc>
 8003032:	2300      	movs	r3, #0
 8003034:	60a3      	str	r3, [r4, #8]
 8003036:	6963      	ldr	r3, [r4, #20]
 8003038:	425b      	negs	r3, r3
 800303a:	61a3      	str	r3, [r4, #24]
 800303c:	6923      	ldr	r3, [r4, #16]
 800303e:	b953      	cbnz	r3, 8003056 <__swsetup_r+0xc6>
 8003040:	f9b4 300c 	ldrsh.w	r3, [r4, #12]
 8003044:	f013 0080 	ands.w	r0, r3, #128	; 0x80
 8003048:	d1ba      	bne.n	8002fc0 <__swsetup_r+0x30>
 800304a:	bd70      	pop	{r4, r5, r6, pc}
 800304c:	0792      	lsls	r2, r2, #30
 800304e:	bf58      	it	pl
 8003050:	6963      	ldrpl	r3, [r4, #20]
 8003052:	60a3      	str	r3, [r4, #8]
 8003054:	e7f2      	b.n	800303c <__swsetup_r+0xac>
 8003056:	2000      	movs	r0, #0
 8003058:	e7f7      	b.n	800304a <__swsetup_r+0xba>
 800305a:	bf00      	nop
 800305c:	20000004 	.word	0x20000004
 8003060:	080059c4 	.word	0x080059c4
 8003064:	080059e4 	.word	0x080059e4
 8003068:	080059a4 	.word	0x080059a4

0800306c <quorem>:
 800306c:	e92d 4ff7 	stmdb	sp!, {r0, r1, r2, r4, r5, r6, r7, r8, r9, sl, fp, lr}
 8003070:	6903      	ldr	r3, [r0, #16]
 8003072:	690c      	ldr	r4, [r1, #16]
 8003074:	429c      	cmp	r4, r3
 8003076:	4680      	mov	r8, r0
 8003078:	f300 8082 	bgt.w	8003180 <quorem+0x114>
 800307c:	3c01      	subs	r4, #1
 800307e:	f101 0714 	add.w	r7, r1, #20
 8003082:	ea4f 0e84 	mov.w	lr, r4, lsl #2
 8003086:	f100 0614 	add.w	r6, r0, #20
 800308a:	f857 5024 	ldr.w	r5, [r7, r4, lsl #2]
 800308e:	f856 0024 	ldr.w	r0, [r6, r4, lsl #2]
 8003092:	eb06 030e 	add.w	r3, r6, lr
 8003096:	3501      	adds	r5, #1
 8003098:	eb07 090e 	add.w	r9, r7, lr
 800309c:	9301      	str	r3, [sp, #4]
 800309e:	fbb0 f5f5 	udiv	r5, r0, r5
 80030a2:	b395      	cbz	r5, 800310a <quorem+0x9e>
 80030a4:	f04f 0a00 	mov.w	sl, #0
 80030a8:	4638      	mov	r0, r7
 80030aa:	46b4      	mov	ip, r6
 80030ac:	46d3      	mov	fp, sl
 80030ae:	f850 2b04 	ldr.w	r2, [r0], #4
 80030b2:	b293      	uxth	r3, r2
 80030b4:	fb05 a303 	mla	r3, r5, r3, sl
 80030b8:	ea4f 4a13 	mov.w	sl, r3, lsr #16
 80030bc:	b29b      	uxth	r3, r3
 80030be:	ebab 0303 	sub.w	r3, fp, r3
 80030c2:	0c12      	lsrs	r2, r2, #16
 80030c4:	f8bc b000 	ldrh.w	fp, [ip]
 80030c8:	fb05 a202 	mla	r2, r5, r2, sl
 80030cc:	fa13 f38b 	uxtah	r3, r3, fp
 80030d0:	ea4f 4a12 	mov.w	sl, r2, lsr #16
 80030d4:	fa1f fb82 	uxth.w	fp, r2
 80030d8:	f8dc 2000 	ldr.w	r2, [ip]
 80030dc:	ebcb 4212 	rsb	r2, fp, r2, lsr #16
 80030e0:	eb02 4223 	add.w	r2, r2, r3, asr #16
 80030e4:	b29b      	uxth	r3, r3
 80030e6:	ea43 4302 	orr.w	r3, r3, r2, lsl #16
 80030ea:	4581      	cmp	r9, r0
 80030ec:	ea4f 4b22 	mov.w	fp, r2, asr #16
 80030f0:	f84c 3b04 	str.w	r3, [ip], #4
 80030f4:	d2db      	bcs.n	80030ae <quorem+0x42>
 80030f6:	f856 300e 	ldr.w	r3, [r6, lr]
 80030fa:	b933      	cbnz	r3, 800310a <quorem+0x9e>
 80030fc:	9b01      	ldr	r3, [sp, #4]
 80030fe:	3b04      	subs	r3, #4
 8003100:	429e      	cmp	r6, r3
 8003102:	461a      	mov	r2, r3
 8003104:	d330      	bcc.n	8003168 <quorem+0xfc>
 8003106:	f8c8 4010 	str.w	r4, [r8, #16]
 800310a:	4640      	mov	r0, r8
 800310c:	f001 ff05 	bl	8004f1a <__mcmp>
 8003110:	2800      	cmp	r0, #0
 8003112:	db25      	blt.n	8003160 <quorem+0xf4>
 8003114:	3501      	adds	r5, #1
 8003116:	4630      	mov	r0, r6
 8003118:	f04f 0e00 	mov.w	lr, #0
 800311c:	f857 2b04 	ldr.w	r2, [r7], #4
 8003120:	f8d0 c000 	ldr.w	ip, [r0]
 8003124:	b293      	uxth	r3, r2
 8003126:	ebae 0303 	sub.w	r3, lr, r3
 800312a:	0c12      	lsrs	r2, r2, #16
 800312c:	fa13 f38c 	uxtah	r3, r3, ip
 8003130:	ebc2 421c 	rsb	r2, r2, ip, lsr #16
 8003134:	eb02 4223 	add.w	r2, r2, r3, asr #16
 8003138:	b29b      	uxth	r3, r3
 800313a:	ea43 4302 	orr.w	r3, r3, r2, lsl #16
 800313e:	45b9      	cmp	r9, r7
 8003140:	ea4f 4e22 	mov.w	lr, r2, asr #16
 8003144:	f840 3b04 	str.w	r3, [r0], #4
 8003148:	d2e8      	bcs.n	800311c <quorem+0xb0>
 800314a:	f856 2024 	ldr.w	r2, [r6, r4, lsl #2]
 800314e:	eb06 0384 	add.w	r3, r6, r4, lsl #2
 8003152:	b92a      	cbnz	r2, 8003160 <quorem+0xf4>
 8003154:	3b04      	subs	r3, #4
 8003156:	429e      	cmp	r6, r3
 8003158:	461a      	mov	r2, r3
 800315a:	d30b      	bcc.n	8003174 <quorem+0x108>
 800315c:	f8c8 4010 	str.w	r4, [r8, #16]
 8003160:	4628      	mov	r0, r5
 8003162:	b003      	add	sp, #12
 8003164:	e8bd 8ff0 	ldmia.w	sp!, {r4, r5, r6, r7, r8, r9, sl, fp, pc}
 8003168:	6812      	ldr	r2, [r2, #0]
 800316a:	3b04      	subs	r3, #4
 800316c:	2a00      	cmp	r2, #0
 800316e:	d1ca      	bne.n	8003106 <quorem+0x9a>
 8003170:	3c01      	subs	r4, #1
 8003172:	e7c5      	b.n	8003100 <quorem+0x94>
 8003174:	6812      	ldr	r2, [r2, #0]
 8003176:	3b04      	subs	r3, #4
 8003178:	2a00      	cmp	r2, #0
 800317a:	d1ef      	bne.n	800315c <quorem+0xf0>
 800317c:	3c01      	subs	r4, #1
 800317e:	e7ea      	b.n	8003156 <quorem+0xea>
 8003180:	2000      	movs	r0, #0
 8003182:	e7ee      	b.n	8003162 <quorem+0xf6>
 8003184:	0000      	movs	r0, r0
	...

08003188 <_dtoa_r>:
 8003188:	e92d 4ff0 	stmdb	sp!, {r4, r5, r6, r7, r8, r9, sl, fp, lr}
 800318c:	ec57 6b10 	vmov	r6, r7, d0
 8003190:	b097      	sub	sp, #92	; 0x5c
 8003192:	e9cd 6700 	strd	r6, r7, [sp]
 8003196:	6a46      	ldr	r6, [r0, #36]	; 0x24
 8003198:	9107      	str	r1, [sp, #28]
 800319a:	4604      	mov	r4, r0
 800319c:	920a      	str	r2, [sp, #40]	; 0x28
 800319e:	930f      	str	r3, [sp, #60]	; 0x3c
 80031a0:	9d20      	ldr	r5, [sp, #128]	; 0x80
 80031a2:	b93e      	cbnz	r6, 80031b4 <_dtoa_r+0x2c>
 80031a4:	2010      	movs	r0, #16
 80031a6:	f001 fa5f 	bl	8004668 <malloc>
 80031aa:	6260      	str	r0, [r4, #36]	; 0x24
 80031ac:	6046      	str	r6, [r0, #4]
 80031ae:	6086      	str	r6, [r0, #8]
 80031b0:	6006      	str	r6, [r0, #0]
 80031b2:	60c6      	str	r6, [r0, #12]
 80031b4:	6a63      	ldr	r3, [r4, #36]	; 0x24
 80031b6:	6819      	ldr	r1, [r3, #0]
 80031b8:	b151      	cbz	r1, 80031d0 <_dtoa_r+0x48>
 80031ba:	685a      	ldr	r2, [r3, #4]
 80031bc:	604a      	str	r2, [r1, #4]
 80031be:	2301      	movs	r3, #1
 80031c0:	4093      	lsls	r3, r2
 80031c2:	608b      	str	r3, [r1, #8]
 80031c4:	4620      	mov	r0, r4
 80031c6:	f001 fcd3 	bl	8004b70 <_Bfree>
 80031ca:	6a63      	ldr	r3, [r4, #36]	; 0x24
 80031cc:	2200      	movs	r2, #0
 80031ce:	601a      	str	r2, [r3, #0]
 80031d0:	9b01      	ldr	r3, [sp, #4]
 80031d2:	2b00      	cmp	r3, #0
 80031d4:	bfbf      	itttt	lt
 80031d6:	2301      	movlt	r3, #1
 80031d8:	602b      	strlt	r3, [r5, #0]
 80031da:	9b01      	ldrlt	r3, [sp, #4]
 80031dc:	f023 4300 	biclt.w	r3, r3, #2147483648	; 0x80000000
 80031e0:	bfb2      	itee	lt
 80031e2:	9301      	strlt	r3, [sp, #4]
 80031e4:	2300      	movge	r3, #0
 80031e6:	602b      	strge	r3, [r5, #0]
 80031e8:	f8dd 8004 	ldr.w	r8, [sp, #4]
 80031ec:	4ba8      	ldr	r3, [pc, #672]	; (8003490 <_dtoa_r+0x308>)
 80031ee:	ea33 0308 	bics.w	r3, r3, r8
 80031f2:	d11b      	bne.n	800322c <_dtoa_r+0xa4>
 80031f4:	9a0f      	ldr	r2, [sp, #60]	; 0x3c
 80031f6:	f242 730f 	movw	r3, #9999	; 0x270f
 80031fa:	6013      	str	r3, [r2, #0]
 80031fc:	9b00      	ldr	r3, [sp, #0]
 80031fe:	b923      	cbnz	r3, 800320a <_dtoa_r+0x82>
 8003200:	f3c8 0013 	ubfx	r0, r8, #0, #20
 8003204:	2800      	cmp	r0, #0
 8003206:	f000 8578 	beq.w	8003cfa <_dtoa_r+0xb72>
 800320a:	9b21      	ldr	r3, [sp, #132]	; 0x84
 800320c:	b953      	cbnz	r3, 8003224 <_dtoa_r+0x9c>
 800320e:	4ba1      	ldr	r3, [pc, #644]	; (8003494 <_dtoa_r+0x30c>)
 8003210:	e021      	b.n	8003256 <_dtoa_r+0xce>
 8003212:	4ba1      	ldr	r3, [pc, #644]	; (8003498 <_dtoa_r+0x310>)
 8003214:	9302      	str	r3, [sp, #8]
 8003216:	3308      	adds	r3, #8
 8003218:	9a21      	ldr	r2, [sp, #132]	; 0x84
 800321a:	6013      	str	r3, [r2, #0]
 800321c:	9802      	ldr	r0, [sp, #8]
 800321e:	b017      	add	sp, #92	; 0x5c
 8003220:	e8bd 8ff0 	ldmia.w	sp!, {r4, r5, r6, r7, r8, r9, sl, fp, pc}
 8003224:	4b9b      	ldr	r3, [pc, #620]	; (8003494 <_dtoa_r+0x30c>)
 8003226:	9302      	str	r3, [sp, #8]
 8003228:	3303      	adds	r3, #3
 800322a:	e7f5      	b.n	8003218 <_dtoa_r+0x90>
 800322c:	e9dd 6700 	ldrd	r6, r7, [sp]
 8003230:	2200      	movs	r2, #0
 8003232:	2300      	movs	r3, #0
 8003234:	4630      	mov	r0, r6
 8003236:	4639      	mov	r1, r7
 8003238:	f7fd fc4a 	bl	8000ad0 <__aeabi_dcmpeq>
 800323c:	4681      	mov	r9, r0
 800323e:	b160      	cbz	r0, 800325a <_dtoa_r+0xd2>
 8003240:	9a0f      	ldr	r2, [sp, #60]	; 0x3c
 8003242:	2301      	movs	r3, #1
 8003244:	6013      	str	r3, [r2, #0]
 8003246:	9b21      	ldr	r3, [sp, #132]	; 0x84
 8003248:	2b00      	cmp	r3, #0
 800324a:	f000 8553 	beq.w	8003cf4 <_dtoa_r+0xb6c>
 800324e:	4b93      	ldr	r3, [pc, #588]	; (800349c <_dtoa_r+0x314>)
 8003250:	9a21      	ldr	r2, [sp, #132]	; 0x84
 8003252:	6013      	str	r3, [r2, #0]
 8003254:	3b01      	subs	r3, #1
 8003256:	9302      	str	r3, [sp, #8]
 8003258:	e7e0      	b.n	800321c <_dtoa_r+0x94>
 800325a:	aa14      	add	r2, sp, #80	; 0x50
 800325c:	a915      	add	r1, sp, #84	; 0x54
 800325e:	ec47 6b10 	vmov	d0, r6, r7
 8003262:	4620      	mov	r0, r4
 8003264:	f001 fed1 	bl	800500a <__d2b>
 8003268:	f3c8 550a 	ubfx	r5, r8, #20, #11
 800326c:	4682      	mov	sl, r0
 800326e:	2d00      	cmp	r5, #0
 8003270:	d07e      	beq.n	8003370 <_dtoa_r+0x1e8>
 8003272:	f3c7 0313 	ubfx	r3, r7, #0, #20
 8003276:	f043 517f 	orr.w	r1, r3, #1069547520	; 0x3fc00000
 800327a:	4630      	mov	r0, r6
 800327c:	f441 1140 	orr.w	r1, r1, #3145728	; 0x300000
 8003280:	f2a5 35ff 	subw	r5, r5, #1023	; 0x3ff
 8003284:	f8cd 9048 	str.w	r9, [sp, #72]	; 0x48
 8003288:	2200      	movs	r2, #0
 800328a:	4b85      	ldr	r3, [pc, #532]	; (80034a0 <_dtoa_r+0x318>)
 800328c:	f7fd f804 	bl	8000298 <__aeabi_dsub>
 8003290:	a379      	add	r3, pc, #484	; (adr r3, 8003478 <_dtoa_r+0x2f0>)
 8003292:	e9d3 2300 	ldrd	r2, r3, [r3]
 8003296:	f7fd f9b3 	bl	8000600 <__aeabi_dmul>
 800329a:	a379      	add	r3, pc, #484	; (adr r3, 8003480 <_dtoa_r+0x2f8>)
 800329c:	e9d3 2300 	ldrd	r2, r3, [r3]
 80032a0:	f7fc fffc 	bl	800029c <__adddf3>
 80032a4:	4606      	mov	r6, r0
 80032a6:	4628      	mov	r0, r5
 80032a8:	460f      	mov	r7, r1
 80032aa:	f7fd f943 	bl	8000534 <__aeabi_i2d>
 80032ae:	a376      	add	r3, pc, #472	; (adr r3, 8003488 <_dtoa_r+0x300>)
 80032b0:	e9d3 2300 	ldrd	r2, r3, [r3]
 80032b4:	f7fd f9a4 	bl	8000600 <__aeabi_dmul>
 80032b8:	4602      	mov	r2, r0
 80032ba:	460b      	mov	r3, r1
 80032bc:	4630      	mov	r0, r6
 80032be:	4639      	mov	r1, r7
 80032c0:	f7fc ffec 	bl	800029c <__adddf3>
 80032c4:	4606      	mov	r6, r0
 80032c6:	460f      	mov	r7, r1
 80032c8:	f7fd fc4a 	bl	8000b60 <__aeabi_d2iz>
 80032cc:	2200      	movs	r2, #0
 80032ce:	4683      	mov	fp, r0
 80032d0:	2300      	movs	r3, #0
 80032d2:	4630      	mov	r0, r6
 80032d4:	4639      	mov	r1, r7
 80032d6:	f7fd fc05 	bl	8000ae4 <__aeabi_dcmplt>
 80032da:	b158      	cbz	r0, 80032f4 <_dtoa_r+0x16c>
 80032dc:	4658      	mov	r0, fp
 80032de:	f7fd f929 	bl	8000534 <__aeabi_i2d>
 80032e2:	4602      	mov	r2, r0
 80032e4:	460b      	mov	r3, r1
 80032e6:	4630      	mov	r0, r6
 80032e8:	4639      	mov	r1, r7
 80032ea:	f7fd fbf1 	bl	8000ad0 <__aeabi_dcmpeq>
 80032ee:	b908      	cbnz	r0, 80032f4 <_dtoa_r+0x16c>
 80032f0:	f10b 3bff 	add.w	fp, fp, #4294967295
 80032f4:	f1bb 0f16 	cmp.w	fp, #22
 80032f8:	d859      	bhi.n	80033ae <_dtoa_r+0x226>
 80032fa:	496a      	ldr	r1, [pc, #424]	; (80034a4 <_dtoa_r+0x31c>)
 80032fc:	eb01 01cb 	add.w	r1, r1, fp, lsl #3
 8003300:	e9dd 2300 	ldrd	r2, r3, [sp]
 8003304:	e9d1 0100 	ldrd	r0, r1, [r1]
 8003308:	f7fd fc0a 	bl	8000b20 <__aeabi_dcmpgt>
 800330c:	2800      	cmp	r0, #0
 800330e:	d050      	beq.n	80033b2 <_dtoa_r+0x22a>
 8003310:	f10b 3bff 	add.w	fp, fp, #4294967295
 8003314:	2300      	movs	r3, #0
 8003316:	930e      	str	r3, [sp, #56]	; 0x38
 8003318:	9b14      	ldr	r3, [sp, #80]	; 0x50
 800331a:	1b5d      	subs	r5, r3, r5
 800331c:	1e6b      	subs	r3, r5, #1
 800331e:	9306      	str	r3, [sp, #24]
 8003320:	bf45      	ittet	mi
 8003322:	f1c5 0301 	rsbmi	r3, r5, #1
 8003326:	9305      	strmi	r3, [sp, #20]
 8003328:	2300      	movpl	r3, #0
 800332a:	2300      	movmi	r3, #0
 800332c:	bf4c      	ite	mi
 800332e:	9306      	strmi	r3, [sp, #24]
 8003330:	9305      	strpl	r3, [sp, #20]
 8003332:	f1bb 0f00 	cmp.w	fp, #0
 8003336:	db3e      	blt.n	80033b6 <_dtoa_r+0x22e>
 8003338:	9b06      	ldr	r3, [sp, #24]
 800333a:	f8cd b02c 	str.w	fp, [sp, #44]	; 0x2c
 800333e:	445b      	add	r3, fp
 8003340:	9306      	str	r3, [sp, #24]
 8003342:	2300      	movs	r3, #0
 8003344:	9308      	str	r3, [sp, #32]
 8003346:	9b07      	ldr	r3, [sp, #28]
 8003348:	2b09      	cmp	r3, #9
 800334a:	f200 80af 	bhi.w	80034ac <_dtoa_r+0x324>
 800334e:	2b05      	cmp	r3, #5
 8003350:	bfc4      	itt	gt
 8003352:	3b04      	subgt	r3, #4
 8003354:	9307      	strgt	r3, [sp, #28]
 8003356:	9b07      	ldr	r3, [sp, #28]
 8003358:	f1a3 0302 	sub.w	r3, r3, #2
 800335c:	bfcc      	ite	gt
 800335e:	2600      	movgt	r6, #0
 8003360:	2601      	movle	r6, #1
 8003362:	2b03      	cmp	r3, #3
 8003364:	f200 80ae 	bhi.w	80034c4 <_dtoa_r+0x33c>
 8003368:	e8df f003 	tbb	[pc, r3]
 800336c:	772f8482 	.word	0x772f8482
 8003370:	9b15      	ldr	r3, [sp, #84]	; 0x54
 8003372:	9d14      	ldr	r5, [sp, #80]	; 0x50
 8003374:	441d      	add	r5, r3
 8003376:	f205 4332 	addw	r3, r5, #1074	; 0x432
 800337a:	2b20      	cmp	r3, #32
 800337c:	dd11      	ble.n	80033a2 <_dtoa_r+0x21a>
 800337e:	9a00      	ldr	r2, [sp, #0]
 8003380:	f205 4012 	addw	r0, r5, #1042	; 0x412
 8003384:	f1c3 0340 	rsb	r3, r3, #64	; 0x40
 8003388:	fa22 f000 	lsr.w	r0, r2, r0
 800338c:	fa08 f303 	lsl.w	r3, r8, r3
 8003390:	4318      	orrs	r0, r3
 8003392:	f7fd f8bf 	bl	8000514 <__aeabi_ui2d>
 8003396:	2301      	movs	r3, #1
 8003398:	f1a1 71f8 	sub.w	r1, r1, #32505856	; 0x1f00000
 800339c:	3d01      	subs	r5, #1
 800339e:	9312      	str	r3, [sp, #72]	; 0x48
 80033a0:	e772      	b.n	8003288 <_dtoa_r+0x100>
 80033a2:	f1c3 0020 	rsb	r0, r3, #32
 80033a6:	9b00      	ldr	r3, [sp, #0]
 80033a8:	fa03 f000 	lsl.w	r0, r3, r0
 80033ac:	e7f1      	b.n	8003392 <_dtoa_r+0x20a>
 80033ae:	2301      	movs	r3, #1
 80033b0:	e7b1      	b.n	8003316 <_dtoa_r+0x18e>
 80033b2:	900e      	str	r0, [sp, #56]	; 0x38
 80033b4:	e7b0      	b.n	8003318 <_dtoa_r+0x190>
 80033b6:	9b05      	ldr	r3, [sp, #20]
 80033b8:	eba3 030b 	sub.w	r3, r3, fp
 80033bc:	9305      	str	r3, [sp, #20]
 80033be:	f1cb 0300 	rsb	r3, fp, #0
 80033c2:	9308      	str	r3, [sp, #32]
 80033c4:	2300      	movs	r3, #0
 80033c6:	930b      	str	r3, [sp, #44]	; 0x2c
 80033c8:	e7bd      	b.n	8003346 <_dtoa_r+0x1be>
 80033ca:	2301      	movs	r3, #1
 80033cc:	9309      	str	r3, [sp, #36]	; 0x24
 80033ce:	9b0a      	ldr	r3, [sp, #40]	; 0x28
 80033d0:	2b00      	cmp	r3, #0
 80033d2:	dd7a      	ble.n	80034ca <_dtoa_r+0x342>
 80033d4:	9304      	str	r3, [sp, #16]
 80033d6:	9303      	str	r3, [sp, #12]
 80033d8:	6a65      	ldr	r5, [r4, #36]	; 0x24
 80033da:	2200      	movs	r2, #0
 80033dc:	606a      	str	r2, [r5, #4]
 80033de:	2104      	movs	r1, #4
 80033e0:	f101 0214 	add.w	r2, r1, #20
 80033e4:	429a      	cmp	r2, r3
 80033e6:	d975      	bls.n	80034d4 <_dtoa_r+0x34c>
 80033e8:	6869      	ldr	r1, [r5, #4]
 80033ea:	4620      	mov	r0, r4
 80033ec:	f001 fb8c 	bl	8004b08 <_Balloc>
 80033f0:	6a63      	ldr	r3, [r4, #36]	; 0x24
 80033f2:	6028      	str	r0, [r5, #0]
 80033f4:	681b      	ldr	r3, [r3, #0]
 80033f6:	9302      	str	r3, [sp, #8]
 80033f8:	9b03      	ldr	r3, [sp, #12]
 80033fa:	2b0e      	cmp	r3, #14
 80033fc:	f200 80e5 	bhi.w	80035ca <_dtoa_r+0x442>
 8003400:	2e00      	cmp	r6, #0
 8003402:	f000 80e2 	beq.w	80035ca <_dtoa_r+0x442>
 8003406:	ed9d 7b00 	vldr	d7, [sp]
 800340a:	f1bb 0f00 	cmp.w	fp, #0
 800340e:	ed8d 7b0c 	vstr	d7, [sp, #48]	; 0x30
 8003412:	dd74      	ble.n	80034fe <_dtoa_r+0x376>
 8003414:	4a23      	ldr	r2, [pc, #140]	; (80034a4 <_dtoa_r+0x31c>)
 8003416:	f00b 030f 	and.w	r3, fp, #15
 800341a:	ea4f 162b 	mov.w	r6, fp, asr #4
 800341e:	eb02 03c3 	add.w	r3, r2, r3, lsl #3
 8003422:	06f0      	lsls	r0, r6, #27
 8003424:	e9d3 8900 	ldrd	r8, r9, [r3]
 8003428:	d559      	bpl.n	80034de <_dtoa_r+0x356>
 800342a:	4b1f      	ldr	r3, [pc, #124]	; (80034a8 <_dtoa_r+0x320>)
 800342c:	ec51 0b17 	vmov	r0, r1, d7
 8003430:	e9d3 2308 	ldrd	r2, r3, [r3, #32]
 8003434:	f7fd fa0e 	bl	8000854 <__aeabi_ddiv>
 8003438:	e9cd 0100 	strd	r0, r1, [sp]
 800343c:	f006 060f 	and.w	r6, r6, #15
 8003440:	2503      	movs	r5, #3
 8003442:	4f19      	ldr	r7, [pc, #100]	; (80034a8 <_dtoa_r+0x320>)
 8003444:	2e00      	cmp	r6, #0
 8003446:	d14c      	bne.n	80034e2 <_dtoa_r+0x35a>
 8003448:	4642      	mov	r2, r8
 800344a:	464b      	mov	r3, r9
 800344c:	e9dd 0100 	ldrd	r0, r1, [sp]
 8003450:	f7fd fa00 	bl	8000854 <__aeabi_ddiv>
 8003454:	e9cd 0100 	strd	r0, r1, [sp]
 8003458:	e06a      	b.n	8003530 <_dtoa_r+0x3a8>
 800345a:	2301      	movs	r3, #1
 800345c:	9309      	str	r3, [sp, #36]	; 0x24
 800345e:	9b0a      	ldr	r3, [sp, #40]	; 0x28
 8003460:	445b      	add	r3, fp
 8003462:	9304      	str	r3, [sp, #16]
 8003464:	3301      	adds	r3, #1
 8003466:	2b01      	cmp	r3, #1
 8003468:	9303      	str	r3, [sp, #12]
 800346a:	bfb8      	it	lt
 800346c:	2301      	movlt	r3, #1
 800346e:	e7b3      	b.n	80033d8 <_dtoa_r+0x250>
 8003470:	2300      	movs	r3, #0
 8003472:	e7ab      	b.n	80033cc <_dtoa_r+0x244>
 8003474:	2300      	movs	r3, #0
 8003476:	e7f1      	b.n	800345c <_dtoa_r+0x2d4>
 8003478:	636f4361 	.word	0x636f4361
 800347c:	3fd287a7 	.word	0x3fd287a7
 8003480:	8b60c8b3 	.word	0x8b60c8b3
 8003484:	3fc68a28 	.word	0x3fc68a28
 8003488:	509f79fb 	.word	0x509f79fb
 800348c:	3fd34413 	.word	0x3fd34413
 8003490:	7ff00000 	.word	0x7ff00000
 8003494:	0800599f 	.word	0x0800599f
 8003498:	08005996 	.word	0x08005996
 800349c:	08005975 	.word	0x08005975
 80034a0:	3ff80000 	.word	0x3ff80000
 80034a4:	08005a30 	.word	0x08005a30
 80034a8:	08005a08 	.word	0x08005a08
 80034ac:	2601      	movs	r6, #1
 80034ae:	2300      	movs	r3, #0
 80034b0:	9307      	str	r3, [sp, #28]
 80034b2:	9609      	str	r6, [sp, #36]	; 0x24
 80034b4:	f04f 33ff 	mov.w	r3, #4294967295
 80034b8:	9304      	str	r3, [sp, #16]
 80034ba:	9303      	str	r3, [sp, #12]
 80034bc:	2200      	movs	r2, #0
 80034be:	2312      	movs	r3, #18
 80034c0:	920a      	str	r2, [sp, #40]	; 0x28
 80034c2:	e789      	b.n	80033d8 <_dtoa_r+0x250>
 80034c4:	2301      	movs	r3, #1
 80034c6:	9309      	str	r3, [sp, #36]	; 0x24
 80034c8:	e7f4      	b.n	80034b4 <_dtoa_r+0x32c>
 80034ca:	2301      	movs	r3, #1
 80034cc:	9304      	str	r3, [sp, #16]
 80034ce:	9303      	str	r3, [sp, #12]
 80034d0:	461a      	mov	r2, r3
 80034d2:	e7f5      	b.n	80034c0 <_dtoa_r+0x338>
 80034d4:	686a      	ldr	r2, [r5, #4]
 80034d6:	3201      	adds	r2, #1
 80034d8:	606a      	str	r2, [r5, #4]
 80034da:	0049      	lsls	r1, r1, #1
 80034dc:	e780      	b.n	80033e0 <_dtoa_r+0x258>
 80034de:	2502      	movs	r5, #2
 80034e0:	e7af      	b.n	8003442 <_dtoa_r+0x2ba>
 80034e2:	07f1      	lsls	r1, r6, #31
 80034e4:	d508      	bpl.n	80034f8 <_dtoa_r+0x370>
 80034e6:	4640      	mov	r0, r8
 80034e8:	4649      	mov	r1, r9
 80034ea:	e9d7 2300 	ldrd	r2, r3, [r7]
 80034ee:	f7fd f887 	bl	8000600 <__aeabi_dmul>
 80034f2:	3501      	adds	r5, #1
 80034f4:	4680      	mov	r8, r0
 80034f6:	4689      	mov	r9, r1
 80034f8:	1076      	asrs	r6, r6, #1
 80034fa:	3708      	adds	r7, #8
 80034fc:	e7a2      	b.n	8003444 <_dtoa_r+0x2bc>
 80034fe:	f000 809d 	beq.w	800363c <_dtoa_r+0x4b4>
 8003502:	f1cb 0600 	rsb	r6, fp, #0
 8003506:	4b9f      	ldr	r3, [pc, #636]	; (8003784 <_dtoa_r+0x5fc>)
 8003508:	4f9f      	ldr	r7, [pc, #636]	; (8003788 <_dtoa_r+0x600>)
 800350a:	f006 020f 	and.w	r2, r6, #15
 800350e:	eb03 03c2 	add.w	r3, r3, r2, lsl #3
 8003512:	e9d3 2300 	ldrd	r2, r3, [r3]
 8003516:	e9dd 010c 	ldrd	r0, r1, [sp, #48]	; 0x30
 800351a:	f7fd f871 	bl	8000600 <__aeabi_dmul>
 800351e:	e9cd 0100 	strd	r0, r1, [sp]
 8003522:	1136      	asrs	r6, r6, #4
 8003524:	2300      	movs	r3, #0
 8003526:	2502      	movs	r5, #2
 8003528:	2e00      	cmp	r6, #0
 800352a:	d17c      	bne.n	8003626 <_dtoa_r+0x49e>
 800352c:	2b00      	cmp	r3, #0
 800352e:	d191      	bne.n	8003454 <_dtoa_r+0x2cc>
 8003530:	9b0e      	ldr	r3, [sp, #56]	; 0x38
 8003532:	2b00      	cmp	r3, #0
 8003534:	f000 8084 	beq.w	8003640 <_dtoa_r+0x4b8>
 8003538:	e9dd 8900 	ldrd	r8, r9, [sp]
 800353c:	2200      	movs	r2, #0
 800353e:	4b93      	ldr	r3, [pc, #588]	; (800378c <_dtoa_r+0x604>)
 8003540:	4640      	mov	r0, r8
 8003542:	4649      	mov	r1, r9
 8003544:	f7fd face 	bl	8000ae4 <__aeabi_dcmplt>
 8003548:	2800      	cmp	r0, #0
 800354a:	d079      	beq.n	8003640 <_dtoa_r+0x4b8>
 800354c:	9b03      	ldr	r3, [sp, #12]
 800354e:	2b00      	cmp	r3, #0
 8003550:	d076      	beq.n	8003640 <_dtoa_r+0x4b8>
 8003552:	9b04      	ldr	r3, [sp, #16]
 8003554:	2b00      	cmp	r3, #0
 8003556:	dd34      	ble.n	80035c2 <_dtoa_r+0x43a>
 8003558:	2200      	movs	r2, #0
 800355a:	4b8d      	ldr	r3, [pc, #564]	; (8003790 <_dtoa_r+0x608>)
 800355c:	4640      	mov	r0, r8
 800355e:	4649      	mov	r1, r9
 8003560:	f7fd f84e 	bl	8000600 <__aeabi_dmul>
 8003564:	e9cd 0100 	strd	r0, r1, [sp]
 8003568:	9e04      	ldr	r6, [sp, #16]
 800356a:	f10b 37ff 	add.w	r7, fp, #4294967295
 800356e:	3501      	adds	r5, #1
 8003570:	4628      	mov	r0, r5
 8003572:	f7fc ffdf 	bl	8000534 <__aeabi_i2d>
 8003576:	e9dd 2300 	ldrd	r2, r3, [sp]
 800357a:	f7fd f841 	bl	8000600 <__aeabi_dmul>
 800357e:	2200      	movs	r2, #0
 8003580:	4b84      	ldr	r3, [pc, #528]	; (8003794 <_dtoa_r+0x60c>)
 8003582:	f7fc fe8b 	bl	800029c <__adddf3>
 8003586:	4680      	mov	r8, r0
 8003588:	f1a1 7950 	sub.w	r9, r1, #54525952	; 0x3400000
 800358c:	2e00      	cmp	r6, #0
 800358e:	d15a      	bne.n	8003646 <_dtoa_r+0x4be>
 8003590:	2200      	movs	r2, #0
 8003592:	4b81      	ldr	r3, [pc, #516]	; (8003798 <_dtoa_r+0x610>)
 8003594:	e9dd 0100 	ldrd	r0, r1, [sp]
 8003598:	f7fc fe7e 	bl	8000298 <__aeabi_dsub>
 800359c:	4642      	mov	r2, r8
 800359e:	464b      	mov	r3, r9
 80035a0:	e9cd 0100 	strd	r0, r1, [sp]
 80035a4:	f7fd fabc 	bl	8000b20 <__aeabi_dcmpgt>
 80035a8:	2800      	cmp	r0, #0
 80035aa:	f040 829b 	bne.w	8003ae4 <_dtoa_r+0x95c>
 80035ae:	4642      	mov	r2, r8
 80035b0:	f109 4300 	add.w	r3, r9, #2147483648	; 0x80000000
 80035b4:	e9dd 0100 	ldrd	r0, r1, [sp]
 80035b8:	f7fd fa94 	bl	8000ae4 <__aeabi_dcmplt>
 80035bc:	2800      	cmp	r0, #0
 80035be:	f040 828f 	bne.w	8003ae0 <_dtoa_r+0x958>
 80035c2:	e9dd 230c 	ldrd	r2, r3, [sp, #48]	; 0x30
 80035c6:	e9cd 2300 	strd	r2, r3, [sp]
 80035ca:	9b15      	ldr	r3, [sp, #84]	; 0x54
 80035cc:	2b00      	cmp	r3, #0
 80035ce:	f2c0 8150 	blt.w	8003872 <_dtoa_r+0x6ea>
 80035d2:	f1bb 0f0e 	cmp.w	fp, #14
 80035d6:	f300 814c 	bgt.w	8003872 <_dtoa_r+0x6ea>
 80035da:	4b6a      	ldr	r3, [pc, #424]	; (8003784 <_dtoa_r+0x5fc>)
 80035dc:	eb03 03cb 	add.w	r3, r3, fp, lsl #3
 80035e0:	e9d3 8900 	ldrd	r8, r9, [r3]
 80035e4:	9b0a      	ldr	r3, [sp, #40]	; 0x28
 80035e6:	2b00      	cmp	r3, #0
 80035e8:	f280 80da 	bge.w	80037a0 <_dtoa_r+0x618>
 80035ec:	9b03      	ldr	r3, [sp, #12]
 80035ee:	2b00      	cmp	r3, #0
 80035f0:	f300 80d6 	bgt.w	80037a0 <_dtoa_r+0x618>
 80035f4:	f040 8273 	bne.w	8003ade <_dtoa_r+0x956>
 80035f8:	2200      	movs	r2, #0
 80035fa:	4b67      	ldr	r3, [pc, #412]	; (8003798 <_dtoa_r+0x610>)
 80035fc:	4640      	mov	r0, r8
 80035fe:	4649      	mov	r1, r9
 8003600:	f7fc fffe 	bl	8000600 <__aeabi_dmul>
 8003604:	e9dd 2300 	ldrd	r2, r3, [sp]
 8003608:	f7fd fa80 	bl	8000b0c <__aeabi_dcmpge>
 800360c:	9e03      	ldr	r6, [sp, #12]
 800360e:	4637      	mov	r7, r6
 8003610:	2800      	cmp	r0, #0
 8003612:	f040 824a 	bne.w	8003aaa <_dtoa_r+0x922>
 8003616:	9b02      	ldr	r3, [sp, #8]
 8003618:	9a02      	ldr	r2, [sp, #8]
 800361a:	1c5d      	adds	r5, r3, #1
 800361c:	2331      	movs	r3, #49	; 0x31
 800361e:	7013      	strb	r3, [r2, #0]
 8003620:	f10b 0b01 	add.w	fp, fp, #1
 8003624:	e245      	b.n	8003ab2 <_dtoa_r+0x92a>
 8003626:	07f2      	lsls	r2, r6, #31
 8003628:	d505      	bpl.n	8003636 <_dtoa_r+0x4ae>
 800362a:	e9d7 2300 	ldrd	r2, r3, [r7]
 800362e:	f7fc ffe7 	bl	8000600 <__aeabi_dmul>
 8003632:	3501      	adds	r5, #1
 8003634:	2301      	movs	r3, #1
 8003636:	1076      	asrs	r6, r6, #1
 8003638:	3708      	adds	r7, #8
 800363a:	e775      	b.n	8003528 <_dtoa_r+0x3a0>
 800363c:	2502      	movs	r5, #2
 800363e:	e777      	b.n	8003530 <_dtoa_r+0x3a8>
 8003640:	465f      	mov	r7, fp
 8003642:	9e03      	ldr	r6, [sp, #12]
 8003644:	e794      	b.n	8003570 <_dtoa_r+0x3e8>
 8003646:	9a02      	ldr	r2, [sp, #8]
 8003648:	4b4e      	ldr	r3, [pc, #312]	; (8003784 <_dtoa_r+0x5fc>)
 800364a:	4432      	add	r2, r6
 800364c:	9213      	str	r2, [sp, #76]	; 0x4c
 800364e:	9a09      	ldr	r2, [sp, #36]	; 0x24
 8003650:	1e71      	subs	r1, r6, #1
 8003652:	2a00      	cmp	r2, #0
 8003654:	d048      	beq.n	80036e8 <_dtoa_r+0x560>
 8003656:	eb03 03c1 	add.w	r3, r3, r1, lsl #3
 800365a:	e9d3 2300 	ldrd	r2, r3, [r3]
 800365e:	2000      	movs	r0, #0
 8003660:	494e      	ldr	r1, [pc, #312]	; (800379c <_dtoa_r+0x614>)
 8003662:	f7fd f8f7 	bl	8000854 <__aeabi_ddiv>
 8003666:	4642      	mov	r2, r8
 8003668:	464b      	mov	r3, r9
 800366a:	f7fc fe15 	bl	8000298 <__aeabi_dsub>
 800366e:	9d02      	ldr	r5, [sp, #8]
 8003670:	4680      	mov	r8, r0
 8003672:	4689      	mov	r9, r1
 8003674:	e9dd 0100 	ldrd	r0, r1, [sp]
 8003678:	f7fd fa72 	bl	8000b60 <__aeabi_d2iz>
 800367c:	4606      	mov	r6, r0
 800367e:	f7fc ff59 	bl	8000534 <__aeabi_i2d>
 8003682:	4602      	mov	r2, r0
 8003684:	460b      	mov	r3, r1
 8003686:	e9dd 0100 	ldrd	r0, r1, [sp]
 800368a:	f7fc fe05 	bl	8000298 <__aeabi_dsub>
 800368e:	3630      	adds	r6, #48	; 0x30
 8003690:	f805 6b01 	strb.w	r6, [r5], #1
 8003694:	4642      	mov	r2, r8
 8003696:	464b      	mov	r3, r9
 8003698:	e9cd 0100 	strd	r0, r1, [sp]
 800369c:	f7fd fa22 	bl	8000ae4 <__aeabi_dcmplt>
 80036a0:	2800      	cmp	r0, #0
 80036a2:	d165      	bne.n	8003770 <_dtoa_r+0x5e8>
 80036a4:	e9dd 2300 	ldrd	r2, r3, [sp]
 80036a8:	2000      	movs	r0, #0
 80036aa:	4938      	ldr	r1, [pc, #224]	; (800378c <_dtoa_r+0x604>)
 80036ac:	f7fc fdf4 	bl	8000298 <__aeabi_dsub>
 80036b0:	4642      	mov	r2, r8
 80036b2:	464b      	mov	r3, r9
 80036b4:	f7fd fa16 	bl	8000ae4 <__aeabi_dcmplt>
 80036b8:	2800      	cmp	r0, #0
 80036ba:	f040 80ba 	bne.w	8003832 <_dtoa_r+0x6aa>
 80036be:	9b13      	ldr	r3, [sp, #76]	; 0x4c
 80036c0:	429d      	cmp	r5, r3
 80036c2:	f43f af7e 	beq.w	80035c2 <_dtoa_r+0x43a>
 80036c6:	2200      	movs	r2, #0
 80036c8:	4b31      	ldr	r3, [pc, #196]	; (8003790 <_dtoa_r+0x608>)
 80036ca:	4640      	mov	r0, r8
 80036cc:	4649      	mov	r1, r9
 80036ce:	f7fc ff97 	bl	8000600 <__aeabi_dmul>
 80036d2:	2200      	movs	r2, #0
 80036d4:	4680      	mov	r8, r0
 80036d6:	4689      	mov	r9, r1
 80036d8:	4b2d      	ldr	r3, [pc, #180]	; (8003790 <_dtoa_r+0x608>)
 80036da:	e9dd 0100 	ldrd	r0, r1, [sp]
 80036de:	f7fc ff8f 	bl	8000600 <__aeabi_dmul>
 80036e2:	e9cd 0100 	strd	r0, r1, [sp]
 80036e6:	e7c5      	b.n	8003674 <_dtoa_r+0x4ec>
 80036e8:	eb03 01c1 	add.w	r1, r3, r1, lsl #3
 80036ec:	4642      	mov	r2, r8
 80036ee:	464b      	mov	r3, r9
 80036f0:	e9d1 0100 	ldrd	r0, r1, [r1]
 80036f4:	f7fc ff84 	bl	8000600 <__aeabi_dmul>
 80036f8:	e9cd 0110 	strd	r0, r1, [sp, #64]	; 0x40
 80036fc:	9d02      	ldr	r5, [sp, #8]
 80036fe:	e9dd 0100 	ldrd	r0, r1, [sp]
 8003702:	f7fd fa2d 	bl	8000b60 <__aeabi_d2iz>
 8003706:	4606      	mov	r6, r0
 8003708:	f7fc ff14 	bl	8000534 <__aeabi_i2d>
 800370c:	3630      	adds	r6, #48	; 0x30
 800370e:	4602      	mov	r2, r0
 8003710:	460b      	mov	r3, r1
 8003712:	e9dd 0100 	ldrd	r0, r1, [sp]
 8003716:	f7fc fdbf 	bl	8000298 <__aeabi_dsub>
 800371a:	f805 6b01 	strb.w	r6, [r5], #1
 800371e:	9b13      	ldr	r3, [sp, #76]	; 0x4c
 8003720:	42ab      	cmp	r3, r5
 8003722:	4680      	mov	r8, r0
 8003724:	4689      	mov	r9, r1
 8003726:	f04f 0200 	mov.w	r2, #0
 800372a:	d125      	bne.n	8003778 <_dtoa_r+0x5f0>
 800372c:	4b1b      	ldr	r3, [pc, #108]	; (800379c <_dtoa_r+0x614>)
 800372e:	e9dd 0110 	ldrd	r0, r1, [sp, #64]	; 0x40
 8003732:	f7fc fdb3 	bl	800029c <__adddf3>
 8003736:	4602      	mov	r2, r0
 8003738:	460b      	mov	r3, r1
 800373a:	4640      	mov	r0, r8
 800373c:	4649      	mov	r1, r9
 800373e:	f7fd f9ef 	bl	8000b20 <__aeabi_dcmpgt>
 8003742:	2800      	cmp	r0, #0
 8003744:	d175      	bne.n	8003832 <_dtoa_r+0x6aa>
 8003746:	e9dd 2310 	ldrd	r2, r3, [sp, #64]	; 0x40
 800374a:	2000      	movs	r0, #0
 800374c:	4913      	ldr	r1, [pc, #76]	; (800379c <_dtoa_r+0x614>)
 800374e:	f7fc fda3 	bl	8000298 <__aeabi_dsub>
 8003752:	4602      	mov	r2, r0
 8003754:	460b      	mov	r3, r1
 8003756:	4640      	mov	r0, r8
 8003758:	4649      	mov	r1, r9
 800375a:	f7fd f9c3 	bl	8000ae4 <__aeabi_dcmplt>
 800375e:	2800      	cmp	r0, #0
 8003760:	f43f af2f 	beq.w	80035c2 <_dtoa_r+0x43a>
 8003764:	f815 3c01 	ldrb.w	r3, [r5, #-1]
 8003768:	2b30      	cmp	r3, #48	; 0x30
 800376a:	f105 32ff 	add.w	r2, r5, #4294967295
 800376e:	d001      	beq.n	8003774 <_dtoa_r+0x5ec>
 8003770:	46bb      	mov	fp, r7
 8003772:	e04d      	b.n	8003810 <_dtoa_r+0x688>
 8003774:	4615      	mov	r5, r2
 8003776:	e7f5      	b.n	8003764 <_dtoa_r+0x5dc>
 8003778:	4b05      	ldr	r3, [pc, #20]	; (8003790 <_dtoa_r+0x608>)
 800377a:	f7fc ff41 	bl	8000600 <__aeabi_dmul>
 800377e:	e9cd 0100 	strd	r0, r1, [sp]
 8003782:	e7bc      	b.n	80036fe <_dtoa_r+0x576>
 8003784:	08005a30 	.word	0x08005a30
 8003788:	08005a08 	.word	0x08005a08
 800378c:	3ff00000 	.word	0x3ff00000
 8003790:	40240000 	.word	0x40240000
 8003794:	401c0000 	.word	0x401c0000
 8003798:	40140000 	.word	0x40140000
 800379c:	3fe00000 	.word	0x3fe00000
 80037a0:	e9dd 6700 	ldrd	r6, r7, [sp]
 80037a4:	9d02      	ldr	r5, [sp, #8]
 80037a6:	4642      	mov	r2, r8
 80037a8:	464b      	mov	r3, r9
 80037aa:	4630      	mov	r0, r6
 80037ac:	4639      	mov	r1, r7
 80037ae:	f7fd f851 	bl	8000854 <__aeabi_ddiv>
 80037b2:	f7fd f9d5 	bl	8000b60 <__aeabi_d2iz>
 80037b6:	9000      	str	r0, [sp, #0]
 80037b8:	f7fc febc 	bl	8000534 <__aeabi_i2d>
 80037bc:	4642      	mov	r2, r8
 80037be:	464b      	mov	r3, r9
 80037c0:	f7fc ff1e 	bl	8000600 <__aeabi_dmul>
 80037c4:	4602      	mov	r2, r0
 80037c6:	460b      	mov	r3, r1
 80037c8:	4630      	mov	r0, r6
 80037ca:	4639      	mov	r1, r7
 80037cc:	f7fc fd64 	bl	8000298 <__aeabi_dsub>
 80037d0:	9e00      	ldr	r6, [sp, #0]
 80037d2:	9f03      	ldr	r7, [sp, #12]
 80037d4:	3630      	adds	r6, #48	; 0x30
 80037d6:	f805 6b01 	strb.w	r6, [r5], #1
 80037da:	9e02      	ldr	r6, [sp, #8]
 80037dc:	1bae      	subs	r6, r5, r6
 80037de:	42b7      	cmp	r7, r6
 80037e0:	4602      	mov	r2, r0
 80037e2:	460b      	mov	r3, r1
 80037e4:	d138      	bne.n	8003858 <_dtoa_r+0x6d0>
 80037e6:	f7fc fd59 	bl	800029c <__adddf3>
 80037ea:	4606      	mov	r6, r0
 80037ec:	460f      	mov	r7, r1
 80037ee:	4602      	mov	r2, r0
 80037f0:	460b      	mov	r3, r1
 80037f2:	4640      	mov	r0, r8
 80037f4:	4649      	mov	r1, r9
 80037f6:	f7fd f975 	bl	8000ae4 <__aeabi_dcmplt>
 80037fa:	b9c8      	cbnz	r0, 8003830 <_dtoa_r+0x6a8>
 80037fc:	4632      	mov	r2, r6
 80037fe:	463b      	mov	r3, r7
 8003800:	4640      	mov	r0, r8
 8003802:	4649      	mov	r1, r9
 8003804:	f7fd f964 	bl	8000ad0 <__aeabi_dcmpeq>
 8003808:	b110      	cbz	r0, 8003810 <_dtoa_r+0x688>
 800380a:	9b00      	ldr	r3, [sp, #0]
 800380c:	07db      	lsls	r3, r3, #31
 800380e:	d40f      	bmi.n	8003830 <_dtoa_r+0x6a8>
 8003810:	4651      	mov	r1, sl
 8003812:	4620      	mov	r0, r4
 8003814:	f001 f9ac 	bl	8004b70 <_Bfree>
 8003818:	2300      	movs	r3, #0
 800381a:	9a0f      	ldr	r2, [sp, #60]	; 0x3c
 800381c:	702b      	strb	r3, [r5, #0]
 800381e:	f10b 0301 	add.w	r3, fp, #1
 8003822:	6013      	str	r3, [r2, #0]
 8003824:	9b21      	ldr	r3, [sp, #132]	; 0x84
 8003826:	2b00      	cmp	r3, #0
 8003828:	f43f acf8 	beq.w	800321c <_dtoa_r+0x94>
 800382c:	601d      	str	r5, [r3, #0]
 800382e:	e4f5      	b.n	800321c <_dtoa_r+0x94>
 8003830:	465f      	mov	r7, fp
 8003832:	f815 2c01 	ldrb.w	r2, [r5, #-1]
 8003836:	2a39      	cmp	r2, #57	; 0x39
 8003838:	f105 33ff 	add.w	r3, r5, #4294967295
 800383c:	d106      	bne.n	800384c <_dtoa_r+0x6c4>
 800383e:	9a02      	ldr	r2, [sp, #8]
 8003840:	429a      	cmp	r2, r3
 8003842:	d107      	bne.n	8003854 <_dtoa_r+0x6cc>
 8003844:	2330      	movs	r3, #48	; 0x30
 8003846:	7013      	strb	r3, [r2, #0]
 8003848:	3701      	adds	r7, #1
 800384a:	4613      	mov	r3, r2
 800384c:	781a      	ldrb	r2, [r3, #0]
 800384e:	3201      	adds	r2, #1
 8003850:	701a      	strb	r2, [r3, #0]
 8003852:	e78d      	b.n	8003770 <_dtoa_r+0x5e8>
 8003854:	461d      	mov	r5, r3
 8003856:	e7ec      	b.n	8003832 <_dtoa_r+0x6aa>
 8003858:	2200      	movs	r2, #0
 800385a:	4ba4      	ldr	r3, [pc, #656]	; (8003aec <_dtoa_r+0x964>)
 800385c:	f7fc fed0 	bl	8000600 <__aeabi_dmul>
 8003860:	2200      	movs	r2, #0
 8003862:	2300      	movs	r3, #0
 8003864:	4606      	mov	r6, r0
 8003866:	460f      	mov	r7, r1
 8003868:	f7fd f932 	bl	8000ad0 <__aeabi_dcmpeq>
 800386c:	2800      	cmp	r0, #0
 800386e:	d09a      	beq.n	80037a6 <_dtoa_r+0x61e>
 8003870:	e7ce      	b.n	8003810 <_dtoa_r+0x688>
 8003872:	9a09      	ldr	r2, [sp, #36]	; 0x24
 8003874:	2a00      	cmp	r2, #0
 8003876:	f000 80cd 	beq.w	8003a14 <_dtoa_r+0x88c>
 800387a:	9a07      	ldr	r2, [sp, #28]
 800387c:	2a01      	cmp	r2, #1
 800387e:	f300 80af 	bgt.w	80039e0 <_dtoa_r+0x858>
 8003882:	9a12      	ldr	r2, [sp, #72]	; 0x48
 8003884:	2a00      	cmp	r2, #0
 8003886:	f000 80a7 	beq.w	80039d8 <_dtoa_r+0x850>
 800388a:	f203 4333 	addw	r3, r3, #1075	; 0x433
 800388e:	9e08      	ldr	r6, [sp, #32]
 8003890:	9d05      	ldr	r5, [sp, #20]
 8003892:	9a05      	ldr	r2, [sp, #20]
 8003894:	441a      	add	r2, r3
 8003896:	9205      	str	r2, [sp, #20]
 8003898:	9a06      	ldr	r2, [sp, #24]
 800389a:	2101      	movs	r1, #1
 800389c:	441a      	add	r2, r3
 800389e:	4620      	mov	r0, r4
 80038a0:	9206      	str	r2, [sp, #24]
 80038a2:	f001 fa05 	bl	8004cb0 <__i2b>
 80038a6:	4607      	mov	r7, r0
 80038a8:	2d00      	cmp	r5, #0
 80038aa:	dd0c      	ble.n	80038c6 <_dtoa_r+0x73e>
 80038ac:	9b06      	ldr	r3, [sp, #24]
 80038ae:	2b00      	cmp	r3, #0
 80038b0:	dd09      	ble.n	80038c6 <_dtoa_r+0x73e>
 80038b2:	42ab      	cmp	r3, r5
 80038b4:	9a05      	ldr	r2, [sp, #20]
 80038b6:	bfa8      	it	ge
 80038b8:	462b      	movge	r3, r5
 80038ba:	1ad2      	subs	r2, r2, r3
 80038bc:	9205      	str	r2, [sp, #20]
 80038be:	9a06      	ldr	r2, [sp, #24]
 80038c0:	1aed      	subs	r5, r5, r3
 80038c2:	1ad3      	subs	r3, r2, r3
 80038c4:	9306      	str	r3, [sp, #24]
 80038c6:	9b08      	ldr	r3, [sp, #32]
 80038c8:	b1f3      	cbz	r3, 8003908 <_dtoa_r+0x780>
 80038ca:	9b09      	ldr	r3, [sp, #36]	; 0x24
 80038cc:	2b00      	cmp	r3, #0
 80038ce:	f000 80a5 	beq.w	8003a1c <_dtoa_r+0x894>
 80038d2:	2e00      	cmp	r6, #0
 80038d4:	dd10      	ble.n	80038f8 <_dtoa_r+0x770>
 80038d6:	4639      	mov	r1, r7
 80038d8:	4632      	mov	r2, r6
 80038da:	4620      	mov	r0, r4
 80038dc:	f001 fa7e 	bl	8004ddc <__pow5mult>
 80038e0:	4652      	mov	r2, sl
 80038e2:	4601      	mov	r1, r0
 80038e4:	4607      	mov	r7, r0
 80038e6:	4620      	mov	r0, r4
 80038e8:	f001 f9eb 	bl	8004cc2 <__multiply>
 80038ec:	4651      	mov	r1, sl
 80038ee:	4680      	mov	r8, r0
 80038f0:	4620      	mov	r0, r4
 80038f2:	f001 f93d 	bl	8004b70 <_Bfree>
 80038f6:	46c2      	mov	sl, r8
 80038f8:	9b08      	ldr	r3, [sp, #32]
 80038fa:	1b9a      	subs	r2, r3, r6
 80038fc:	d004      	beq.n	8003908 <_dtoa_r+0x780>
 80038fe:	4651      	mov	r1, sl
 8003900:	4620      	mov	r0, r4
 8003902:	f001 fa6b 	bl	8004ddc <__pow5mult>
 8003906:	4682      	mov	sl, r0
 8003908:	2101      	movs	r1, #1
 800390a:	4620      	mov	r0, r4
 800390c:	f001 f9d0 	bl	8004cb0 <__i2b>
 8003910:	9b0b      	ldr	r3, [sp, #44]	; 0x2c
 8003912:	2b00      	cmp	r3, #0
 8003914:	4606      	mov	r6, r0
 8003916:	f340 8083 	ble.w	8003a20 <_dtoa_r+0x898>
 800391a:	461a      	mov	r2, r3
 800391c:	4601      	mov	r1, r0
 800391e:	4620      	mov	r0, r4
 8003920:	f001 fa5c 	bl	8004ddc <__pow5mult>
 8003924:	9b07      	ldr	r3, [sp, #28]
 8003926:	2b01      	cmp	r3, #1
 8003928:	4606      	mov	r6, r0
 800392a:	dd7c      	ble.n	8003a26 <_dtoa_r+0x89e>
 800392c:	f04f 0800 	mov.w	r8, #0
 8003930:	6933      	ldr	r3, [r6, #16]
 8003932:	eb06 0383 	add.w	r3, r6, r3, lsl #2
 8003936:	6918      	ldr	r0, [r3, #16]
 8003938:	f001 f96c 	bl	8004c14 <__hi0bits>
 800393c:	f1c0 0020 	rsb	r0, r0, #32
 8003940:	9b06      	ldr	r3, [sp, #24]
 8003942:	4418      	add	r0, r3
 8003944:	f010 001f 	ands.w	r0, r0, #31
 8003948:	f000 8096 	beq.w	8003a78 <_dtoa_r+0x8f0>
 800394c:	f1c0 0320 	rsb	r3, r0, #32
 8003950:	2b04      	cmp	r3, #4
 8003952:	f340 8087 	ble.w	8003a64 <_dtoa_r+0x8dc>
 8003956:	9b05      	ldr	r3, [sp, #20]
 8003958:	f1c0 001c 	rsb	r0, r0, #28
 800395c:	4403      	add	r3, r0
 800395e:	9305      	str	r3, [sp, #20]
 8003960:	9b06      	ldr	r3, [sp, #24]
 8003962:	4405      	add	r5, r0
 8003964:	4403      	add	r3, r0
 8003966:	9306      	str	r3, [sp, #24]
 8003968:	9b05      	ldr	r3, [sp, #20]
 800396a:	2b00      	cmp	r3, #0
 800396c:	dd05      	ble.n	800397a <_dtoa_r+0x7f2>
 800396e:	4651      	mov	r1, sl
 8003970:	461a      	mov	r2, r3
 8003972:	4620      	mov	r0, r4
 8003974:	f001 fa80 	bl	8004e78 <__lshift>
 8003978:	4682      	mov	sl, r0
 800397a:	9b06      	ldr	r3, [sp, #24]
 800397c:	2b00      	cmp	r3, #0
 800397e:	dd05      	ble.n	800398c <_dtoa_r+0x804>
 8003980:	4631      	mov	r1, r6
 8003982:	461a      	mov	r2, r3
 8003984:	4620      	mov	r0, r4
 8003986:	f001 fa77 	bl	8004e78 <__lshift>
 800398a:	4606      	mov	r6, r0
 800398c:	9b0e      	ldr	r3, [sp, #56]	; 0x38
 800398e:	2b00      	cmp	r3, #0
 8003990:	d074      	beq.n	8003a7c <_dtoa_r+0x8f4>
 8003992:	4631      	mov	r1, r6
 8003994:	4650      	mov	r0, sl
 8003996:	f001 fac0 	bl	8004f1a <__mcmp>
 800399a:	2800      	cmp	r0, #0
 800399c:	da6e      	bge.n	8003a7c <_dtoa_r+0x8f4>
 800399e:	2300      	movs	r3, #0
 80039a0:	4651      	mov	r1, sl
 80039a2:	220a      	movs	r2, #10
 80039a4:	4620      	mov	r0, r4
 80039a6:	f001 f8fa 	bl	8004b9e <__multadd>
 80039aa:	9b09      	ldr	r3, [sp, #36]	; 0x24
 80039ac:	f10b 3bff 	add.w	fp, fp, #4294967295
 80039b0:	4682      	mov	sl, r0
 80039b2:	2b00      	cmp	r3, #0
 80039b4:	f000 81a8 	beq.w	8003d08 <_dtoa_r+0xb80>
 80039b8:	2300      	movs	r3, #0
 80039ba:	4639      	mov	r1, r7
 80039bc:	220a      	movs	r2, #10
 80039be:	4620      	mov	r0, r4
 80039c0:	f001 f8ed 	bl	8004b9e <__multadd>
 80039c4:	9b04      	ldr	r3, [sp, #16]
 80039c6:	2b00      	cmp	r3, #0
 80039c8:	4607      	mov	r7, r0
 80039ca:	f300 80c8 	bgt.w	8003b5e <_dtoa_r+0x9d6>
 80039ce:	9b07      	ldr	r3, [sp, #28]
 80039d0:	2b02      	cmp	r3, #2
 80039d2:	f340 80c4 	ble.w	8003b5e <_dtoa_r+0x9d6>
 80039d6:	e059      	b.n	8003a8c <_dtoa_r+0x904>
 80039d8:	9b14      	ldr	r3, [sp, #80]	; 0x50
 80039da:	f1c3 0336 	rsb	r3, r3, #54	; 0x36
 80039de:	e756      	b.n	800388e <_dtoa_r+0x706>
 80039e0:	9b03      	ldr	r3, [sp, #12]
 80039e2:	1e5e      	subs	r6, r3, #1
 80039e4:	9b08      	ldr	r3, [sp, #32]
 80039e6:	42b3      	cmp	r3, r6
 80039e8:	bfbf      	itttt	lt
 80039ea:	9b08      	ldrlt	r3, [sp, #32]
 80039ec:	9608      	strlt	r6, [sp, #32]
 80039ee:	1af2      	sublt	r2, r6, r3
 80039f0:	9b0b      	ldrlt	r3, [sp, #44]	; 0x2c
 80039f2:	bfb6      	itet	lt
 80039f4:	189b      	addlt	r3, r3, r2
 80039f6:	1b9e      	subge	r6, r3, r6
 80039f8:	930b      	strlt	r3, [sp, #44]	; 0x2c
 80039fa:	9b03      	ldr	r3, [sp, #12]
 80039fc:	bfb8      	it	lt
 80039fe:	2600      	movlt	r6, #0
 8003a00:	2b00      	cmp	r3, #0
 8003a02:	bfb9      	ittee	lt
 8003a04:	9b05      	ldrlt	r3, [sp, #20]
 8003a06:	9a03      	ldrlt	r2, [sp, #12]
 8003a08:	9d05      	ldrge	r5, [sp, #20]
 8003a0a:	9b03      	ldrge	r3, [sp, #12]
 8003a0c:	bfbc      	itt	lt
 8003a0e:	1a9d      	sublt	r5, r3, r2
 8003a10:	2300      	movlt	r3, #0
 8003a12:	e73e      	b.n	8003892 <_dtoa_r+0x70a>
 8003a14:	9e08      	ldr	r6, [sp, #32]
 8003a16:	9d05      	ldr	r5, [sp, #20]
 8003a18:	9f09      	ldr	r7, [sp, #36]	; 0x24
 8003a1a:	e745      	b.n	80038a8 <_dtoa_r+0x720>
 8003a1c:	9a08      	ldr	r2, [sp, #32]
 8003a1e:	e76e      	b.n	80038fe <_dtoa_r+0x776>
 8003a20:	9b07      	ldr	r3, [sp, #28]
 8003a22:	2b01      	cmp	r3, #1
 8003a24:	dc19      	bgt.n	8003a5a <_dtoa_r+0x8d2>
 8003a26:	9b00      	ldr	r3, [sp, #0]
 8003a28:	b9bb      	cbnz	r3, 8003a5a <_dtoa_r+0x8d2>
 8003a2a:	9b01      	ldr	r3, [sp, #4]
 8003a2c:	f3c3 0313 	ubfx	r3, r3, #0, #20
 8003a30:	b99b      	cbnz	r3, 8003a5a <_dtoa_r+0x8d2>
 8003a32:	9b01      	ldr	r3, [sp, #4]
 8003a34:	f023 4300 	bic.w	r3, r3, #2147483648	; 0x80000000
 8003a38:	0d1b      	lsrs	r3, r3, #20
 8003a3a:	051b      	lsls	r3, r3, #20
 8003a3c:	b183      	cbz	r3, 8003a60 <_dtoa_r+0x8d8>
 8003a3e:	9b05      	ldr	r3, [sp, #20]
 8003a40:	3301      	adds	r3, #1
 8003a42:	9305      	str	r3, [sp, #20]
 8003a44:	9b06      	ldr	r3, [sp, #24]
 8003a46:	3301      	adds	r3, #1
 8003a48:	9306      	str	r3, [sp, #24]
 8003a4a:	f04f 0801 	mov.w	r8, #1
 8003a4e:	9b0b      	ldr	r3, [sp, #44]	; 0x2c
 8003a50:	2b00      	cmp	r3, #0
 8003a52:	f47f af6d 	bne.w	8003930 <_dtoa_r+0x7a8>
 8003a56:	2001      	movs	r0, #1
 8003a58:	e772      	b.n	8003940 <_dtoa_r+0x7b8>
 8003a5a:	f04f 0800 	mov.w	r8, #0
 8003a5e:	e7f6      	b.n	8003a4e <_dtoa_r+0x8c6>
 8003a60:	4698      	mov	r8, r3
 8003a62:	e7f4      	b.n	8003a4e <_dtoa_r+0x8c6>
 8003a64:	d080      	beq.n	8003968 <_dtoa_r+0x7e0>
 8003a66:	9a05      	ldr	r2, [sp, #20]
 8003a68:	331c      	adds	r3, #28
 8003a6a:	441a      	add	r2, r3
 8003a6c:	9205      	str	r2, [sp, #20]
 8003a6e:	9a06      	ldr	r2, [sp, #24]
 8003a70:	441a      	add	r2, r3
 8003a72:	441d      	add	r5, r3
 8003a74:	4613      	mov	r3, r2
 8003a76:	e776      	b.n	8003966 <_dtoa_r+0x7de>
 8003a78:	4603      	mov	r3, r0
 8003a7a:	e7f4      	b.n	8003a66 <_dtoa_r+0x8de>
 8003a7c:	9b03      	ldr	r3, [sp, #12]
 8003a7e:	2b00      	cmp	r3, #0
 8003a80:	dc36      	bgt.n	8003af0 <_dtoa_r+0x968>
 8003a82:	9b07      	ldr	r3, [sp, #28]
 8003a84:	2b02      	cmp	r3, #2
 8003a86:	dd33      	ble.n	8003af0 <_dtoa_r+0x968>
 8003a88:	9b03      	ldr	r3, [sp, #12]
 8003a8a:	9304      	str	r3, [sp, #16]
 8003a8c:	9b04      	ldr	r3, [sp, #16]
 8003a8e:	b963      	cbnz	r3, 8003aaa <_dtoa_r+0x922>
 8003a90:	4631      	mov	r1, r6
 8003a92:	2205      	movs	r2, #5
 8003a94:	4620      	mov	r0, r4
 8003a96:	f001 f882 	bl	8004b9e <__multadd>
 8003a9a:	4601      	mov	r1, r0
 8003a9c:	4606      	mov	r6, r0
 8003a9e:	4650      	mov	r0, sl
 8003aa0:	f001 fa3b 	bl	8004f1a <__mcmp>
 8003aa4:	2800      	cmp	r0, #0
 8003aa6:	f73f adb6 	bgt.w	8003616 <_dtoa_r+0x48e>
 8003aaa:	9b0a      	ldr	r3, [sp, #40]	; 0x28
 8003aac:	9d02      	ldr	r5, [sp, #8]
 8003aae:	ea6f 0b03 	mvn.w	fp, r3
 8003ab2:	2300      	movs	r3, #0
 8003ab4:	9303      	str	r3, [sp, #12]
 8003ab6:	4631      	mov	r1, r6
 8003ab8:	4620      	mov	r0, r4
 8003aba:	f001 f859 	bl	8004b70 <_Bfree>
 8003abe:	2f00      	cmp	r7, #0
 8003ac0:	f43f aea6 	beq.w	8003810 <_dtoa_r+0x688>
 8003ac4:	9b03      	ldr	r3, [sp, #12]
 8003ac6:	b12b      	cbz	r3, 8003ad4 <_dtoa_r+0x94c>
 8003ac8:	42bb      	cmp	r3, r7
 8003aca:	d003      	beq.n	8003ad4 <_dtoa_r+0x94c>
 8003acc:	4619      	mov	r1, r3
 8003ace:	4620      	mov	r0, r4
 8003ad0:	f001 f84e 	bl	8004b70 <_Bfree>
 8003ad4:	4639      	mov	r1, r7
 8003ad6:	4620      	mov	r0, r4
 8003ad8:	f001 f84a 	bl	8004b70 <_Bfree>
 8003adc:	e698      	b.n	8003810 <_dtoa_r+0x688>
 8003ade:	2600      	movs	r6, #0
 8003ae0:	4637      	mov	r7, r6
 8003ae2:	e7e2      	b.n	8003aaa <_dtoa_r+0x922>
 8003ae4:	46bb      	mov	fp, r7
 8003ae6:	4637      	mov	r7, r6
 8003ae8:	e595      	b.n	8003616 <_dtoa_r+0x48e>
 8003aea:	bf00      	nop
 8003aec:	40240000 	.word	0x40240000
 8003af0:	9b09      	ldr	r3, [sp, #36]	; 0x24
 8003af2:	bb93      	cbnz	r3, 8003b5a <_dtoa_r+0x9d2>
 8003af4:	9b03      	ldr	r3, [sp, #12]
 8003af6:	9304      	str	r3, [sp, #16]
 8003af8:	9d02      	ldr	r5, [sp, #8]
 8003afa:	4631      	mov	r1, r6
 8003afc:	4650      	mov	r0, sl
 8003afe:	f7ff fab5 	bl	800306c <quorem>
 8003b02:	f100 0930 	add.w	r9, r0, #48	; 0x30
 8003b06:	f805 9b01 	strb.w	r9, [r5], #1
 8003b0a:	9b02      	ldr	r3, [sp, #8]
 8003b0c:	9a04      	ldr	r2, [sp, #16]
 8003b0e:	1aeb      	subs	r3, r5, r3
 8003b10:	429a      	cmp	r2, r3
 8003b12:	f300 80dc 	bgt.w	8003cce <_dtoa_r+0xb46>
 8003b16:	9b02      	ldr	r3, [sp, #8]
 8003b18:	2a01      	cmp	r2, #1
 8003b1a:	bfac      	ite	ge
 8003b1c:	189b      	addge	r3, r3, r2
 8003b1e:	3301      	addlt	r3, #1
 8003b20:	4698      	mov	r8, r3
 8003b22:	2300      	movs	r3, #0
 8003b24:	9303      	str	r3, [sp, #12]
 8003b26:	4651      	mov	r1, sl
 8003b28:	2201      	movs	r2, #1
 8003b2a:	4620      	mov	r0, r4
 8003b2c:	f001 f9a4 	bl	8004e78 <__lshift>
 8003b30:	4631      	mov	r1, r6
 8003b32:	4682      	mov	sl, r0
 8003b34:	f001 f9f1 	bl	8004f1a <__mcmp>
 8003b38:	2800      	cmp	r0, #0
 8003b3a:	f300 808d 	bgt.w	8003c58 <_dtoa_r+0xad0>
 8003b3e:	d103      	bne.n	8003b48 <_dtoa_r+0x9c0>
 8003b40:	f019 0f01 	tst.w	r9, #1
 8003b44:	f040 8088 	bne.w	8003c58 <_dtoa_r+0xad0>
 8003b48:	4645      	mov	r5, r8
 8003b4a:	f815 3c01 	ldrb.w	r3, [r5, #-1]
 8003b4e:	2b30      	cmp	r3, #48	; 0x30
 8003b50:	f105 32ff 	add.w	r2, r5, #4294967295
 8003b54:	d1af      	bne.n	8003ab6 <_dtoa_r+0x92e>
 8003b56:	4615      	mov	r5, r2
 8003b58:	e7f7      	b.n	8003b4a <_dtoa_r+0x9c2>
 8003b5a:	9b03      	ldr	r3, [sp, #12]
 8003b5c:	9304      	str	r3, [sp, #16]
 8003b5e:	2d00      	cmp	r5, #0
 8003b60:	dd05      	ble.n	8003b6e <_dtoa_r+0x9e6>
 8003b62:	4639      	mov	r1, r7
 8003b64:	462a      	mov	r2, r5
 8003b66:	4620      	mov	r0, r4
 8003b68:	f001 f986 	bl	8004e78 <__lshift>
 8003b6c:	4607      	mov	r7, r0
 8003b6e:	f1b8 0f00 	cmp.w	r8, #0
 8003b72:	d04c      	beq.n	8003c0e <_dtoa_r+0xa86>
 8003b74:	6879      	ldr	r1, [r7, #4]
 8003b76:	4620      	mov	r0, r4
 8003b78:	f000 ffc6 	bl	8004b08 <_Balloc>
 8003b7c:	693a      	ldr	r2, [r7, #16]
 8003b7e:	3202      	adds	r2, #2
 8003b80:	4605      	mov	r5, r0
 8003b82:	0092      	lsls	r2, r2, #2
 8003b84:	f107 010c 	add.w	r1, r7, #12
 8003b88:	300c      	adds	r0, #12
 8003b8a:	f000 ff83 	bl	8004a94 <memcpy>
 8003b8e:	2201      	movs	r2, #1
 8003b90:	4629      	mov	r1, r5
 8003b92:	4620      	mov	r0, r4
 8003b94:	f001 f970 	bl	8004e78 <__lshift>
 8003b98:	9b00      	ldr	r3, [sp, #0]
 8003b9a:	f8dd 8008 	ldr.w	r8, [sp, #8]
 8003b9e:	9703      	str	r7, [sp, #12]
 8003ba0:	f003 0301 	and.w	r3, r3, #1
 8003ba4:	4607      	mov	r7, r0
 8003ba6:	9305      	str	r3, [sp, #20]
 8003ba8:	4631      	mov	r1, r6
 8003baa:	4650      	mov	r0, sl
 8003bac:	f7ff fa5e 	bl	800306c <quorem>
 8003bb0:	9903      	ldr	r1, [sp, #12]
 8003bb2:	4605      	mov	r5, r0
 8003bb4:	f100 0930 	add.w	r9, r0, #48	; 0x30
 8003bb8:	4650      	mov	r0, sl
 8003bba:	f001 f9ae 	bl	8004f1a <__mcmp>
 8003bbe:	463a      	mov	r2, r7
 8003bc0:	9000      	str	r0, [sp, #0]
 8003bc2:	4631      	mov	r1, r6
 8003bc4:	4620      	mov	r0, r4
 8003bc6:	f001 f9c2 	bl	8004f4e <__mdiff>
 8003bca:	68c3      	ldr	r3, [r0, #12]
 8003bcc:	4602      	mov	r2, r0
 8003bce:	bb03      	cbnz	r3, 8003c12 <_dtoa_r+0xa8a>
 8003bd0:	4601      	mov	r1, r0
 8003bd2:	9006      	str	r0, [sp, #24]
 8003bd4:	4650      	mov	r0, sl
 8003bd6:	f001 f9a0 	bl	8004f1a <__mcmp>
 8003bda:	9a06      	ldr	r2, [sp, #24]
 8003bdc:	4603      	mov	r3, r0
 8003bde:	4611      	mov	r1, r2
 8003be0:	4620      	mov	r0, r4
 8003be2:	9306      	str	r3, [sp, #24]
 8003be4:	f000 ffc4 	bl	8004b70 <_Bfree>
 8003be8:	9b06      	ldr	r3, [sp, #24]
 8003bea:	b9a3      	cbnz	r3, 8003c16 <_dtoa_r+0xa8e>
 8003bec:	9a07      	ldr	r2, [sp, #28]
 8003bee:	b992      	cbnz	r2, 8003c16 <_dtoa_r+0xa8e>
 8003bf0:	9a05      	ldr	r2, [sp, #20]
 8003bf2:	b982      	cbnz	r2, 8003c16 <_dtoa_r+0xa8e>
 8003bf4:	f1b9 0f39 	cmp.w	r9, #57	; 0x39
 8003bf8:	d029      	beq.n	8003c4e <_dtoa_r+0xac6>
 8003bfa:	9b00      	ldr	r3, [sp, #0]
 8003bfc:	2b00      	cmp	r3, #0
 8003bfe:	dd01      	ble.n	8003c04 <_dtoa_r+0xa7c>
 8003c00:	f105 0931 	add.w	r9, r5, #49	; 0x31
 8003c04:	f108 0501 	add.w	r5, r8, #1
 8003c08:	f888 9000 	strb.w	r9, [r8]
 8003c0c:	e753      	b.n	8003ab6 <_dtoa_r+0x92e>
 8003c0e:	4638      	mov	r0, r7
 8003c10:	e7c2      	b.n	8003b98 <_dtoa_r+0xa10>
 8003c12:	2301      	movs	r3, #1
 8003c14:	e7e3      	b.n	8003bde <_dtoa_r+0xa56>
 8003c16:	9a00      	ldr	r2, [sp, #0]
 8003c18:	2a00      	cmp	r2, #0
 8003c1a:	db04      	blt.n	8003c26 <_dtoa_r+0xa9e>
 8003c1c:	d125      	bne.n	8003c6a <_dtoa_r+0xae2>
 8003c1e:	9a07      	ldr	r2, [sp, #28]
 8003c20:	bb1a      	cbnz	r2, 8003c6a <_dtoa_r+0xae2>
 8003c22:	9a05      	ldr	r2, [sp, #20]
 8003c24:	bb0a      	cbnz	r2, 8003c6a <_dtoa_r+0xae2>
 8003c26:	2b00      	cmp	r3, #0
 8003c28:	ddec      	ble.n	8003c04 <_dtoa_r+0xa7c>
 8003c2a:	4651      	mov	r1, sl
 8003c2c:	2201      	movs	r2, #1
 8003c2e:	4620      	mov	r0, r4
 8003c30:	f001 f922 	bl	8004e78 <__lshift>
 8003c34:	4631      	mov	r1, r6
 8003c36:	4682      	mov	sl, r0
 8003c38:	f001 f96f 	bl	8004f1a <__mcmp>
 8003c3c:	2800      	cmp	r0, #0
 8003c3e:	dc03      	bgt.n	8003c48 <_dtoa_r+0xac0>
 8003c40:	d1e0      	bne.n	8003c04 <_dtoa_r+0xa7c>
 8003c42:	f019 0f01 	tst.w	r9, #1
 8003c46:	d0dd      	beq.n	8003c04 <_dtoa_r+0xa7c>
 8003c48:	f1b9 0f39 	cmp.w	r9, #57	; 0x39
 8003c4c:	d1d8      	bne.n	8003c00 <_dtoa_r+0xa78>
 8003c4e:	2339      	movs	r3, #57	; 0x39
 8003c50:	f888 3000 	strb.w	r3, [r8]
 8003c54:	f108 0801 	add.w	r8, r8, #1
 8003c58:	4645      	mov	r5, r8
 8003c5a:	f815 3c01 	ldrb.w	r3, [r5, #-1]
 8003c5e:	2b39      	cmp	r3, #57	; 0x39
 8003c60:	f105 32ff 	add.w	r2, r5, #4294967295
 8003c64:	d03b      	beq.n	8003cde <_dtoa_r+0xb56>
 8003c66:	3301      	adds	r3, #1
 8003c68:	e040      	b.n	8003cec <_dtoa_r+0xb64>
 8003c6a:	2b00      	cmp	r3, #0
 8003c6c:	f108 0501 	add.w	r5, r8, #1
 8003c70:	dd05      	ble.n	8003c7e <_dtoa_r+0xaf6>
 8003c72:	f1b9 0f39 	cmp.w	r9, #57	; 0x39
 8003c76:	d0ea      	beq.n	8003c4e <_dtoa_r+0xac6>
 8003c78:	f109 0901 	add.w	r9, r9, #1
 8003c7c:	e7c4      	b.n	8003c08 <_dtoa_r+0xa80>
 8003c7e:	9b02      	ldr	r3, [sp, #8]
 8003c80:	9a04      	ldr	r2, [sp, #16]
 8003c82:	f805 9c01 	strb.w	r9, [r5, #-1]
 8003c86:	1aeb      	subs	r3, r5, r3
 8003c88:	4293      	cmp	r3, r2
 8003c8a:	46a8      	mov	r8, r5
 8003c8c:	f43f af4b 	beq.w	8003b26 <_dtoa_r+0x99e>
 8003c90:	4651      	mov	r1, sl
 8003c92:	2300      	movs	r3, #0
 8003c94:	220a      	movs	r2, #10
 8003c96:	4620      	mov	r0, r4
 8003c98:	f000 ff81 	bl	8004b9e <__multadd>
 8003c9c:	9b03      	ldr	r3, [sp, #12]
 8003c9e:	9903      	ldr	r1, [sp, #12]
 8003ca0:	42bb      	cmp	r3, r7
 8003ca2:	4682      	mov	sl, r0
 8003ca4:	f04f 0300 	mov.w	r3, #0
 8003ca8:	f04f 020a 	mov.w	r2, #10
 8003cac:	4620      	mov	r0, r4
 8003cae:	d104      	bne.n	8003cba <_dtoa_r+0xb32>
 8003cb0:	f000 ff75 	bl	8004b9e <__multadd>
 8003cb4:	9003      	str	r0, [sp, #12]
 8003cb6:	4607      	mov	r7, r0
 8003cb8:	e776      	b.n	8003ba8 <_dtoa_r+0xa20>
 8003cba:	f000 ff70 	bl	8004b9e <__multadd>
 8003cbe:	2300      	movs	r3, #0
 8003cc0:	9003      	str	r0, [sp, #12]
 8003cc2:	220a      	movs	r2, #10
 8003cc4:	4639      	mov	r1, r7
 8003cc6:	4620      	mov	r0, r4
 8003cc8:	f000 ff69 	bl	8004b9e <__multadd>
 8003ccc:	e7f3      	b.n	8003cb6 <_dtoa_r+0xb2e>
 8003cce:	4651      	mov	r1, sl
 8003cd0:	2300      	movs	r3, #0
 8003cd2:	220a      	movs	r2, #10
 8003cd4:	4620      	mov	r0, r4
 8003cd6:	f000 ff62 	bl	8004b9e <__multadd>
 8003cda:	4682      	mov	sl, r0
 8003cdc:	e70d      	b.n	8003afa <_dtoa_r+0x972>
 8003cde:	9b02      	ldr	r3, [sp, #8]
 8003ce0:	4293      	cmp	r3, r2
 8003ce2:	d105      	bne.n	8003cf0 <_dtoa_r+0xb68>
 8003ce4:	9a02      	ldr	r2, [sp, #8]
 8003ce6:	f10b 0b01 	add.w	fp, fp, #1
 8003cea:	2331      	movs	r3, #49	; 0x31
 8003cec:	7013      	strb	r3, [r2, #0]
 8003cee:	e6e2      	b.n	8003ab6 <_dtoa_r+0x92e>
 8003cf0:	4615      	mov	r5, r2
 8003cf2:	e7b2      	b.n	8003c5a <_dtoa_r+0xad2>
 8003cf4:	4b09      	ldr	r3, [pc, #36]	; (8003d1c <_dtoa_r+0xb94>)
 8003cf6:	f7ff baae 	b.w	8003256 <_dtoa_r+0xce>
 8003cfa:	9b21      	ldr	r3, [sp, #132]	; 0x84
 8003cfc:	2b00      	cmp	r3, #0
 8003cfe:	f47f aa88 	bne.w	8003212 <_dtoa_r+0x8a>
 8003d02:	4b07      	ldr	r3, [pc, #28]	; (8003d20 <_dtoa_r+0xb98>)
 8003d04:	f7ff baa7 	b.w	8003256 <_dtoa_r+0xce>
 8003d08:	9b04      	ldr	r3, [sp, #16]
 8003d0a:	2b00      	cmp	r3, #0
 8003d0c:	f73f aef4 	bgt.w	8003af8 <_dtoa_r+0x970>
 8003d10:	9b07      	ldr	r3, [sp, #28]
 8003d12:	2b02      	cmp	r3, #2
 8003d14:	f77f aef0 	ble.w	8003af8 <_dtoa_r+0x970>
 8003d18:	e6b8      	b.n	8003a8c <_dtoa_r+0x904>
 8003d1a:	bf00      	nop
 8003d1c:	08005974 	.word	0x08005974
 8003d20:	08005996 	.word	0x08005996

08003d24 <__sflush_r>:
 8003d24:	f9b1 200c 	ldrsh.w	r2, [r1, #12]
 8003d28:	b293      	uxth	r3, r2
 8003d2a:	e92d 41f0 	stmdb	sp!, {r4, r5, r6, r7, r8, lr}
 8003d2e:	4605      	mov	r5, r0
 8003d30:	0718      	lsls	r0, r3, #28
 8003d32:	460c      	mov	r4, r1
 8003d34:	d461      	bmi.n	8003dfa <__sflush_r+0xd6>
 8003d36:	684b      	ldr	r3, [r1, #4]
 8003d38:	f442 6200 	orr.w	r2, r2, #2048	; 0x800
 8003d3c:	2b00      	cmp	r3, #0
 8003d3e:	818a      	strh	r2, [r1, #12]
 8003d40:	dc05      	bgt.n	8003d4e <__sflush_r+0x2a>
 8003d42:	6c0b      	ldr	r3, [r1, #64]	; 0x40
 8003d44:	2b00      	cmp	r3, #0
 8003d46:	dc02      	bgt.n	8003d4e <__sflush_r+0x2a>
 8003d48:	2000      	movs	r0, #0
 8003d4a:	e8bd 81f0 	ldmia.w	sp!, {r4, r5, r6, r7, r8, pc}
 8003d4e:	6ae6      	ldr	r6, [r4, #44]	; 0x2c
 8003d50:	2e00      	cmp	r6, #0
 8003d52:	d0f9      	beq.n	8003d48 <__sflush_r+0x24>
 8003d54:	2300      	movs	r3, #0
 8003d56:	f412 5280 	ands.w	r2, r2, #4096	; 0x1000
 8003d5a:	682f      	ldr	r7, [r5, #0]
 8003d5c:	602b      	str	r3, [r5, #0]
 8003d5e:	d037      	beq.n	8003dd0 <__sflush_r+0xac>
 8003d60:	6d60      	ldr	r0, [r4, #84]	; 0x54
 8003d62:	89a3      	ldrh	r3, [r4, #12]
 8003d64:	075a      	lsls	r2, r3, #29
 8003d66:	d505      	bpl.n	8003d74 <__sflush_r+0x50>
 8003d68:	6863      	ldr	r3, [r4, #4]
 8003d6a:	1ac0      	subs	r0, r0, r3
 8003d6c:	6b63      	ldr	r3, [r4, #52]	; 0x34
 8003d6e:	b10b      	cbz	r3, 8003d74 <__sflush_r+0x50>
 8003d70:	6c23      	ldr	r3, [r4, #64]	; 0x40
 8003d72:	1ac0      	subs	r0, r0, r3
 8003d74:	2300      	movs	r3, #0
 8003d76:	4602      	mov	r2, r0
 8003d78:	6ae6      	ldr	r6, [r4, #44]	; 0x2c
 8003d7a:	6a21      	ldr	r1, [r4, #32]
 8003d7c:	4628      	mov	r0, r5
 8003d7e:	47b0      	blx	r6
 8003d80:	1c43      	adds	r3, r0, #1
 8003d82:	89a3      	ldrh	r3, [r4, #12]
 8003d84:	d106      	bne.n	8003d94 <__sflush_r+0x70>
 8003d86:	6829      	ldr	r1, [r5, #0]
 8003d88:	291d      	cmp	r1, #29
 8003d8a:	d84f      	bhi.n	8003e2c <__sflush_r+0x108>
 8003d8c:	4a2d      	ldr	r2, [pc, #180]	; (8003e44 <__sflush_r+0x120>)
 8003d8e:	40ca      	lsrs	r2, r1
 8003d90:	07d6      	lsls	r6, r2, #31
 8003d92:	d54b      	bpl.n	8003e2c <__sflush_r+0x108>
 8003d94:	f423 6300 	bic.w	r3, r3, #2048	; 0x800
 8003d98:	b21b      	sxth	r3, r3
 8003d9a:	2200      	movs	r2, #0
 8003d9c:	6062      	str	r2, [r4, #4]
 8003d9e:	04d9      	lsls	r1, r3, #19
 8003da0:	6922      	ldr	r2, [r4, #16]
 8003da2:	81a3      	strh	r3, [r4, #12]
 8003da4:	6022      	str	r2, [r4, #0]
 8003da6:	d504      	bpl.n	8003db2 <__sflush_r+0x8e>
 8003da8:	1c42      	adds	r2, r0, #1
 8003daa:	d101      	bne.n	8003db0 <__sflush_r+0x8c>
 8003dac:	682b      	ldr	r3, [r5, #0]
 8003dae:	b903      	cbnz	r3, 8003db2 <__sflush_r+0x8e>
 8003db0:	6560      	str	r0, [r4, #84]	; 0x54
 8003db2:	6b61      	ldr	r1, [r4, #52]	; 0x34
 8003db4:	602f      	str	r7, [r5, #0]
 8003db6:	2900      	cmp	r1, #0
 8003db8:	d0c6      	beq.n	8003d48 <__sflush_r+0x24>
 8003dba:	f104 0344 	add.w	r3, r4, #68	; 0x44
 8003dbe:	4299      	cmp	r1, r3
 8003dc0:	d002      	beq.n	8003dc8 <__sflush_r+0xa4>
 8003dc2:	4628      	mov	r0, r5
 8003dc4:	f000 f9aa 	bl	800411c <_free_r>
 8003dc8:	2000      	movs	r0, #0
 8003dca:	6360      	str	r0, [r4, #52]	; 0x34
 8003dcc:	e8bd 81f0 	ldmia.w	sp!, {r4, r5, r6, r7, r8, pc}
 8003dd0:	6a21      	ldr	r1, [r4, #32]
 8003dd2:	2301      	movs	r3, #1
 8003dd4:	4628      	mov	r0, r5
 8003dd6:	47b0      	blx	r6
 8003dd8:	1c41      	adds	r1, r0, #1
 8003dda:	d1c2      	bne.n	8003d62 <__sflush_r+0x3e>
 8003ddc:	682b      	ldr	r3, [r5, #0]
 8003dde:	2b00      	cmp	r3, #0
 8003de0:	d0bf      	beq.n	8003d62 <__sflush_r+0x3e>
 8003de2:	2b1d      	cmp	r3, #29
 8003de4:	d001      	beq.n	8003dea <__sflush_r+0xc6>
 8003de6:	2b16      	cmp	r3, #22
 8003de8:	d101      	bne.n	8003dee <__sflush_r+0xca>
 8003dea:	602f      	str	r7, [r5, #0]
 8003dec:	e7ac      	b.n	8003d48 <__sflush_r+0x24>
 8003dee:	89a3      	ldrh	r3, [r4, #12]
 8003df0:	f043 0340 	orr.w	r3, r3, #64	; 0x40
 8003df4:	81a3      	strh	r3, [r4, #12]
 8003df6:	e8bd 81f0 	ldmia.w	sp!, {r4, r5, r6, r7, r8, pc}
 8003dfa:	690f      	ldr	r7, [r1, #16]
 8003dfc:	2f00      	cmp	r7, #0
 8003dfe:	d0a3      	beq.n	8003d48 <__sflush_r+0x24>
 8003e00:	079b      	lsls	r3, r3, #30
 8003e02:	680e      	ldr	r6, [r1, #0]
 8003e04:	bf08      	it	eq
 8003e06:	694b      	ldreq	r3, [r1, #20]
 8003e08:	600f      	str	r7, [r1, #0]
 8003e0a:	bf18      	it	ne
 8003e0c:	2300      	movne	r3, #0
 8003e0e:	eba6 0807 	sub.w	r8, r6, r7
 8003e12:	608b      	str	r3, [r1, #8]
 8003e14:	f1b8 0f00 	cmp.w	r8, #0
 8003e18:	dd96      	ble.n	8003d48 <__sflush_r+0x24>
 8003e1a:	4643      	mov	r3, r8
 8003e1c:	463a      	mov	r2, r7
 8003e1e:	6a21      	ldr	r1, [r4, #32]
 8003e20:	6aa6      	ldr	r6, [r4, #40]	; 0x28
 8003e22:	4628      	mov	r0, r5
 8003e24:	47b0      	blx	r6
 8003e26:	2800      	cmp	r0, #0
 8003e28:	dc07      	bgt.n	8003e3a <__sflush_r+0x116>
 8003e2a:	89a3      	ldrh	r3, [r4, #12]
 8003e2c:	f043 0340 	orr.w	r3, r3, #64	; 0x40
 8003e30:	81a3      	strh	r3, [r4, #12]
 8003e32:	f04f 30ff 	mov.w	r0, #4294967295
 8003e36:	e8bd 81f0 	ldmia.w	sp!, {r4, r5, r6, r7, r8, pc}
 8003e3a:	4407      	add	r7, r0
 8003e3c:	eba8 0800 	sub.w	r8, r8, r0
 8003e40:	e7e8      	b.n	8003e14 <__sflush_r+0xf0>
 8003e42:	bf00      	nop
 8003e44:	20400001 	.word	0x20400001

08003e48 <_fflush_r>:
 8003e48:	b538      	push	{r3, r4, r5, lr}
 8003e4a:	690b      	ldr	r3, [r1, #16]
 8003e4c:	4605      	mov	r5, r0
 8003e4e:	460c      	mov	r4, r1
 8003e50:	b913      	cbnz	r3, 8003e58 <_fflush_r+0x10>
 8003e52:	2500      	movs	r5, #0
 8003e54:	4628      	mov	r0, r5
 8003e56:	bd38      	pop	{r3, r4, r5, pc}
 8003e58:	b118      	cbz	r0, 8003e62 <_fflush_r+0x1a>
 8003e5a:	6983      	ldr	r3, [r0, #24]
 8003e5c:	b90b      	cbnz	r3, 8003e62 <_fflush_r+0x1a>
 8003e5e:	f000 f887 	bl	8003f70 <__sinit>
 8003e62:	4b14      	ldr	r3, [pc, #80]	; (8003eb4 <_fflush_r+0x6c>)
 8003e64:	429c      	cmp	r4, r3
 8003e66:	d11b      	bne.n	8003ea0 <_fflush_r+0x58>
 8003e68:	686c      	ldr	r4, [r5, #4]
 8003e6a:	f9b4 300c 	ldrsh.w	r3, [r4, #12]
 8003e6e:	2b00      	cmp	r3, #0
 8003e70:	d0ef      	beq.n	8003e52 <_fflush_r+0xa>
 8003e72:	6e62      	ldr	r2, [r4, #100]	; 0x64
 8003e74:	07d0      	lsls	r0, r2, #31
 8003e76:	d404      	bmi.n	8003e82 <_fflush_r+0x3a>
 8003e78:	0599      	lsls	r1, r3, #22
 8003e7a:	d402      	bmi.n	8003e82 <_fflush_r+0x3a>
 8003e7c:	6da0      	ldr	r0, [r4, #88]	; 0x58
 8003e7e:	f000 fb85 	bl	800458c <__retarget_lock_acquire_recursive>
 8003e82:	4628      	mov	r0, r5
 8003e84:	4621      	mov	r1, r4
 8003e86:	f7ff ff4d 	bl	8003d24 <__sflush_r>
 8003e8a:	6e63      	ldr	r3, [r4, #100]	; 0x64
 8003e8c:	07da      	lsls	r2, r3, #31
 8003e8e:	4605      	mov	r5, r0
 8003e90:	d4e0      	bmi.n	8003e54 <_fflush_r+0xc>
 8003e92:	89a3      	ldrh	r3, [r4, #12]
 8003e94:	059b      	lsls	r3, r3, #22
 8003e96:	d4dd      	bmi.n	8003e54 <_fflush_r+0xc>
 8003e98:	6da0      	ldr	r0, [r4, #88]	; 0x58
 8003e9a:	f000 fb78 	bl	800458e <__retarget_lock_release_recursive>
 8003e9e:	e7d9      	b.n	8003e54 <_fflush_r+0xc>
 8003ea0:	4b05      	ldr	r3, [pc, #20]	; (8003eb8 <_fflush_r+0x70>)
 8003ea2:	429c      	cmp	r4, r3
 8003ea4:	d101      	bne.n	8003eaa <_fflush_r+0x62>
 8003ea6:	68ac      	ldr	r4, [r5, #8]
 8003ea8:	e7df      	b.n	8003e6a <_fflush_r+0x22>
 8003eaa:	4b04      	ldr	r3, [pc, #16]	; (8003ebc <_fflush_r+0x74>)
 8003eac:	429c      	cmp	r4, r3
 8003eae:	bf08      	it	eq
 8003eb0:	68ec      	ldreq	r4, [r5, #12]
 8003eb2:	e7da      	b.n	8003e6a <_fflush_r+0x22>
 8003eb4:	080059c4 	.word	0x080059c4
 8003eb8:	080059e4 	.word	0x080059e4
 8003ebc:	080059a4 	.word	0x080059a4

08003ec0 <_cleanup_r>:
 8003ec0:	4901      	ldr	r1, [pc, #4]	; (8003ec8 <_cleanup_r+0x8>)
 8003ec2:	f000 bb35 	b.w	8004530 <_fwalk_reent>
 8003ec6:	bf00      	nop
 8003ec8:	08005559 	.word	0x08005559

08003ecc <std.isra.0>:
 8003ecc:	2300      	movs	r3, #0
 8003ece:	b510      	push	{r4, lr}
 8003ed0:	4604      	mov	r4, r0
 8003ed2:	6003      	str	r3, [r0, #0]
 8003ed4:	6043      	str	r3, [r0, #4]
 8003ed6:	6083      	str	r3, [r0, #8]
 8003ed8:	8181      	strh	r1, [r0, #12]
 8003eda:	6643      	str	r3, [r0, #100]	; 0x64
 8003edc:	81c2      	strh	r2, [r0, #14]
 8003ede:	6103      	str	r3, [r0, #16]
 8003ee0:	6143      	str	r3, [r0, #20]
 8003ee2:	6183      	str	r3, [r0, #24]
 8003ee4:	4619      	mov	r1, r3
 8003ee6:	2208      	movs	r2, #8
 8003ee8:	305c      	adds	r0, #92	; 0x5c
 8003eea:	f000 fdf8 	bl	8004ade <memset>
 8003eee:	4b05      	ldr	r3, [pc, #20]	; (8003f04 <std.isra.0+0x38>)
 8003ef0:	6263      	str	r3, [r4, #36]	; 0x24
 8003ef2:	4b05      	ldr	r3, [pc, #20]	; (8003f08 <std.isra.0+0x3c>)
 8003ef4:	62a3      	str	r3, [r4, #40]	; 0x28
 8003ef6:	4b05      	ldr	r3, [pc, #20]	; (8003f0c <std.isra.0+0x40>)
 8003ef8:	62e3      	str	r3, [r4, #44]	; 0x2c
 8003efa:	4b05      	ldr	r3, [pc, #20]	; (8003f10 <std.isra.0+0x44>)
 8003efc:	6224      	str	r4, [r4, #32]
 8003efe:	6323      	str	r3, [r4, #48]	; 0x30
 8003f00:	bd10      	pop	{r4, pc}
 8003f02:	bf00      	nop
 8003f04:	080053c9 	.word	0x080053c9
 8003f08:	080053eb 	.word	0x080053eb
 8003f0c:	08005423 	.word	0x08005423
 8003f10:	08005447 	.word	0x08005447

08003f14 <__sfmoreglue>:
 8003f14:	b570      	push	{r4, r5, r6, lr}
 8003f16:	1e4a      	subs	r2, r1, #1
 8003f18:	2568      	movs	r5, #104	; 0x68
 8003f1a:	4355      	muls	r5, r2
 8003f1c:	460e      	mov	r6, r1
 8003f1e:	f105 0174 	add.w	r1, r5, #116	; 0x74
 8003f22:	f000 fba9 	bl	8004678 <_malloc_r>
 8003f26:	4604      	mov	r4, r0
 8003f28:	b140      	cbz	r0, 8003f3c <__sfmoreglue+0x28>
 8003f2a:	2100      	movs	r1, #0
 8003f2c:	e880 0042 	stmia.w	r0, {r1, r6}
 8003f30:	300c      	adds	r0, #12
 8003f32:	60a0      	str	r0, [r4, #8]
 8003f34:	f105 0268 	add.w	r2, r5, #104	; 0x68
 8003f38:	f000 fdd1 	bl	8004ade <memset>
 8003f3c:	4620      	mov	r0, r4
 8003f3e:	bd70      	pop	{r4, r5, r6, pc}

08003f40 <__sfp_lock_acquire>:
 8003f40:	4801      	ldr	r0, [pc, #4]	; (8003f48 <__sfp_lock_acquire+0x8>)
 8003f42:	f000 bb23 	b.w	800458c <__retarget_lock_acquire_recursive>
 8003f46:	bf00      	nop
 8003f48:	200006d8 	.word	0x200006d8

08003f4c <__sfp_lock_release>:
 8003f4c:	4801      	ldr	r0, [pc, #4]	; (8003f54 <__sfp_lock_release+0x8>)
 8003f4e:	f000 bb1e 	b.w	800458e <__retarget_lock_release_recursive>
 8003f52:	bf00      	nop
 8003f54:	200006d8 	.word	0x200006d8

08003f58 <__sinit_lock_acquire>:
 8003f58:	4801      	ldr	r0, [pc, #4]	; (8003f60 <__sinit_lock_acquire+0x8>)
 8003f5a:	f000 bb17 	b.w	800458c <__retarget_lock_acquire_recursive>
 8003f5e:	bf00      	nop
 8003f60:	200006d3 	.word	0x200006d3

08003f64 <__sinit_lock_release>:
 8003f64:	4801      	ldr	r0, [pc, #4]	; (8003f6c <__sinit_lock_release+0x8>)
 8003f66:	f000 bb12 	b.w	800458e <__retarget_lock_release_recursive>
 8003f6a:	bf00      	nop
 8003f6c:	200006d3 	.word	0x200006d3

08003f70 <__sinit>:
 8003f70:	b510      	push	{r4, lr}
 8003f72:	4604      	mov	r4, r0
 8003f74:	f7ff fff0 	bl	8003f58 <__sinit_lock_acquire>
 8003f78:	69a3      	ldr	r3, [r4, #24]
 8003f7a:	b11b      	cbz	r3, 8003f84 <__sinit+0x14>
 8003f7c:	e8bd 4010 	ldmia.w	sp!, {r4, lr}
 8003f80:	f7ff bff0 	b.w	8003f64 <__sinit_lock_release>
 8003f84:	f8c4 30d8 	str.w	r3, [r4, #216]	; 0xd8
 8003f88:	f8c4 30dc 	str.w	r3, [r4, #220]	; 0xdc
 8003f8c:	f8c4 30e0 	str.w	r3, [r4, #224]	; 0xe0
 8003f90:	4b12      	ldr	r3, [pc, #72]	; (8003fdc <__sinit+0x6c>)
 8003f92:	4a13      	ldr	r2, [pc, #76]	; (8003fe0 <__sinit+0x70>)
 8003f94:	681b      	ldr	r3, [r3, #0]
 8003f96:	62a2      	str	r2, [r4, #40]	; 0x28
 8003f98:	429c      	cmp	r4, r3
 8003f9a:	bf04      	itt	eq
 8003f9c:	2301      	moveq	r3, #1
 8003f9e:	61a3      	streq	r3, [r4, #24]
 8003fa0:	4620      	mov	r0, r4
 8003fa2:	f000 f81f 	bl	8003fe4 <__sfp>
 8003fa6:	6060      	str	r0, [r4, #4]
 8003fa8:	4620      	mov	r0, r4
 8003faa:	f000 f81b 	bl	8003fe4 <__sfp>
 8003fae:	60a0      	str	r0, [r4, #8]
 8003fb0:	4620      	mov	r0, r4
 8003fb2:	f000 f817 	bl	8003fe4 <__sfp>
 8003fb6:	2200      	movs	r2, #0
 8003fb8:	60e0      	str	r0, [r4, #12]
 8003fba:	2104      	movs	r1, #4
 8003fbc:	6860      	ldr	r0, [r4, #4]
 8003fbe:	f7ff ff85 	bl	8003ecc <std.isra.0>
 8003fc2:	2201      	movs	r2, #1
 8003fc4:	2109      	movs	r1, #9
 8003fc6:	68a0      	ldr	r0, [r4, #8]
 8003fc8:	f7ff ff80 	bl	8003ecc <std.isra.0>
 8003fcc:	2202      	movs	r2, #2
 8003fce:	2112      	movs	r1, #18
 8003fd0:	68e0      	ldr	r0, [r4, #12]
 8003fd2:	f7ff ff7b 	bl	8003ecc <std.isra.0>
 8003fd6:	2301      	movs	r3, #1
 8003fd8:	61a3      	str	r3, [r4, #24]
 8003fda:	e7cf      	b.n	8003f7c <__sinit+0xc>
 8003fdc:	0800593c 	.word	0x0800593c
 8003fe0:	08003ec1 	.word	0x08003ec1

08003fe4 <__sfp>:
 8003fe4:	b5f8      	push	{r3, r4, r5, r6, r7, lr}
 8003fe6:	4607      	mov	r7, r0
 8003fe8:	f7ff ffaa 	bl	8003f40 <__sfp_lock_acquire>
 8003fec:	4b1f      	ldr	r3, [pc, #124]	; (800406c <__sfp+0x88>)
 8003fee:	681e      	ldr	r6, [r3, #0]
 8003ff0:	69b3      	ldr	r3, [r6, #24]
 8003ff2:	b913      	cbnz	r3, 8003ffa <__sfp+0x16>
 8003ff4:	4630      	mov	r0, r6
 8003ff6:	f7ff ffbb 	bl	8003f70 <__sinit>
 8003ffa:	36d8      	adds	r6, #216	; 0xd8
 8003ffc:	68b4      	ldr	r4, [r6, #8]
 8003ffe:	6873      	ldr	r3, [r6, #4]
 8004000:	3b01      	subs	r3, #1
 8004002:	d503      	bpl.n	800400c <__sfp+0x28>
 8004004:	6833      	ldr	r3, [r6, #0]
 8004006:	b133      	cbz	r3, 8004016 <__sfp+0x32>
 8004008:	6836      	ldr	r6, [r6, #0]
 800400a:	e7f7      	b.n	8003ffc <__sfp+0x18>
 800400c:	f9b4 500c 	ldrsh.w	r5, [r4, #12]
 8004010:	b17d      	cbz	r5, 8004032 <__sfp+0x4e>
 8004012:	3468      	adds	r4, #104	; 0x68
 8004014:	e7f4      	b.n	8004000 <__sfp+0x1c>
 8004016:	2104      	movs	r1, #4
 8004018:	4638      	mov	r0, r7
 800401a:	f7ff ff7b 	bl	8003f14 <__sfmoreglue>
 800401e:	4604      	mov	r4, r0
 8004020:	6030      	str	r0, [r6, #0]
 8004022:	2800      	cmp	r0, #0
 8004024:	d1f0      	bne.n	8004008 <__sfp+0x24>
 8004026:	f7ff ff91 	bl	8003f4c <__sfp_lock_release>
 800402a:	230c      	movs	r3, #12
 800402c:	603b      	str	r3, [r7, #0]
 800402e:	4620      	mov	r0, r4
 8004030:	bdf8      	pop	{r3, r4, r5, r6, r7, pc}
 8004032:	f64f 73ff 	movw	r3, #65535	; 0xffff
 8004036:	81e3      	strh	r3, [r4, #14]
 8004038:	2301      	movs	r3, #1
 800403a:	81a3      	strh	r3, [r4, #12]
 800403c:	f104 0058 	add.w	r0, r4, #88	; 0x58
 8004040:	6665      	str	r5, [r4, #100]	; 0x64
 8004042:	f000 faa1 	bl	8004588 <__retarget_lock_init_recursive>
 8004046:	f7ff ff81 	bl	8003f4c <__sfp_lock_release>
 800404a:	6025      	str	r5, [r4, #0]
 800404c:	60a5      	str	r5, [r4, #8]
 800404e:	6065      	str	r5, [r4, #4]
 8004050:	6125      	str	r5, [r4, #16]
 8004052:	6165      	str	r5, [r4, #20]
 8004054:	61a5      	str	r5, [r4, #24]
 8004056:	2208      	movs	r2, #8
 8004058:	4629      	mov	r1, r5
 800405a:	f104 005c 	add.w	r0, r4, #92	; 0x5c
 800405e:	f000 fd3e 	bl	8004ade <memset>
 8004062:	6365      	str	r5, [r4, #52]	; 0x34
 8004064:	63a5      	str	r5, [r4, #56]	; 0x38
 8004066:	64a5      	str	r5, [r4, #72]	; 0x48
 8004068:	64e5      	str	r5, [r4, #76]	; 0x4c
 800406a:	e7e0      	b.n	800402e <__sfp+0x4a>
 800406c:	0800593c 	.word	0x0800593c

08004070 <_malloc_trim_r>:
 8004070:	e92d 43f8 	stmdb	sp!, {r3, r4, r5, r6, r7, r8, r9, lr}
 8004074:	4f25      	ldr	r7, [pc, #148]	; (800410c <_malloc_trim_r+0x9c>)
 8004076:	f8df 80a0 	ldr.w	r8, [pc, #160]	; 8004118 <_malloc_trim_r+0xa8>
 800407a:	4689      	mov	r9, r1
 800407c:	4606      	mov	r6, r0
 800407e:	f000 fd37 	bl	8004af0 <__malloc_lock>
 8004082:	68bb      	ldr	r3, [r7, #8]
 8004084:	685d      	ldr	r5, [r3, #4]
 8004086:	f1a8 0411 	sub.w	r4, r8, #17
 800408a:	f025 0503 	bic.w	r5, r5, #3
 800408e:	eba4 0409 	sub.w	r4, r4, r9
 8004092:	442c      	add	r4, r5
 8004094:	fbb4 f4f8 	udiv	r4, r4, r8
 8004098:	3c01      	subs	r4, #1
 800409a:	fb08 f404 	mul.w	r4, r8, r4
 800409e:	4544      	cmp	r4, r8
 80040a0:	da05      	bge.n	80040ae <_malloc_trim_r+0x3e>
 80040a2:	4630      	mov	r0, r6
 80040a4:	f000 fd2a 	bl	8004afc <__malloc_unlock>
 80040a8:	2000      	movs	r0, #0
 80040aa:	e8bd 83f8 	ldmia.w	sp!, {r3, r4, r5, r6, r7, r8, r9, pc}
 80040ae:	2100      	movs	r1, #0
 80040b0:	4630      	mov	r0, r6
 80040b2:	f001 f979 	bl	80053a8 <_sbrk_r>
 80040b6:	68bb      	ldr	r3, [r7, #8]
 80040b8:	442b      	add	r3, r5
 80040ba:	4298      	cmp	r0, r3
 80040bc:	d1f1      	bne.n	80040a2 <_malloc_trim_r+0x32>
 80040be:	4261      	negs	r1, r4
 80040c0:	4630      	mov	r0, r6
 80040c2:	f001 f971 	bl	80053a8 <_sbrk_r>
 80040c6:	3001      	adds	r0, #1
 80040c8:	d110      	bne.n	80040ec <_malloc_trim_r+0x7c>
 80040ca:	2100      	movs	r1, #0
 80040cc:	4630      	mov	r0, r6
 80040ce:	f001 f96b 	bl	80053a8 <_sbrk_r>
 80040d2:	68ba      	ldr	r2, [r7, #8]
 80040d4:	1a83      	subs	r3, r0, r2
 80040d6:	2b0f      	cmp	r3, #15
 80040d8:	dde3      	ble.n	80040a2 <_malloc_trim_r+0x32>
 80040da:	490d      	ldr	r1, [pc, #52]	; (8004110 <_malloc_trim_r+0xa0>)
 80040dc:	6809      	ldr	r1, [r1, #0]
 80040de:	1a40      	subs	r0, r0, r1
 80040e0:	490c      	ldr	r1, [pc, #48]	; (8004114 <_malloc_trim_r+0xa4>)
 80040e2:	f043 0301 	orr.w	r3, r3, #1
 80040e6:	6008      	str	r0, [r1, #0]
 80040e8:	6053      	str	r3, [r2, #4]
 80040ea:	e7da      	b.n	80040a2 <_malloc_trim_r+0x32>
 80040ec:	68bb      	ldr	r3, [r7, #8]
 80040ee:	4a09      	ldr	r2, [pc, #36]	; (8004114 <_malloc_trim_r+0xa4>)
 80040f0:	1b2d      	subs	r5, r5, r4
 80040f2:	f045 0501 	orr.w	r5, r5, #1
 80040f6:	605d      	str	r5, [r3, #4]
 80040f8:	6813      	ldr	r3, [r2, #0]
 80040fa:	4630      	mov	r0, r6
 80040fc:	1b1c      	subs	r4, r3, r4
 80040fe:	6014      	str	r4, [r2, #0]
 8004100:	f000 fcfc 	bl	8004afc <__malloc_unlock>
 8004104:	2001      	movs	r0, #1
 8004106:	e8bd 83f8 	ldmia.w	sp!, {r3, r4, r5, r6, r7, r8, r9, pc}
 800410a:	bf00      	nop
 800410c:	200000f8 	.word	0x200000f8
 8004110:	20000500 	.word	0x20000500
 8004114:	20000698 	.word	0x20000698
 8004118:	00000080 	.word	0x00000080

0800411c <_free_r>:
 800411c:	e92d 41f0 	stmdb	sp!, {r4, r5, r6, r7, r8, lr}
 8004120:	4604      	mov	r4, r0
 8004122:	4688      	mov	r8, r1
 8004124:	2900      	cmp	r1, #0
 8004126:	f000 80ab 	beq.w	8004280 <_free_r+0x164>
 800412a:	f000 fce1 	bl	8004af0 <__malloc_lock>
 800412e:	f858 2c04 	ldr.w	r2, [r8, #-4]
 8004132:	4d54      	ldr	r5, [pc, #336]	; (8004284 <_free_r+0x168>)
 8004134:	f022 0001 	bic.w	r0, r2, #1
 8004138:	f1a8 0308 	sub.w	r3, r8, #8
 800413c:	181f      	adds	r7, r3, r0
 800413e:	68a9      	ldr	r1, [r5, #8]
 8004140:	687e      	ldr	r6, [r7, #4]
 8004142:	428f      	cmp	r7, r1
 8004144:	f026 0603 	bic.w	r6, r6, #3
 8004148:	f002 0201 	and.w	r2, r2, #1
 800414c:	d11b      	bne.n	8004186 <_free_r+0x6a>
 800414e:	4430      	add	r0, r6
 8004150:	b93a      	cbnz	r2, 8004162 <_free_r+0x46>
 8004152:	f858 2c08 	ldr.w	r2, [r8, #-8]
 8004156:	1a9b      	subs	r3, r3, r2
 8004158:	4410      	add	r0, r2
 800415a:	6899      	ldr	r1, [r3, #8]
 800415c:	68da      	ldr	r2, [r3, #12]
 800415e:	60ca      	str	r2, [r1, #12]
 8004160:	6091      	str	r1, [r2, #8]
 8004162:	f040 0201 	orr.w	r2, r0, #1
 8004166:	605a      	str	r2, [r3, #4]
 8004168:	60ab      	str	r3, [r5, #8]
 800416a:	4b47      	ldr	r3, [pc, #284]	; (8004288 <_free_r+0x16c>)
 800416c:	681b      	ldr	r3, [r3, #0]
 800416e:	4298      	cmp	r0, r3
 8004170:	d304      	bcc.n	800417c <_free_r+0x60>
 8004172:	4b46      	ldr	r3, [pc, #280]	; (800428c <_free_r+0x170>)
 8004174:	4620      	mov	r0, r4
 8004176:	6819      	ldr	r1, [r3, #0]
 8004178:	f7ff ff7a 	bl	8004070 <_malloc_trim_r>
 800417c:	4620      	mov	r0, r4
 800417e:	e8bd 41f0 	ldmia.w	sp!, {r4, r5, r6, r7, r8, lr}
 8004182:	f000 bcbb 	b.w	8004afc <__malloc_unlock>
 8004186:	607e      	str	r6, [r7, #4]
 8004188:	2a00      	cmp	r2, #0
 800418a:	d139      	bne.n	8004200 <_free_r+0xe4>
 800418c:	f858 1c08 	ldr.w	r1, [r8, #-8]
 8004190:	1a5b      	subs	r3, r3, r1
 8004192:	4408      	add	r0, r1
 8004194:	6899      	ldr	r1, [r3, #8]
 8004196:	f105 0e08 	add.w	lr, r5, #8
 800419a:	4571      	cmp	r1, lr
 800419c:	d032      	beq.n	8004204 <_free_r+0xe8>
 800419e:	f8d3 e00c 	ldr.w	lr, [r3, #12]
 80041a2:	f8c1 e00c 	str.w	lr, [r1, #12]
 80041a6:	f8ce 1008 	str.w	r1, [lr, #8]
 80041aa:	19b9      	adds	r1, r7, r6
 80041ac:	6849      	ldr	r1, [r1, #4]
 80041ae:	07c9      	lsls	r1, r1, #31
 80041b0:	d40a      	bmi.n	80041c8 <_free_r+0xac>
 80041b2:	4430      	add	r0, r6
 80041b4:	68b9      	ldr	r1, [r7, #8]
 80041b6:	bb3a      	cbnz	r2, 8004208 <_free_r+0xec>
 80041b8:	4e35      	ldr	r6, [pc, #212]	; (8004290 <_free_r+0x174>)
 80041ba:	42b1      	cmp	r1, r6
 80041bc:	d124      	bne.n	8004208 <_free_r+0xec>
 80041be:	616b      	str	r3, [r5, #20]
 80041c0:	612b      	str	r3, [r5, #16]
 80041c2:	2201      	movs	r2, #1
 80041c4:	60d9      	str	r1, [r3, #12]
 80041c6:	6099      	str	r1, [r3, #8]
 80041c8:	f040 0101 	orr.w	r1, r0, #1
 80041cc:	6059      	str	r1, [r3, #4]
 80041ce:	5018      	str	r0, [r3, r0]
 80041d0:	2a00      	cmp	r2, #0
 80041d2:	d1d3      	bne.n	800417c <_free_r+0x60>
 80041d4:	f5b0 7f00 	cmp.w	r0, #512	; 0x200
 80041d8:	d21a      	bcs.n	8004210 <_free_r+0xf4>
 80041da:	08c0      	lsrs	r0, r0, #3
 80041dc:	1081      	asrs	r1, r0, #2
 80041de:	2201      	movs	r2, #1
 80041e0:	408a      	lsls	r2, r1
 80041e2:	6869      	ldr	r1, [r5, #4]
 80041e4:	3001      	adds	r0, #1
 80041e6:	430a      	orrs	r2, r1
 80041e8:	606a      	str	r2, [r5, #4]
 80041ea:	eb05 02c0 	add.w	r2, r5, r0, lsl #3
 80041ee:	f855 1030 	ldr.w	r1, [r5, r0, lsl #3]
 80041f2:	6099      	str	r1, [r3, #8]
 80041f4:	3a08      	subs	r2, #8
 80041f6:	60da      	str	r2, [r3, #12]
 80041f8:	f845 3030 	str.w	r3, [r5, r0, lsl #3]
 80041fc:	60cb      	str	r3, [r1, #12]
 80041fe:	e7bd      	b.n	800417c <_free_r+0x60>
 8004200:	2200      	movs	r2, #0
 8004202:	e7d2      	b.n	80041aa <_free_r+0x8e>
 8004204:	2201      	movs	r2, #1
 8004206:	e7d0      	b.n	80041aa <_free_r+0x8e>
 8004208:	68fe      	ldr	r6, [r7, #12]
 800420a:	60ce      	str	r6, [r1, #12]
 800420c:	60b1      	str	r1, [r6, #8]
 800420e:	e7db      	b.n	80041c8 <_free_r+0xac>
 8004210:	0a42      	lsrs	r2, r0, #9
 8004212:	2a04      	cmp	r2, #4
 8004214:	d813      	bhi.n	800423e <_free_r+0x122>
 8004216:	0982      	lsrs	r2, r0, #6
 8004218:	3238      	adds	r2, #56	; 0x38
 800421a:	1c51      	adds	r1, r2, #1
 800421c:	eb05 06c2 	add.w	r6, r5, r2, lsl #3
 8004220:	f855 1031 	ldr.w	r1, [r5, r1, lsl #3]
 8004224:	428e      	cmp	r6, r1
 8004226:	d124      	bne.n	8004272 <_free_r+0x156>
 8004228:	2001      	movs	r0, #1
 800422a:	1092      	asrs	r2, r2, #2
 800422c:	fa00 f202 	lsl.w	r2, r0, r2
 8004230:	6868      	ldr	r0, [r5, #4]
 8004232:	4302      	orrs	r2, r0
 8004234:	606a      	str	r2, [r5, #4]
 8004236:	60de      	str	r6, [r3, #12]
 8004238:	6099      	str	r1, [r3, #8]
 800423a:	60b3      	str	r3, [r6, #8]
 800423c:	e7de      	b.n	80041fc <_free_r+0xe0>
 800423e:	2a14      	cmp	r2, #20
 8004240:	d801      	bhi.n	8004246 <_free_r+0x12a>
 8004242:	325b      	adds	r2, #91	; 0x5b
 8004244:	e7e9      	b.n	800421a <_free_r+0xfe>
 8004246:	2a54      	cmp	r2, #84	; 0x54
 8004248:	d802      	bhi.n	8004250 <_free_r+0x134>
 800424a:	0b02      	lsrs	r2, r0, #12
 800424c:	326e      	adds	r2, #110	; 0x6e
 800424e:	e7e4      	b.n	800421a <_free_r+0xfe>
 8004250:	f5b2 7faa 	cmp.w	r2, #340	; 0x154
 8004254:	d802      	bhi.n	800425c <_free_r+0x140>
 8004256:	0bc2      	lsrs	r2, r0, #15
 8004258:	3277      	adds	r2, #119	; 0x77
 800425a:	e7de      	b.n	800421a <_free_r+0xfe>
 800425c:	f240 5154 	movw	r1, #1364	; 0x554
 8004260:	428a      	cmp	r2, r1
 8004262:	bf9a      	itte	ls
 8004264:	0c82      	lsrls	r2, r0, #18
 8004266:	327c      	addls	r2, #124	; 0x7c
 8004268:	227e      	movhi	r2, #126	; 0x7e
 800426a:	e7d6      	b.n	800421a <_free_r+0xfe>
 800426c:	6889      	ldr	r1, [r1, #8]
 800426e:	428e      	cmp	r6, r1
 8004270:	d004      	beq.n	800427c <_free_r+0x160>
 8004272:	684a      	ldr	r2, [r1, #4]
 8004274:	f022 0203 	bic.w	r2, r2, #3
 8004278:	4290      	cmp	r0, r2
 800427a:	d3f7      	bcc.n	800426c <_free_r+0x150>
 800427c:	68ce      	ldr	r6, [r1, #12]
 800427e:	e7da      	b.n	8004236 <_free_r+0x11a>
 8004280:	e8bd 81f0 	ldmia.w	sp!, {r4, r5, r6, r7, r8, pc}
 8004284:	200000f8 	.word	0x200000f8
 8004288:	20000504 	.word	0x20000504
 800428c:	200006c8 	.word	0x200006c8
 8004290:	20000100 	.word	0x20000100

08004294 <__sfvwrite_r>:
 8004294:	6893      	ldr	r3, [r2, #8]
 8004296:	e92d 4ff7 	stmdb	sp!, {r0, r1, r2, r4, r5, r6, r7, r8, r9, sl, fp, lr}
 800429a:	4607      	mov	r7, r0
 800429c:	460c      	mov	r4, r1
 800429e:	4690      	mov	r8, r2
 80042a0:	b91b      	cbnz	r3, 80042aa <__sfvwrite_r+0x16>
 80042a2:	2000      	movs	r0, #0
 80042a4:	b003      	add	sp, #12
 80042a6:	e8bd 8ff0 	ldmia.w	sp!, {r4, r5, r6, r7, r8, r9, sl, fp, pc}
 80042aa:	898b      	ldrh	r3, [r1, #12]
 80042ac:	0718      	lsls	r0, r3, #28
 80042ae:	d526      	bpl.n	80042fe <__sfvwrite_r+0x6a>
 80042b0:	690b      	ldr	r3, [r1, #16]
 80042b2:	b323      	cbz	r3, 80042fe <__sfvwrite_r+0x6a>
 80042b4:	89a3      	ldrh	r3, [r4, #12]
 80042b6:	f8d8 6000 	ldr.w	r6, [r8]
 80042ba:	f013 0902 	ands.w	r9, r3, #2
 80042be:	d02d      	beq.n	800431c <__sfvwrite_r+0x88>
 80042c0:	f04f 0a00 	mov.w	sl, #0
 80042c4:	f8df b264 	ldr.w	fp, [pc, #612]	; 800452c <__sfvwrite_r+0x298>
 80042c8:	46d1      	mov	r9, sl
 80042ca:	f1b9 0f00 	cmp.w	r9, #0
 80042ce:	d01f      	beq.n	8004310 <__sfvwrite_r+0x7c>
 80042d0:	45d9      	cmp	r9, fp
 80042d2:	464b      	mov	r3, r9
 80042d4:	4652      	mov	r2, sl
 80042d6:	bf28      	it	cs
 80042d8:	465b      	movcs	r3, fp
 80042da:	6a21      	ldr	r1, [r4, #32]
 80042dc:	6aa5      	ldr	r5, [r4, #40]	; 0x28
 80042de:	4638      	mov	r0, r7
 80042e0:	47a8      	blx	r5
 80042e2:	2800      	cmp	r0, #0
 80042e4:	f340 8089 	ble.w	80043fa <__sfvwrite_r+0x166>
 80042e8:	f8d8 3008 	ldr.w	r3, [r8, #8]
 80042ec:	4482      	add	sl, r0
 80042ee:	eba9 0900 	sub.w	r9, r9, r0
 80042f2:	1a18      	subs	r0, r3, r0
 80042f4:	f8c8 0008 	str.w	r0, [r8, #8]
 80042f8:	2800      	cmp	r0, #0
 80042fa:	d1e6      	bne.n	80042ca <__sfvwrite_r+0x36>
 80042fc:	e7d1      	b.n	80042a2 <__sfvwrite_r+0xe>
 80042fe:	4621      	mov	r1, r4
 8004300:	4638      	mov	r0, r7
 8004302:	f7fe fe45 	bl	8002f90 <__swsetup_r>
 8004306:	2800      	cmp	r0, #0
 8004308:	d0d4      	beq.n	80042b4 <__sfvwrite_r+0x20>
 800430a:	f04f 30ff 	mov.w	r0, #4294967295
 800430e:	e7c9      	b.n	80042a4 <__sfvwrite_r+0x10>
 8004310:	f8d6 a000 	ldr.w	sl, [r6]
 8004314:	f8d6 9004 	ldr.w	r9, [r6, #4]
 8004318:	3608      	adds	r6, #8
 800431a:	e7d6      	b.n	80042ca <__sfvwrite_r+0x36>
 800431c:	f013 0301 	ands.w	r3, r3, #1
 8004320:	d043      	beq.n	80043aa <__sfvwrite_r+0x116>
 8004322:	4648      	mov	r0, r9
 8004324:	46ca      	mov	sl, r9
 8004326:	46cb      	mov	fp, r9
 8004328:	f1bb 0f00 	cmp.w	fp, #0
 800432c:	f000 80d9 	beq.w	80044e2 <__sfvwrite_r+0x24e>
 8004330:	b950      	cbnz	r0, 8004348 <__sfvwrite_r+0xb4>
 8004332:	465a      	mov	r2, fp
 8004334:	210a      	movs	r1, #10
 8004336:	4650      	mov	r0, sl
 8004338:	f7fb ff5a 	bl	80001f0 <memchr>
 800433c:	2800      	cmp	r0, #0
 800433e:	f000 80d5 	beq.w	80044ec <__sfvwrite_r+0x258>
 8004342:	3001      	adds	r0, #1
 8004344:	eba0 090a 	sub.w	r9, r0, sl
 8004348:	6820      	ldr	r0, [r4, #0]
 800434a:	6921      	ldr	r1, [r4, #16]
 800434c:	6962      	ldr	r2, [r4, #20]
 800434e:	45d9      	cmp	r9, fp
 8004350:	464b      	mov	r3, r9
 8004352:	bf28      	it	cs
 8004354:	465b      	movcs	r3, fp
 8004356:	4288      	cmp	r0, r1
 8004358:	f240 80cb 	bls.w	80044f2 <__sfvwrite_r+0x25e>
 800435c:	68a5      	ldr	r5, [r4, #8]
 800435e:	4415      	add	r5, r2
 8004360:	42ab      	cmp	r3, r5
 8004362:	f340 80c6 	ble.w	80044f2 <__sfvwrite_r+0x25e>
 8004366:	4651      	mov	r1, sl
 8004368:	462a      	mov	r2, r5
 800436a:	f000 fb9e 	bl	8004aaa <memmove>
 800436e:	6823      	ldr	r3, [r4, #0]
 8004370:	442b      	add	r3, r5
 8004372:	6023      	str	r3, [r4, #0]
 8004374:	4621      	mov	r1, r4
 8004376:	4638      	mov	r0, r7
 8004378:	f7ff fd66 	bl	8003e48 <_fflush_r>
 800437c:	2800      	cmp	r0, #0
 800437e:	d13c      	bne.n	80043fa <__sfvwrite_r+0x166>
 8004380:	ebb9 0905 	subs.w	r9, r9, r5
 8004384:	f040 80cf 	bne.w	8004526 <__sfvwrite_r+0x292>
 8004388:	4621      	mov	r1, r4
 800438a:	4638      	mov	r0, r7
 800438c:	f7ff fd5c 	bl	8003e48 <_fflush_r>
 8004390:	2800      	cmp	r0, #0
 8004392:	d132      	bne.n	80043fa <__sfvwrite_r+0x166>
 8004394:	f8d8 3008 	ldr.w	r3, [r8, #8]
 8004398:	44aa      	add	sl, r5
 800439a:	ebab 0b05 	sub.w	fp, fp, r5
 800439e:	1b5d      	subs	r5, r3, r5
 80043a0:	f8c8 5008 	str.w	r5, [r8, #8]
 80043a4:	2d00      	cmp	r5, #0
 80043a6:	d1bf      	bne.n	8004328 <__sfvwrite_r+0x94>
 80043a8:	e77b      	b.n	80042a2 <__sfvwrite_r+0xe>
 80043aa:	4699      	mov	r9, r3
 80043ac:	469a      	mov	sl, r3
 80043ae:	f1ba 0f00 	cmp.w	sl, #0
 80043b2:	d027      	beq.n	8004404 <__sfvwrite_r+0x170>
 80043b4:	89a2      	ldrh	r2, [r4, #12]
 80043b6:	68a5      	ldr	r5, [r4, #8]
 80043b8:	0591      	lsls	r1, r2, #22
 80043ba:	d565      	bpl.n	8004488 <__sfvwrite_r+0x1f4>
 80043bc:	45aa      	cmp	sl, r5
 80043be:	d33b      	bcc.n	8004438 <__sfvwrite_r+0x1a4>
 80043c0:	f412 6f90 	tst.w	r2, #1152	; 0x480
 80043c4:	d036      	beq.n	8004434 <__sfvwrite_r+0x1a0>
 80043c6:	6921      	ldr	r1, [r4, #16]
 80043c8:	6823      	ldr	r3, [r4, #0]
 80043ca:	1a5b      	subs	r3, r3, r1
 80043cc:	9301      	str	r3, [sp, #4]
 80043ce:	6963      	ldr	r3, [r4, #20]
 80043d0:	2002      	movs	r0, #2
 80043d2:	eb03 0343 	add.w	r3, r3, r3, lsl #1
 80043d6:	fb93 fbf0 	sdiv	fp, r3, r0
 80043da:	9b01      	ldr	r3, [sp, #4]
 80043dc:	1c58      	adds	r0, r3, #1
 80043de:	4450      	add	r0, sl
 80043e0:	4583      	cmp	fp, r0
 80043e2:	bf38      	it	cc
 80043e4:	4683      	movcc	fp, r0
 80043e6:	0553      	lsls	r3, r2, #21
 80043e8:	d53e      	bpl.n	8004468 <__sfvwrite_r+0x1d4>
 80043ea:	4659      	mov	r1, fp
 80043ec:	4638      	mov	r0, r7
 80043ee:	f000 f943 	bl	8004678 <_malloc_r>
 80043f2:	4605      	mov	r5, r0
 80043f4:	b950      	cbnz	r0, 800440c <__sfvwrite_r+0x178>
 80043f6:	230c      	movs	r3, #12
 80043f8:	603b      	str	r3, [r7, #0]
 80043fa:	89a3      	ldrh	r3, [r4, #12]
 80043fc:	f043 0340 	orr.w	r3, r3, #64	; 0x40
 8004400:	81a3      	strh	r3, [r4, #12]
 8004402:	e782      	b.n	800430a <__sfvwrite_r+0x76>
 8004404:	e896 0600 	ldmia.w	r6, {r9, sl}
 8004408:	3608      	adds	r6, #8
 800440a:	e7d0      	b.n	80043ae <__sfvwrite_r+0x11a>
 800440c:	9a01      	ldr	r2, [sp, #4]
 800440e:	6921      	ldr	r1, [r4, #16]
 8004410:	f000 fb40 	bl	8004a94 <memcpy>
 8004414:	89a2      	ldrh	r2, [r4, #12]
 8004416:	f422 6290 	bic.w	r2, r2, #1152	; 0x480
 800441a:	f042 0280 	orr.w	r2, r2, #128	; 0x80
 800441e:	81a2      	strh	r2, [r4, #12]
 8004420:	9b01      	ldr	r3, [sp, #4]
 8004422:	6125      	str	r5, [r4, #16]
 8004424:	441d      	add	r5, r3
 8004426:	ebab 0303 	sub.w	r3, fp, r3
 800442a:	6025      	str	r5, [r4, #0]
 800442c:	f8c4 b014 	str.w	fp, [r4, #20]
 8004430:	4655      	mov	r5, sl
 8004432:	60a3      	str	r3, [r4, #8]
 8004434:	45aa      	cmp	sl, r5
 8004436:	d200      	bcs.n	800443a <__sfvwrite_r+0x1a6>
 8004438:	4655      	mov	r5, sl
 800443a:	462a      	mov	r2, r5
 800443c:	4649      	mov	r1, r9
 800443e:	6820      	ldr	r0, [r4, #0]
 8004440:	f000 fb33 	bl	8004aaa <memmove>
 8004444:	68a3      	ldr	r3, [r4, #8]
 8004446:	1b5b      	subs	r3, r3, r5
 8004448:	60a3      	str	r3, [r4, #8]
 800444a:	6823      	ldr	r3, [r4, #0]
 800444c:	441d      	add	r5, r3
 800444e:	6025      	str	r5, [r4, #0]
 8004450:	4655      	mov	r5, sl
 8004452:	f8d8 3008 	ldr.w	r3, [r8, #8]
 8004456:	44a9      	add	r9, r5
 8004458:	ebaa 0a05 	sub.w	sl, sl, r5
 800445c:	1b5d      	subs	r5, r3, r5
 800445e:	f8c8 5008 	str.w	r5, [r8, #8]
 8004462:	2d00      	cmp	r5, #0
 8004464:	d1a3      	bne.n	80043ae <__sfvwrite_r+0x11a>
 8004466:	e71c      	b.n	80042a2 <__sfvwrite_r+0xe>
 8004468:	465a      	mov	r2, fp
 800446a:	4638      	mov	r0, r7
 800446c:	f000 fe1c 	bl	80050a8 <_realloc_r>
 8004470:	4605      	mov	r5, r0
 8004472:	2800      	cmp	r0, #0
 8004474:	d1d4      	bne.n	8004420 <__sfvwrite_r+0x18c>
 8004476:	6921      	ldr	r1, [r4, #16]
 8004478:	4638      	mov	r0, r7
 800447a:	f7ff fe4f 	bl	800411c <_free_r>
 800447e:	89a3      	ldrh	r3, [r4, #12]
 8004480:	f023 0380 	bic.w	r3, r3, #128	; 0x80
 8004484:	81a3      	strh	r3, [r4, #12]
 8004486:	e7b6      	b.n	80043f6 <__sfvwrite_r+0x162>
 8004488:	6820      	ldr	r0, [r4, #0]
 800448a:	6923      	ldr	r3, [r4, #16]
 800448c:	4298      	cmp	r0, r3
 800448e:	d802      	bhi.n	8004496 <__sfvwrite_r+0x202>
 8004490:	6962      	ldr	r2, [r4, #20]
 8004492:	4592      	cmp	sl, r2
 8004494:	d215      	bcs.n	80044c2 <__sfvwrite_r+0x22e>
 8004496:	4555      	cmp	r5, sl
 8004498:	bf28      	it	cs
 800449a:	4655      	movcs	r5, sl
 800449c:	462a      	mov	r2, r5
 800449e:	4649      	mov	r1, r9
 80044a0:	f000 fb03 	bl	8004aaa <memmove>
 80044a4:	68a3      	ldr	r3, [r4, #8]
 80044a6:	6822      	ldr	r2, [r4, #0]
 80044a8:	1b5b      	subs	r3, r3, r5
 80044aa:	442a      	add	r2, r5
 80044ac:	60a3      	str	r3, [r4, #8]
 80044ae:	6022      	str	r2, [r4, #0]
 80044b0:	2b00      	cmp	r3, #0
 80044b2:	d1ce      	bne.n	8004452 <__sfvwrite_r+0x1be>
 80044b4:	4621      	mov	r1, r4
 80044b6:	4638      	mov	r0, r7
 80044b8:	f7ff fcc6 	bl	8003e48 <_fflush_r>
 80044bc:	2800      	cmp	r0, #0
 80044be:	d0c8      	beq.n	8004452 <__sfvwrite_r+0x1be>
 80044c0:	e79b      	b.n	80043fa <__sfvwrite_r+0x166>
 80044c2:	f06f 4300 	mvn.w	r3, #2147483648	; 0x80000000
 80044c6:	4553      	cmp	r3, sl
 80044c8:	bf28      	it	cs
 80044ca:	4653      	movcs	r3, sl
 80044cc:	6aa5      	ldr	r5, [r4, #40]	; 0x28
 80044ce:	fb93 f3f2 	sdiv	r3, r3, r2
 80044d2:	6a21      	ldr	r1, [r4, #32]
 80044d4:	4353      	muls	r3, r2
 80044d6:	4638      	mov	r0, r7
 80044d8:	464a      	mov	r2, r9
 80044da:	47a8      	blx	r5
 80044dc:	1e05      	subs	r5, r0, #0
 80044de:	dcb8      	bgt.n	8004452 <__sfvwrite_r+0x1be>
 80044e0:	e78b      	b.n	80043fa <__sfvwrite_r+0x166>
 80044e2:	e896 0c00 	ldmia.w	r6, {sl, fp}
 80044e6:	2000      	movs	r0, #0
 80044e8:	3608      	adds	r6, #8
 80044ea:	e71d      	b.n	8004328 <__sfvwrite_r+0x94>
 80044ec:	f10b 0901 	add.w	r9, fp, #1
 80044f0:	e72a      	b.n	8004348 <__sfvwrite_r+0xb4>
 80044f2:	4293      	cmp	r3, r2
 80044f4:	db09      	blt.n	800450a <__sfvwrite_r+0x276>
 80044f6:	6aa5      	ldr	r5, [r4, #40]	; 0x28
 80044f8:	6a21      	ldr	r1, [r4, #32]
 80044fa:	4613      	mov	r3, r2
 80044fc:	4638      	mov	r0, r7
 80044fe:	4652      	mov	r2, sl
 8004500:	47a8      	blx	r5
 8004502:	1e05      	subs	r5, r0, #0
 8004504:	f73f af3c 	bgt.w	8004380 <__sfvwrite_r+0xec>
 8004508:	e777      	b.n	80043fa <__sfvwrite_r+0x166>
 800450a:	461a      	mov	r2, r3
 800450c:	4651      	mov	r1, sl
 800450e:	9301      	str	r3, [sp, #4]
 8004510:	f000 facb 	bl	8004aaa <memmove>
 8004514:	9b01      	ldr	r3, [sp, #4]
 8004516:	68a2      	ldr	r2, [r4, #8]
 8004518:	1ad2      	subs	r2, r2, r3
 800451a:	60a2      	str	r2, [r4, #8]
 800451c:	6822      	ldr	r2, [r4, #0]
 800451e:	441a      	add	r2, r3
 8004520:	6022      	str	r2, [r4, #0]
 8004522:	461d      	mov	r5, r3
 8004524:	e72c      	b.n	8004380 <__sfvwrite_r+0xec>
 8004526:	2001      	movs	r0, #1
 8004528:	e734      	b.n	8004394 <__sfvwrite_r+0x100>
 800452a:	bf00      	nop
 800452c:	7ffffc00 	.word	0x7ffffc00

08004530 <_fwalk_reent>:
 8004530:	e92d 43f8 	stmdb	sp!, {r3, r4, r5, r6, r7, r8, r9, lr}
 8004534:	4680      	mov	r8, r0
 8004536:	4689      	mov	r9, r1
 8004538:	f100 04d8 	add.w	r4, r0, #216	; 0xd8
 800453c:	2600      	movs	r6, #0
 800453e:	b914      	cbnz	r4, 8004546 <_fwalk_reent+0x16>
 8004540:	4630      	mov	r0, r6
 8004542:	e8bd 83f8 	ldmia.w	sp!, {r3, r4, r5, r6, r7, r8, r9, pc}
 8004546:	68a5      	ldr	r5, [r4, #8]
 8004548:	6867      	ldr	r7, [r4, #4]
 800454a:	3f01      	subs	r7, #1
 800454c:	d501      	bpl.n	8004552 <_fwalk_reent+0x22>
 800454e:	6824      	ldr	r4, [r4, #0]
 8004550:	e7f5      	b.n	800453e <_fwalk_reent+0xe>
 8004552:	89ab      	ldrh	r3, [r5, #12]
 8004554:	2b01      	cmp	r3, #1
 8004556:	d907      	bls.n	8004568 <_fwalk_reent+0x38>
 8004558:	f9b5 300e 	ldrsh.w	r3, [r5, #14]
 800455c:	3301      	adds	r3, #1
 800455e:	d003      	beq.n	8004568 <_fwalk_reent+0x38>
 8004560:	4629      	mov	r1, r5
 8004562:	4640      	mov	r0, r8
 8004564:	47c8      	blx	r9
 8004566:	4306      	orrs	r6, r0
 8004568:	3568      	adds	r5, #104	; 0x68
 800456a:	e7ee      	b.n	800454a <_fwalk_reent+0x1a>

0800456c <_localeconv_r>:
 800456c:	4b04      	ldr	r3, [pc, #16]	; (8004580 <_localeconv_r+0x14>)
 800456e:	681b      	ldr	r3, [r3, #0]
 8004570:	6a18      	ldr	r0, [r3, #32]
 8004572:	4b04      	ldr	r3, [pc, #16]	; (8004584 <_localeconv_r+0x18>)
 8004574:	2800      	cmp	r0, #0
 8004576:	bf08      	it	eq
 8004578:	4618      	moveq	r0, r3
 800457a:	30f0      	adds	r0, #240	; 0xf0
 800457c:	4770      	bx	lr
 800457e:	bf00      	nop
 8004580:	20000004 	.word	0x20000004
 8004584:	20000508 	.word	0x20000508

08004588 <__retarget_lock_init_recursive>:
 8004588:	4770      	bx	lr

0800458a <__retarget_lock_close_recursive>:
 800458a:	4770      	bx	lr

0800458c <__retarget_lock_acquire_recursive>:
 800458c:	4770      	bx	lr

0800458e <__retarget_lock_release_recursive>:
 800458e:	4770      	bx	lr

08004590 <__swhatbuf_r>:
 8004590:	b570      	push	{r4, r5, r6, lr}
 8004592:	460e      	mov	r6, r1
 8004594:	f9b1 100e 	ldrsh.w	r1, [r1, #14]
 8004598:	2900      	cmp	r1, #0
 800459a:	b090      	sub	sp, #64	; 0x40
 800459c:	4614      	mov	r4, r2
 800459e:	461d      	mov	r5, r3
 80045a0:	da09      	bge.n	80045b6 <__swhatbuf_r+0x26>
 80045a2:	89b3      	ldrh	r3, [r6, #12]
 80045a4:	2200      	movs	r2, #0
 80045a6:	f013 0080 	ands.w	r0, r3, #128	; 0x80
 80045aa:	602a      	str	r2, [r5, #0]
 80045ac:	d116      	bne.n	80045dc <__swhatbuf_r+0x4c>
 80045ae:	f44f 6380 	mov.w	r3, #1024	; 0x400
 80045b2:	6023      	str	r3, [r4, #0]
 80045b4:	e015      	b.n	80045e2 <__swhatbuf_r+0x52>
 80045b6:	aa01      	add	r2, sp, #4
 80045b8:	f001 f8a4 	bl	8005704 <_fstat_r>
 80045bc:	2800      	cmp	r0, #0
 80045be:	dbf0      	blt.n	80045a2 <__swhatbuf_r+0x12>
 80045c0:	9a02      	ldr	r2, [sp, #8]
 80045c2:	f402 4270 	and.w	r2, r2, #61440	; 0xf000
 80045c6:	f5a2 5300 	sub.w	r3, r2, #8192	; 0x2000
 80045ca:	425a      	negs	r2, r3
 80045cc:	415a      	adcs	r2, r3
 80045ce:	f44f 6380 	mov.w	r3, #1024	; 0x400
 80045d2:	602a      	str	r2, [r5, #0]
 80045d4:	f44f 6000 	mov.w	r0, #2048	; 0x800
 80045d8:	6023      	str	r3, [r4, #0]
 80045da:	e002      	b.n	80045e2 <__swhatbuf_r+0x52>
 80045dc:	2340      	movs	r3, #64	; 0x40
 80045de:	6023      	str	r3, [r4, #0]
 80045e0:	4610      	mov	r0, r2
 80045e2:	b010      	add	sp, #64	; 0x40
 80045e4:	bd70      	pop	{r4, r5, r6, pc}
	...

080045e8 <__smakebuf_r>:
 80045e8:	898b      	ldrh	r3, [r1, #12]
 80045ea:	b573      	push	{r0, r1, r4, r5, r6, lr}
 80045ec:	079d      	lsls	r5, r3, #30
 80045ee:	4606      	mov	r6, r0
 80045f0:	460c      	mov	r4, r1
 80045f2:	d507      	bpl.n	8004604 <__smakebuf_r+0x1c>
 80045f4:	f104 0347 	add.w	r3, r4, #71	; 0x47
 80045f8:	6023      	str	r3, [r4, #0]
 80045fa:	6123      	str	r3, [r4, #16]
 80045fc:	2301      	movs	r3, #1
 80045fe:	6163      	str	r3, [r4, #20]
 8004600:	b002      	add	sp, #8
 8004602:	bd70      	pop	{r4, r5, r6, pc}
 8004604:	ab01      	add	r3, sp, #4
 8004606:	466a      	mov	r2, sp
 8004608:	f7ff ffc2 	bl	8004590 <__swhatbuf_r>
 800460c:	9900      	ldr	r1, [sp, #0]
 800460e:	4605      	mov	r5, r0
 8004610:	4630      	mov	r0, r6
 8004612:	f000 f831 	bl	8004678 <_malloc_r>
 8004616:	b948      	cbnz	r0, 800462c <__smakebuf_r+0x44>
 8004618:	f9b4 300c 	ldrsh.w	r3, [r4, #12]
 800461c:	059a      	lsls	r2, r3, #22
 800461e:	d4ef      	bmi.n	8004600 <__smakebuf_r+0x18>
 8004620:	f023 0303 	bic.w	r3, r3, #3
 8004624:	f043 0302 	orr.w	r3, r3, #2
 8004628:	81a3      	strh	r3, [r4, #12]
 800462a:	e7e3      	b.n	80045f4 <__smakebuf_r+0xc>
 800462c:	4b0d      	ldr	r3, [pc, #52]	; (8004664 <__smakebuf_r+0x7c>)
 800462e:	62b3      	str	r3, [r6, #40]	; 0x28
 8004630:	89a3      	ldrh	r3, [r4, #12]
 8004632:	6020      	str	r0, [r4, #0]
 8004634:	f043 0380 	orr.w	r3, r3, #128	; 0x80
 8004638:	81a3      	strh	r3, [r4, #12]
 800463a:	9b00      	ldr	r3, [sp, #0]
 800463c:	6163      	str	r3, [r4, #20]
 800463e:	9b01      	ldr	r3, [sp, #4]
 8004640:	6120      	str	r0, [r4, #16]
 8004642:	b15b      	cbz	r3, 800465c <__smakebuf_r+0x74>
 8004644:	f9b4 100e 	ldrsh.w	r1, [r4, #14]
 8004648:	4630      	mov	r0, r6
 800464a:	f001 f86d 	bl	8005728 <_isatty_r>
 800464e:	b128      	cbz	r0, 800465c <__smakebuf_r+0x74>
 8004650:	89a3      	ldrh	r3, [r4, #12]
 8004652:	f023 0303 	bic.w	r3, r3, #3
 8004656:	f043 0301 	orr.w	r3, r3, #1
 800465a:	81a3      	strh	r3, [r4, #12]
 800465c:	89a3      	ldrh	r3, [r4, #12]
 800465e:	431d      	orrs	r5, r3
 8004660:	81a5      	strh	r5, [r4, #12]
 8004662:	e7cd      	b.n	8004600 <__smakebuf_r+0x18>
 8004664:	08003ec1 	.word	0x08003ec1

08004668 <malloc>:
 8004668:	4b02      	ldr	r3, [pc, #8]	; (8004674 <malloc+0xc>)
 800466a:	4601      	mov	r1, r0
 800466c:	6818      	ldr	r0, [r3, #0]
 800466e:	f000 b803 	b.w	8004678 <_malloc_r>
 8004672:	bf00      	nop
 8004674:	20000004 	.word	0x20000004

08004678 <_malloc_r>:
 8004678:	e92d 4ff7 	stmdb	sp!, {r0, r1, r2, r4, r5, r6, r7, r8, r9, sl, fp, lr}
 800467c:	f101 040b 	add.w	r4, r1, #11
 8004680:	2c16      	cmp	r4, #22
 8004682:	4681      	mov	r9, r0
 8004684:	d907      	bls.n	8004696 <_malloc_r+0x1e>
 8004686:	f034 0407 	bics.w	r4, r4, #7
 800468a:	d505      	bpl.n	8004698 <_malloc_r+0x20>
 800468c:	230c      	movs	r3, #12
 800468e:	f8c9 3000 	str.w	r3, [r9]
 8004692:	2600      	movs	r6, #0
 8004694:	e131      	b.n	80048fa <_malloc_r+0x282>
 8004696:	2410      	movs	r4, #16
 8004698:	428c      	cmp	r4, r1
 800469a:	d3f7      	bcc.n	800468c <_malloc_r+0x14>
 800469c:	4648      	mov	r0, r9
 800469e:	f000 fa27 	bl	8004af0 <__malloc_lock>
 80046a2:	f5b4 7ffc 	cmp.w	r4, #504	; 0x1f8
 80046a6:	4d9c      	ldr	r5, [pc, #624]	; (8004918 <_malloc_r+0x2a0>)
 80046a8:	d236      	bcs.n	8004718 <_malloc_r+0xa0>
 80046aa:	f104 0208 	add.w	r2, r4, #8
 80046ae:	442a      	add	r2, r5
 80046b0:	f1a2 0108 	sub.w	r1, r2, #8
 80046b4:	6856      	ldr	r6, [r2, #4]
 80046b6:	428e      	cmp	r6, r1
 80046b8:	ea4f 03d4 	mov.w	r3, r4, lsr #3
 80046bc:	d102      	bne.n	80046c4 <_malloc_r+0x4c>
 80046be:	68d6      	ldr	r6, [r2, #12]
 80046c0:	42b2      	cmp	r2, r6
 80046c2:	d010      	beq.n	80046e6 <_malloc_r+0x6e>
 80046c4:	6873      	ldr	r3, [r6, #4]
 80046c6:	68f2      	ldr	r2, [r6, #12]
 80046c8:	68b1      	ldr	r1, [r6, #8]
 80046ca:	f023 0303 	bic.w	r3, r3, #3
 80046ce:	60ca      	str	r2, [r1, #12]
 80046d0:	4433      	add	r3, r6
 80046d2:	6091      	str	r1, [r2, #8]
 80046d4:	685a      	ldr	r2, [r3, #4]
 80046d6:	f042 0201 	orr.w	r2, r2, #1
 80046da:	605a      	str	r2, [r3, #4]
 80046dc:	4648      	mov	r0, r9
 80046de:	f000 fa0d 	bl	8004afc <__malloc_unlock>
 80046e2:	3608      	adds	r6, #8
 80046e4:	e109      	b.n	80048fa <_malloc_r+0x282>
 80046e6:	3302      	adds	r3, #2
 80046e8:	4a8c      	ldr	r2, [pc, #560]	; (800491c <_malloc_r+0x2a4>)
 80046ea:	692e      	ldr	r6, [r5, #16]
 80046ec:	4296      	cmp	r6, r2
 80046ee:	4611      	mov	r1, r2
 80046f0:	d06d      	beq.n	80047ce <_malloc_r+0x156>
 80046f2:	6870      	ldr	r0, [r6, #4]
 80046f4:	f020 0003 	bic.w	r0, r0, #3
 80046f8:	1b07      	subs	r7, r0, r4
 80046fa:	2f0f      	cmp	r7, #15
 80046fc:	dd47      	ble.n	800478e <_malloc_r+0x116>
 80046fe:	1933      	adds	r3, r6, r4
 8004700:	f044 0401 	orr.w	r4, r4, #1
 8004704:	6074      	str	r4, [r6, #4]
 8004706:	616b      	str	r3, [r5, #20]
 8004708:	612b      	str	r3, [r5, #16]
 800470a:	60da      	str	r2, [r3, #12]
 800470c:	609a      	str	r2, [r3, #8]
 800470e:	f047 0201 	orr.w	r2, r7, #1
 8004712:	605a      	str	r2, [r3, #4]
 8004714:	5037      	str	r7, [r6, r0]
 8004716:	e7e1      	b.n	80046dc <_malloc_r+0x64>
 8004718:	0a63      	lsrs	r3, r4, #9
 800471a:	d02a      	beq.n	8004772 <_malloc_r+0xfa>
 800471c:	2b04      	cmp	r3, #4
 800471e:	d812      	bhi.n	8004746 <_malloc_r+0xce>
 8004720:	09a3      	lsrs	r3, r4, #6
 8004722:	3338      	adds	r3, #56	; 0x38
 8004724:	1c5a      	adds	r2, r3, #1
 8004726:	eb05 02c2 	add.w	r2, r5, r2, lsl #3
 800472a:	f1a2 0008 	sub.w	r0, r2, #8
 800472e:	6856      	ldr	r6, [r2, #4]
 8004730:	4286      	cmp	r6, r0
 8004732:	d006      	beq.n	8004742 <_malloc_r+0xca>
 8004734:	6872      	ldr	r2, [r6, #4]
 8004736:	f022 0203 	bic.w	r2, r2, #3
 800473a:	1b11      	subs	r1, r2, r4
 800473c:	290f      	cmp	r1, #15
 800473e:	dd1c      	ble.n	800477a <_malloc_r+0x102>
 8004740:	3b01      	subs	r3, #1
 8004742:	3301      	adds	r3, #1
 8004744:	e7d0      	b.n	80046e8 <_malloc_r+0x70>
 8004746:	2b14      	cmp	r3, #20
 8004748:	d801      	bhi.n	800474e <_malloc_r+0xd6>
 800474a:	335b      	adds	r3, #91	; 0x5b
 800474c:	e7ea      	b.n	8004724 <_malloc_r+0xac>
 800474e:	2b54      	cmp	r3, #84	; 0x54
 8004750:	d802      	bhi.n	8004758 <_malloc_r+0xe0>
 8004752:	0b23      	lsrs	r3, r4, #12
 8004754:	336e      	adds	r3, #110	; 0x6e
 8004756:	e7e5      	b.n	8004724 <_malloc_r+0xac>
 8004758:	f5b3 7faa 	cmp.w	r3, #340	; 0x154
 800475c:	d802      	bhi.n	8004764 <_malloc_r+0xec>
 800475e:	0be3      	lsrs	r3, r4, #15
 8004760:	3377      	adds	r3, #119	; 0x77
 8004762:	e7df      	b.n	8004724 <_malloc_r+0xac>
 8004764:	f240 5254 	movw	r2, #1364	; 0x554
 8004768:	4293      	cmp	r3, r2
 800476a:	d804      	bhi.n	8004776 <_malloc_r+0xfe>
 800476c:	0ca3      	lsrs	r3, r4, #18
 800476e:	337c      	adds	r3, #124	; 0x7c
 8004770:	e7d8      	b.n	8004724 <_malloc_r+0xac>
 8004772:	233f      	movs	r3, #63	; 0x3f
 8004774:	e7d6      	b.n	8004724 <_malloc_r+0xac>
 8004776:	237e      	movs	r3, #126	; 0x7e
 8004778:	e7d4      	b.n	8004724 <_malloc_r+0xac>
 800477a:	2900      	cmp	r1, #0
 800477c:	68f1      	ldr	r1, [r6, #12]
 800477e:	db04      	blt.n	800478a <_malloc_r+0x112>
 8004780:	68b3      	ldr	r3, [r6, #8]
 8004782:	60d9      	str	r1, [r3, #12]
 8004784:	608b      	str	r3, [r1, #8]
 8004786:	18b3      	adds	r3, r6, r2
 8004788:	e7a4      	b.n	80046d4 <_malloc_r+0x5c>
 800478a:	460e      	mov	r6, r1
 800478c:	e7d0      	b.n	8004730 <_malloc_r+0xb8>
 800478e:	2f00      	cmp	r7, #0
 8004790:	616a      	str	r2, [r5, #20]
 8004792:	612a      	str	r2, [r5, #16]
 8004794:	db05      	blt.n	80047a2 <_malloc_r+0x12a>
 8004796:	4430      	add	r0, r6
 8004798:	6843      	ldr	r3, [r0, #4]
 800479a:	f043 0301 	orr.w	r3, r3, #1
 800479e:	6043      	str	r3, [r0, #4]
 80047a0:	e79c      	b.n	80046dc <_malloc_r+0x64>
 80047a2:	f5b0 7f00 	cmp.w	r0, #512	; 0x200
 80047a6:	d244      	bcs.n	8004832 <_malloc_r+0x1ba>
 80047a8:	08c0      	lsrs	r0, r0, #3
 80047aa:	1087      	asrs	r7, r0, #2
 80047ac:	2201      	movs	r2, #1
 80047ae:	fa02 f707 	lsl.w	r7, r2, r7
 80047b2:	686a      	ldr	r2, [r5, #4]
 80047b4:	3001      	adds	r0, #1
 80047b6:	433a      	orrs	r2, r7
 80047b8:	606a      	str	r2, [r5, #4]
 80047ba:	eb05 02c0 	add.w	r2, r5, r0, lsl #3
 80047be:	f855 7030 	ldr.w	r7, [r5, r0, lsl #3]
 80047c2:	60b7      	str	r7, [r6, #8]
 80047c4:	3a08      	subs	r2, #8
 80047c6:	60f2      	str	r2, [r6, #12]
 80047c8:	f845 6030 	str.w	r6, [r5, r0, lsl #3]
 80047cc:	60fe      	str	r6, [r7, #12]
 80047ce:	2001      	movs	r0, #1
 80047d0:	109a      	asrs	r2, r3, #2
 80047d2:	fa00 f202 	lsl.w	r2, r0, r2
 80047d6:	6868      	ldr	r0, [r5, #4]
 80047d8:	4282      	cmp	r2, r0
 80047da:	f200 80a1 	bhi.w	8004920 <_malloc_r+0x2a8>
 80047de:	4202      	tst	r2, r0
 80047e0:	d106      	bne.n	80047f0 <_malloc_r+0x178>
 80047e2:	f023 0303 	bic.w	r3, r3, #3
 80047e6:	0052      	lsls	r2, r2, #1
 80047e8:	4202      	tst	r2, r0
 80047ea:	f103 0304 	add.w	r3, r3, #4
 80047ee:	d0fa      	beq.n	80047e6 <_malloc_r+0x16e>
 80047f0:	eb05 0cc3 	add.w	ip, r5, r3, lsl #3
 80047f4:	46e0      	mov	r8, ip
 80047f6:	469e      	mov	lr, r3
 80047f8:	f8d8 600c 	ldr.w	r6, [r8, #12]
 80047fc:	4546      	cmp	r6, r8
 80047fe:	d153      	bne.n	80048a8 <_malloc_r+0x230>
 8004800:	f10e 0e01 	add.w	lr, lr, #1
 8004804:	f01e 0f03 	tst.w	lr, #3
 8004808:	f108 0808 	add.w	r8, r8, #8
 800480c:	d1f4      	bne.n	80047f8 <_malloc_r+0x180>
 800480e:	0798      	lsls	r0, r3, #30
 8004810:	d179      	bne.n	8004906 <_malloc_r+0x28e>
 8004812:	686b      	ldr	r3, [r5, #4]
 8004814:	ea23 0302 	bic.w	r3, r3, r2
 8004818:	606b      	str	r3, [r5, #4]
 800481a:	6868      	ldr	r0, [r5, #4]
 800481c:	0052      	lsls	r2, r2, #1
 800481e:	4282      	cmp	r2, r0
 8004820:	d87e      	bhi.n	8004920 <_malloc_r+0x2a8>
 8004822:	2a00      	cmp	r2, #0
 8004824:	d07c      	beq.n	8004920 <_malloc_r+0x2a8>
 8004826:	4673      	mov	r3, lr
 8004828:	4202      	tst	r2, r0
 800482a:	d1e1      	bne.n	80047f0 <_malloc_r+0x178>
 800482c:	3304      	adds	r3, #4
 800482e:	0052      	lsls	r2, r2, #1
 8004830:	e7fa      	b.n	8004828 <_malloc_r+0x1b0>
 8004832:	0a42      	lsrs	r2, r0, #9
 8004834:	2a04      	cmp	r2, #4
 8004836:	d815      	bhi.n	8004864 <_malloc_r+0x1ec>
 8004838:	0982      	lsrs	r2, r0, #6
 800483a:	3238      	adds	r2, #56	; 0x38
 800483c:	1c57      	adds	r7, r2, #1
 800483e:	eb05 0ec2 	add.w	lr, r5, r2, lsl #3
 8004842:	f855 7037 	ldr.w	r7, [r5, r7, lsl #3]
 8004846:	45be      	cmp	lr, r7
 8004848:	d126      	bne.n	8004898 <_malloc_r+0x220>
 800484a:	2001      	movs	r0, #1
 800484c:	1092      	asrs	r2, r2, #2
 800484e:	fa00 f202 	lsl.w	r2, r0, r2
 8004852:	6868      	ldr	r0, [r5, #4]
 8004854:	4310      	orrs	r0, r2
 8004856:	6068      	str	r0, [r5, #4]
 8004858:	f8c6 e00c 	str.w	lr, [r6, #12]
 800485c:	60b7      	str	r7, [r6, #8]
 800485e:	f8ce 6008 	str.w	r6, [lr, #8]
 8004862:	e7b3      	b.n	80047cc <_malloc_r+0x154>
 8004864:	2a14      	cmp	r2, #20
 8004866:	d801      	bhi.n	800486c <_malloc_r+0x1f4>
 8004868:	325b      	adds	r2, #91	; 0x5b
 800486a:	e7e7      	b.n	800483c <_malloc_r+0x1c4>
 800486c:	2a54      	cmp	r2, #84	; 0x54
 800486e:	d802      	bhi.n	8004876 <_malloc_r+0x1fe>
 8004870:	0b02      	lsrs	r2, r0, #12
 8004872:	326e      	adds	r2, #110	; 0x6e
 8004874:	e7e2      	b.n	800483c <_malloc_r+0x1c4>
 8004876:	f5b2 7faa 	cmp.w	r2, #340	; 0x154
 800487a:	d802      	bhi.n	8004882 <_malloc_r+0x20a>
 800487c:	0bc2      	lsrs	r2, r0, #15
 800487e:	3277      	adds	r2, #119	; 0x77
 8004880:	e7dc      	b.n	800483c <_malloc_r+0x1c4>
 8004882:	f240 5754 	movw	r7, #1364	; 0x554
 8004886:	42ba      	cmp	r2, r7
 8004888:	bf9a      	itte	ls
 800488a:	0c82      	lsrls	r2, r0, #18
 800488c:	327c      	addls	r2, #124	; 0x7c
 800488e:	227e      	movhi	r2, #126	; 0x7e
 8004890:	e7d4      	b.n	800483c <_malloc_r+0x1c4>
 8004892:	68bf      	ldr	r7, [r7, #8]
 8004894:	45be      	cmp	lr, r7
 8004896:	d004      	beq.n	80048a2 <_malloc_r+0x22a>
 8004898:	687a      	ldr	r2, [r7, #4]
 800489a:	f022 0203 	bic.w	r2, r2, #3
 800489e:	4290      	cmp	r0, r2
 80048a0:	d3f7      	bcc.n	8004892 <_malloc_r+0x21a>
 80048a2:	f8d7 e00c 	ldr.w	lr, [r7, #12]
 80048a6:	e7d7      	b.n	8004858 <_malloc_r+0x1e0>
 80048a8:	6870      	ldr	r0, [r6, #4]
 80048aa:	68f7      	ldr	r7, [r6, #12]
 80048ac:	f020 0003 	bic.w	r0, r0, #3
 80048b0:	eba0 0a04 	sub.w	sl, r0, r4
 80048b4:	f1ba 0f0f 	cmp.w	sl, #15
 80048b8:	dd10      	ble.n	80048dc <_malloc_r+0x264>
 80048ba:	68b2      	ldr	r2, [r6, #8]
 80048bc:	1933      	adds	r3, r6, r4
 80048be:	f044 0401 	orr.w	r4, r4, #1
 80048c2:	6074      	str	r4, [r6, #4]
 80048c4:	60d7      	str	r7, [r2, #12]
 80048c6:	60ba      	str	r2, [r7, #8]
 80048c8:	f04a 0201 	orr.w	r2, sl, #1
 80048cc:	616b      	str	r3, [r5, #20]
 80048ce:	612b      	str	r3, [r5, #16]
 80048d0:	60d9      	str	r1, [r3, #12]
 80048d2:	6099      	str	r1, [r3, #8]
 80048d4:	605a      	str	r2, [r3, #4]
 80048d6:	f846 a000 	str.w	sl, [r6, r0]
 80048da:	e6ff      	b.n	80046dc <_malloc_r+0x64>
 80048dc:	f1ba 0f00 	cmp.w	sl, #0
 80048e0:	db0f      	blt.n	8004902 <_malloc_r+0x28a>
 80048e2:	4430      	add	r0, r6
 80048e4:	6843      	ldr	r3, [r0, #4]
 80048e6:	f043 0301 	orr.w	r3, r3, #1
 80048ea:	6043      	str	r3, [r0, #4]
 80048ec:	f856 3f08 	ldr.w	r3, [r6, #8]!
 80048f0:	4648      	mov	r0, r9
 80048f2:	60df      	str	r7, [r3, #12]
 80048f4:	60bb      	str	r3, [r7, #8]
 80048f6:	f000 f901 	bl	8004afc <__malloc_unlock>
 80048fa:	4630      	mov	r0, r6
 80048fc:	b003      	add	sp, #12
 80048fe:	e8bd 8ff0 	ldmia.w	sp!, {r4, r5, r6, r7, r8, r9, sl, fp, pc}
 8004902:	463e      	mov	r6, r7
 8004904:	e77a      	b.n	80047fc <_malloc_r+0x184>
 8004906:	f85c 0908 	ldr.w	r0, [ip], #-8
 800490a:	4584      	cmp	ip, r0
 800490c:	f103 33ff 	add.w	r3, r3, #4294967295
 8004910:	f43f af7d 	beq.w	800480e <_malloc_r+0x196>
 8004914:	e781      	b.n	800481a <_malloc_r+0x1a2>
 8004916:	bf00      	nop
 8004918:	200000f8 	.word	0x200000f8
 800491c:	20000100 	.word	0x20000100
 8004920:	f8d5 b008 	ldr.w	fp, [r5, #8]
 8004924:	f8db 6004 	ldr.w	r6, [fp, #4]
 8004928:	f026 0603 	bic.w	r6, r6, #3
 800492c:	42b4      	cmp	r4, r6
 800492e:	d803      	bhi.n	8004938 <_malloc_r+0x2c0>
 8004930:	1b33      	subs	r3, r6, r4
 8004932:	2b0f      	cmp	r3, #15
 8004934:	f300 8096 	bgt.w	8004a64 <_malloc_r+0x3ec>
 8004938:	4a4f      	ldr	r2, [pc, #316]	; (8004a78 <_malloc_r+0x400>)
 800493a:	6817      	ldr	r7, [r2, #0]
 800493c:	4a4f      	ldr	r2, [pc, #316]	; (8004a7c <_malloc_r+0x404>)
 800493e:	6811      	ldr	r1, [r2, #0]
 8004940:	3710      	adds	r7, #16
 8004942:	3101      	adds	r1, #1
 8004944:	eb0b 0306 	add.w	r3, fp, r6
 8004948:	4427      	add	r7, r4
 800494a:	d005      	beq.n	8004958 <_malloc_r+0x2e0>
 800494c:	494c      	ldr	r1, [pc, #304]	; (8004a80 <_malloc_r+0x408>)
 800494e:	3901      	subs	r1, #1
 8004950:	440f      	add	r7, r1
 8004952:	3101      	adds	r1, #1
 8004954:	4249      	negs	r1, r1
 8004956:	400f      	ands	r7, r1
 8004958:	4639      	mov	r1, r7
 800495a:	4648      	mov	r0, r9
 800495c:	9201      	str	r2, [sp, #4]
 800495e:	9300      	str	r3, [sp, #0]
 8004960:	f000 fd22 	bl	80053a8 <_sbrk_r>
 8004964:	f1b0 3fff 	cmp.w	r0, #4294967295
 8004968:	4680      	mov	r8, r0
 800496a:	d056      	beq.n	8004a1a <_malloc_r+0x3a2>
 800496c:	9b00      	ldr	r3, [sp, #0]
 800496e:	9a01      	ldr	r2, [sp, #4]
 8004970:	4283      	cmp	r3, r0
 8004972:	d901      	bls.n	8004978 <_malloc_r+0x300>
 8004974:	45ab      	cmp	fp, r5
 8004976:	d150      	bne.n	8004a1a <_malloc_r+0x3a2>
 8004978:	4842      	ldr	r0, [pc, #264]	; (8004a84 <_malloc_r+0x40c>)
 800497a:	6801      	ldr	r1, [r0, #0]
 800497c:	4543      	cmp	r3, r8
 800497e:	eb07 0e01 	add.w	lr, r7, r1
 8004982:	f8c0 e000 	str.w	lr, [r0]
 8004986:	4940      	ldr	r1, [pc, #256]	; (8004a88 <_malloc_r+0x410>)
 8004988:	4682      	mov	sl, r0
 800498a:	d113      	bne.n	80049b4 <_malloc_r+0x33c>
 800498c:	420b      	tst	r3, r1
 800498e:	d111      	bne.n	80049b4 <_malloc_r+0x33c>
 8004990:	68ab      	ldr	r3, [r5, #8]
 8004992:	443e      	add	r6, r7
 8004994:	f046 0601 	orr.w	r6, r6, #1
 8004998:	605e      	str	r6, [r3, #4]
 800499a:	4a3c      	ldr	r2, [pc, #240]	; (8004a8c <_malloc_r+0x414>)
 800499c:	f8da 3000 	ldr.w	r3, [sl]
 80049a0:	6811      	ldr	r1, [r2, #0]
 80049a2:	428b      	cmp	r3, r1
 80049a4:	bf88      	it	hi
 80049a6:	6013      	strhi	r3, [r2, #0]
 80049a8:	4a39      	ldr	r2, [pc, #228]	; (8004a90 <_malloc_r+0x418>)
 80049aa:	6811      	ldr	r1, [r2, #0]
 80049ac:	428b      	cmp	r3, r1
 80049ae:	bf88      	it	hi
 80049b0:	6013      	strhi	r3, [r2, #0]
 80049b2:	e032      	b.n	8004a1a <_malloc_r+0x3a2>
 80049b4:	6810      	ldr	r0, [r2, #0]
 80049b6:	3001      	adds	r0, #1
 80049b8:	bf1b      	ittet	ne
 80049ba:	eba8 0303 	subne.w	r3, r8, r3
 80049be:	4473      	addne	r3, lr
 80049c0:	f8c2 8000 	streq.w	r8, [r2]
 80049c4:	f8ca 3000 	strne.w	r3, [sl]
 80049c8:	f018 0007 	ands.w	r0, r8, #7
 80049cc:	bf1c      	itt	ne
 80049ce:	f1c0 0008 	rsbne	r0, r0, #8
 80049d2:	4480      	addne	r8, r0
 80049d4:	4b2a      	ldr	r3, [pc, #168]	; (8004a80 <_malloc_r+0x408>)
 80049d6:	4447      	add	r7, r8
 80049d8:	4418      	add	r0, r3
 80049da:	400f      	ands	r7, r1
 80049dc:	1bc7      	subs	r7, r0, r7
 80049de:	4639      	mov	r1, r7
 80049e0:	4648      	mov	r0, r9
 80049e2:	f000 fce1 	bl	80053a8 <_sbrk_r>
 80049e6:	1c43      	adds	r3, r0, #1
 80049e8:	bf08      	it	eq
 80049ea:	4640      	moveq	r0, r8
 80049ec:	f8da 3000 	ldr.w	r3, [sl]
 80049f0:	f8c5 8008 	str.w	r8, [r5, #8]
 80049f4:	bf08      	it	eq
 80049f6:	2700      	moveq	r7, #0
 80049f8:	eba0 0008 	sub.w	r0, r0, r8
 80049fc:	443b      	add	r3, r7
 80049fe:	4407      	add	r7, r0
 8004a00:	f047 0701 	orr.w	r7, r7, #1
 8004a04:	45ab      	cmp	fp, r5
 8004a06:	f8ca 3000 	str.w	r3, [sl]
 8004a0a:	f8c8 7004 	str.w	r7, [r8, #4]
 8004a0e:	d0c4      	beq.n	800499a <_malloc_r+0x322>
 8004a10:	2e0f      	cmp	r6, #15
 8004a12:	d810      	bhi.n	8004a36 <_malloc_r+0x3be>
 8004a14:	2301      	movs	r3, #1
 8004a16:	f8c8 3004 	str.w	r3, [r8, #4]
 8004a1a:	68ab      	ldr	r3, [r5, #8]
 8004a1c:	685a      	ldr	r2, [r3, #4]
 8004a1e:	f022 0203 	bic.w	r2, r2, #3
 8004a22:	4294      	cmp	r4, r2
 8004a24:	eba2 0304 	sub.w	r3, r2, r4
 8004a28:	d801      	bhi.n	8004a2e <_malloc_r+0x3b6>
 8004a2a:	2b0f      	cmp	r3, #15
 8004a2c:	dc1a      	bgt.n	8004a64 <_malloc_r+0x3ec>
 8004a2e:	4648      	mov	r0, r9
 8004a30:	f000 f864 	bl	8004afc <__malloc_unlock>
 8004a34:	e62d      	b.n	8004692 <_malloc_r+0x1a>
 8004a36:	f8db 3004 	ldr.w	r3, [fp, #4]
 8004a3a:	3e0c      	subs	r6, #12
 8004a3c:	f026 0607 	bic.w	r6, r6, #7
 8004a40:	f003 0301 	and.w	r3, r3, #1
 8004a44:	4333      	orrs	r3, r6
 8004a46:	f8cb 3004 	str.w	r3, [fp, #4]
 8004a4a:	eb0b 0306 	add.w	r3, fp, r6
 8004a4e:	2205      	movs	r2, #5
 8004a50:	2e0f      	cmp	r6, #15
 8004a52:	605a      	str	r2, [r3, #4]
 8004a54:	609a      	str	r2, [r3, #8]
 8004a56:	d9a0      	bls.n	800499a <_malloc_r+0x322>
 8004a58:	f10b 0108 	add.w	r1, fp, #8
 8004a5c:	4648      	mov	r0, r9
 8004a5e:	f7ff fb5d 	bl	800411c <_free_r>
 8004a62:	e79a      	b.n	800499a <_malloc_r+0x322>
 8004a64:	68ae      	ldr	r6, [r5, #8]
 8004a66:	f044 0201 	orr.w	r2, r4, #1
 8004a6a:	4434      	add	r4, r6
 8004a6c:	f043 0301 	orr.w	r3, r3, #1
 8004a70:	6072      	str	r2, [r6, #4]
 8004a72:	60ac      	str	r4, [r5, #8]
 8004a74:	6063      	str	r3, [r4, #4]
 8004a76:	e631      	b.n	80046dc <_malloc_r+0x64>
 8004a78:	200006c8 	.word	0x200006c8
 8004a7c:	20000500 	.word	0x20000500
 8004a80:	00000080 	.word	0x00000080
 8004a84:	20000698 	.word	0x20000698
 8004a88:	0000007f 	.word	0x0000007f
 8004a8c:	200006c0 	.word	0x200006c0
 8004a90:	200006c4 	.word	0x200006c4

08004a94 <memcpy>:
 8004a94:	b510      	push	{r4, lr}
 8004a96:	1e43      	subs	r3, r0, #1
 8004a98:	440a      	add	r2, r1
 8004a9a:	4291      	cmp	r1, r2
 8004a9c:	d100      	bne.n	8004aa0 <memcpy+0xc>
 8004a9e:	bd10      	pop	{r4, pc}
 8004aa0:	f811 4b01 	ldrb.w	r4, [r1], #1
 8004aa4:	f803 4f01 	strb.w	r4, [r3, #1]!
 8004aa8:	e7f7      	b.n	8004a9a <memcpy+0x6>

08004aaa <memmove>:
 8004aaa:	4288      	cmp	r0, r1
 8004aac:	b510      	push	{r4, lr}
 8004aae:	eb01 0302 	add.w	r3, r1, r2
 8004ab2:	d803      	bhi.n	8004abc <memmove+0x12>
 8004ab4:	1e42      	subs	r2, r0, #1
 8004ab6:	4299      	cmp	r1, r3
 8004ab8:	d10c      	bne.n	8004ad4 <memmove+0x2a>
 8004aba:	bd10      	pop	{r4, pc}
 8004abc:	4298      	cmp	r0, r3
 8004abe:	d2f9      	bcs.n	8004ab4 <memmove+0xa>
 8004ac0:	1881      	adds	r1, r0, r2
 8004ac2:	1ad2      	subs	r2, r2, r3
 8004ac4:	42d3      	cmn	r3, r2
 8004ac6:	d100      	bne.n	8004aca <memmove+0x20>
 8004ac8:	bd10      	pop	{r4, pc}
 8004aca:	f813 4d01 	ldrb.w	r4, [r3, #-1]!
 8004ace:	f801 4d01 	strb.w	r4, [r1, #-1]!
 8004ad2:	e7f7      	b.n	8004ac4 <memmove+0x1a>
 8004ad4:	f811 4b01 	ldrb.w	r4, [r1], #1
 8004ad8:	f802 4f01 	strb.w	r4, [r2, #1]!
 8004adc:	e7eb      	b.n	8004ab6 <memmove+0xc>

08004ade <memset>:
 8004ade:	4402      	add	r2, r0
 8004ae0:	4603      	mov	r3, r0
 8004ae2:	4293      	cmp	r3, r2
 8004ae4:	d100      	bne.n	8004ae8 <memset+0xa>
 8004ae6:	4770      	bx	lr
 8004ae8:	f803 1b01 	strb.w	r1, [r3], #1
 8004aec:	e7f9      	b.n	8004ae2 <memset+0x4>
	...

08004af0 <__malloc_lock>:
 8004af0:	4801      	ldr	r0, [pc, #4]	; (8004af8 <__malloc_lock+0x8>)
 8004af2:	f7ff bd4b 	b.w	800458c <__retarget_lock_acquire_recursive>
 8004af6:	bf00      	nop
 8004af8:	200006d4 	.word	0x200006d4

08004afc <__malloc_unlock>:
 8004afc:	4801      	ldr	r0, [pc, #4]	; (8004b04 <__malloc_unlock+0x8>)
 8004afe:	f7ff bd46 	b.w	800458e <__retarget_lock_release_recursive>
 8004b02:	bf00      	nop
 8004b04:	200006d4 	.word	0x200006d4

08004b08 <_Balloc>:
 8004b08:	b570      	push	{r4, r5, r6, lr}
 8004b0a:	6a45      	ldr	r5, [r0, #36]	; 0x24
 8004b0c:	4604      	mov	r4, r0
 8004b0e:	460e      	mov	r6, r1
 8004b10:	b93d      	cbnz	r5, 8004b22 <_Balloc+0x1a>
 8004b12:	2010      	movs	r0, #16
 8004b14:	f7ff fda8 	bl	8004668 <malloc>
 8004b18:	6260      	str	r0, [r4, #36]	; 0x24
 8004b1a:	6045      	str	r5, [r0, #4]
 8004b1c:	6085      	str	r5, [r0, #8]
 8004b1e:	6005      	str	r5, [r0, #0]
 8004b20:	60c5      	str	r5, [r0, #12]
 8004b22:	6a65      	ldr	r5, [r4, #36]	; 0x24
 8004b24:	68eb      	ldr	r3, [r5, #12]
 8004b26:	b183      	cbz	r3, 8004b4a <_Balloc+0x42>
 8004b28:	6a63      	ldr	r3, [r4, #36]	; 0x24
 8004b2a:	68db      	ldr	r3, [r3, #12]
 8004b2c:	f853 0026 	ldr.w	r0, [r3, r6, lsl #2]
 8004b30:	b9b8      	cbnz	r0, 8004b62 <_Balloc+0x5a>
 8004b32:	2101      	movs	r1, #1
 8004b34:	fa01 f506 	lsl.w	r5, r1, r6
 8004b38:	1d6a      	adds	r2, r5, #5
 8004b3a:	0092      	lsls	r2, r2, #2
 8004b3c:	4620      	mov	r0, r4
 8004b3e:	f000 fccd 	bl	80054dc <_calloc_r>
 8004b42:	b160      	cbz	r0, 8004b5e <_Balloc+0x56>
 8004b44:	6046      	str	r6, [r0, #4]
 8004b46:	6085      	str	r5, [r0, #8]
 8004b48:	e00e      	b.n	8004b68 <_Balloc+0x60>
 8004b4a:	2221      	movs	r2, #33	; 0x21
 8004b4c:	2104      	movs	r1, #4
 8004b4e:	4620      	mov	r0, r4
 8004b50:	f000 fcc4 	bl	80054dc <_calloc_r>
 8004b54:	6a63      	ldr	r3, [r4, #36]	; 0x24
 8004b56:	60e8      	str	r0, [r5, #12]
 8004b58:	68db      	ldr	r3, [r3, #12]
 8004b5a:	2b00      	cmp	r3, #0
 8004b5c:	d1e4      	bne.n	8004b28 <_Balloc+0x20>
 8004b5e:	2000      	movs	r0, #0
 8004b60:	bd70      	pop	{r4, r5, r6, pc}
 8004b62:	6802      	ldr	r2, [r0, #0]
 8004b64:	f843 2026 	str.w	r2, [r3, r6, lsl #2]
 8004b68:	2300      	movs	r3, #0
 8004b6a:	6103      	str	r3, [r0, #16]
 8004b6c:	60c3      	str	r3, [r0, #12]
 8004b6e:	bd70      	pop	{r4, r5, r6, pc}

08004b70 <_Bfree>:
 8004b70:	b570      	push	{r4, r5, r6, lr}
 8004b72:	6a44      	ldr	r4, [r0, #36]	; 0x24
 8004b74:	4606      	mov	r6, r0
 8004b76:	460d      	mov	r5, r1
 8004b78:	b93c      	cbnz	r4, 8004b8a <_Bfree+0x1a>
 8004b7a:	2010      	movs	r0, #16
 8004b7c:	f7ff fd74 	bl	8004668 <malloc>
 8004b80:	6270      	str	r0, [r6, #36]	; 0x24
 8004b82:	6044      	str	r4, [r0, #4]
 8004b84:	6084      	str	r4, [r0, #8]
 8004b86:	6004      	str	r4, [r0, #0]
 8004b88:	60c4      	str	r4, [r0, #12]
 8004b8a:	b13d      	cbz	r5, 8004b9c <_Bfree+0x2c>
 8004b8c:	6a73      	ldr	r3, [r6, #36]	; 0x24
 8004b8e:	686a      	ldr	r2, [r5, #4]
 8004b90:	68db      	ldr	r3, [r3, #12]
 8004b92:	f853 1022 	ldr.w	r1, [r3, r2, lsl #2]
 8004b96:	6029      	str	r1, [r5, #0]
 8004b98:	f843 5022 	str.w	r5, [r3, r2, lsl #2]
 8004b9c:	bd70      	pop	{r4, r5, r6, pc}

08004b9e <__multadd>:
 8004b9e:	e92d 41f0 	stmdb	sp!, {r4, r5, r6, r7, r8, lr}
 8004ba2:	690d      	ldr	r5, [r1, #16]
 8004ba4:	461f      	mov	r7, r3
 8004ba6:	4606      	mov	r6, r0
 8004ba8:	460c      	mov	r4, r1
 8004baa:	f101 0e14 	add.w	lr, r1, #20
 8004bae:	2300      	movs	r3, #0
 8004bb0:	f8de 0000 	ldr.w	r0, [lr]
 8004bb4:	b281      	uxth	r1, r0
 8004bb6:	fb02 7101 	mla	r1, r2, r1, r7
 8004bba:	0c0f      	lsrs	r7, r1, #16
 8004bbc:	0c00      	lsrs	r0, r0, #16
 8004bbe:	fb02 7000 	mla	r0, r2, r0, r7
 8004bc2:	b289      	uxth	r1, r1
 8004bc4:	3301      	adds	r3, #1
 8004bc6:	eb01 4100 	add.w	r1, r1, r0, lsl #16
 8004bca:	429d      	cmp	r5, r3
 8004bcc:	ea4f 4710 	mov.w	r7, r0, lsr #16
 8004bd0:	f84e 1b04 	str.w	r1, [lr], #4
 8004bd4:	dcec      	bgt.n	8004bb0 <__multadd+0x12>
 8004bd6:	b1d7      	cbz	r7, 8004c0e <__multadd+0x70>
 8004bd8:	68a3      	ldr	r3, [r4, #8]
 8004bda:	429d      	cmp	r5, r3
 8004bdc:	db12      	blt.n	8004c04 <__multadd+0x66>
 8004bde:	6861      	ldr	r1, [r4, #4]
 8004be0:	4630      	mov	r0, r6
 8004be2:	3101      	adds	r1, #1
 8004be4:	f7ff ff90 	bl	8004b08 <_Balloc>
 8004be8:	6922      	ldr	r2, [r4, #16]
 8004bea:	3202      	adds	r2, #2
 8004bec:	f104 010c 	add.w	r1, r4, #12
 8004bf0:	4680      	mov	r8, r0
 8004bf2:	0092      	lsls	r2, r2, #2
 8004bf4:	300c      	adds	r0, #12
 8004bf6:	f7ff ff4d 	bl	8004a94 <memcpy>
 8004bfa:	4621      	mov	r1, r4
 8004bfc:	4630      	mov	r0, r6
 8004bfe:	f7ff ffb7 	bl	8004b70 <_Bfree>
 8004c02:	4644      	mov	r4, r8
 8004c04:	eb04 0385 	add.w	r3, r4, r5, lsl #2
 8004c08:	3501      	adds	r5, #1
 8004c0a:	615f      	str	r7, [r3, #20]
 8004c0c:	6125      	str	r5, [r4, #16]
 8004c0e:	4620      	mov	r0, r4
 8004c10:	e8bd 81f0 	ldmia.w	sp!, {r4, r5, r6, r7, r8, pc}

08004c14 <__hi0bits>:
 8004c14:	0c02      	lsrs	r2, r0, #16
 8004c16:	0412      	lsls	r2, r2, #16
 8004c18:	4603      	mov	r3, r0
 8004c1a:	b9b2      	cbnz	r2, 8004c4a <__hi0bits+0x36>
 8004c1c:	0403      	lsls	r3, r0, #16
 8004c1e:	2010      	movs	r0, #16
 8004c20:	f013 4f7f 	tst.w	r3, #4278190080	; 0xff000000
 8004c24:	bf04      	itt	eq
 8004c26:	021b      	lsleq	r3, r3, #8
 8004c28:	3008      	addeq	r0, #8
 8004c2a:	f013 4f70 	tst.w	r3, #4026531840	; 0xf0000000
 8004c2e:	bf04      	itt	eq
 8004c30:	011b      	lsleq	r3, r3, #4
 8004c32:	3004      	addeq	r0, #4
 8004c34:	f013 4f40 	tst.w	r3, #3221225472	; 0xc0000000
 8004c38:	bf04      	itt	eq
 8004c3a:	009b      	lsleq	r3, r3, #2
 8004c3c:	3002      	addeq	r0, #2
 8004c3e:	2b00      	cmp	r3, #0
 8004c40:	db06      	blt.n	8004c50 <__hi0bits+0x3c>
 8004c42:	005b      	lsls	r3, r3, #1
 8004c44:	d503      	bpl.n	8004c4e <__hi0bits+0x3a>
 8004c46:	3001      	adds	r0, #1
 8004c48:	4770      	bx	lr
 8004c4a:	2000      	movs	r0, #0
 8004c4c:	e7e8      	b.n	8004c20 <__hi0bits+0xc>
 8004c4e:	2020      	movs	r0, #32
 8004c50:	4770      	bx	lr

08004c52 <__lo0bits>:
 8004c52:	6803      	ldr	r3, [r0, #0]
 8004c54:	f013 0207 	ands.w	r2, r3, #7
 8004c58:	4601      	mov	r1, r0
 8004c5a:	d00b      	beq.n	8004c74 <__lo0bits+0x22>
 8004c5c:	07da      	lsls	r2, r3, #31
 8004c5e:	d423      	bmi.n	8004ca8 <__lo0bits+0x56>
 8004c60:	0798      	lsls	r0, r3, #30
 8004c62:	bf49      	itett	mi
 8004c64:	085b      	lsrmi	r3, r3, #1
 8004c66:	089b      	lsrpl	r3, r3, #2
 8004c68:	2001      	movmi	r0, #1
 8004c6a:	600b      	strmi	r3, [r1, #0]
 8004c6c:	bf5c      	itt	pl
 8004c6e:	600b      	strpl	r3, [r1, #0]
 8004c70:	2002      	movpl	r0, #2
 8004c72:	4770      	bx	lr
 8004c74:	b298      	uxth	r0, r3
 8004c76:	b9a8      	cbnz	r0, 8004ca4 <__lo0bits+0x52>
 8004c78:	0c1b      	lsrs	r3, r3, #16
 8004c7a:	2010      	movs	r0, #16
 8004c7c:	f013 0fff 	tst.w	r3, #255	; 0xff
 8004c80:	bf04      	itt	eq
 8004c82:	0a1b      	lsreq	r3, r3, #8
 8004c84:	3008      	addeq	r0, #8
 8004c86:	071a      	lsls	r2, r3, #28
 8004c88:	bf04      	itt	eq
 8004c8a:	091b      	lsreq	r3, r3, #4
 8004c8c:	3004      	addeq	r0, #4
 8004c8e:	079a      	lsls	r2, r3, #30
 8004c90:	bf04      	itt	eq
 8004c92:	089b      	lsreq	r3, r3, #2
 8004c94:	3002      	addeq	r0, #2
 8004c96:	07da      	lsls	r2, r3, #31
 8004c98:	d402      	bmi.n	8004ca0 <__lo0bits+0x4e>
 8004c9a:	085b      	lsrs	r3, r3, #1
 8004c9c:	d006      	beq.n	8004cac <__lo0bits+0x5a>
 8004c9e:	3001      	adds	r0, #1
 8004ca0:	600b      	str	r3, [r1, #0]
 8004ca2:	4770      	bx	lr
 8004ca4:	4610      	mov	r0, r2
 8004ca6:	e7e9      	b.n	8004c7c <__lo0bits+0x2a>
 8004ca8:	2000      	movs	r0, #0
 8004caa:	4770      	bx	lr
 8004cac:	2020      	movs	r0, #32
 8004cae:	4770      	bx	lr

08004cb0 <__i2b>:
 8004cb0:	b510      	push	{r4, lr}
 8004cb2:	460c      	mov	r4, r1
 8004cb4:	2101      	movs	r1, #1
 8004cb6:	f7ff ff27 	bl	8004b08 <_Balloc>
 8004cba:	2201      	movs	r2, #1
 8004cbc:	6144      	str	r4, [r0, #20]
 8004cbe:	6102      	str	r2, [r0, #16]
 8004cc0:	bd10      	pop	{r4, pc}

08004cc2 <__multiply>:
 8004cc2:	e92d 4ff7 	stmdb	sp!, {r0, r1, r2, r4, r5, r6, r7, r8, r9, sl, fp, lr}
 8004cc6:	4614      	mov	r4, r2
 8004cc8:	690a      	ldr	r2, [r1, #16]
 8004cca:	6923      	ldr	r3, [r4, #16]
 8004ccc:	429a      	cmp	r2, r3
 8004cce:	bfb8      	it	lt
 8004cd0:	460b      	movlt	r3, r1
 8004cd2:	4689      	mov	r9, r1
 8004cd4:	bfbc      	itt	lt
 8004cd6:	46a1      	movlt	r9, r4
 8004cd8:	461c      	movlt	r4, r3
 8004cda:	f8d9 7010 	ldr.w	r7, [r9, #16]
 8004cde:	f8d4 a010 	ldr.w	sl, [r4, #16]
 8004ce2:	f8d9 3008 	ldr.w	r3, [r9, #8]
 8004ce6:	f8d9 1004 	ldr.w	r1, [r9, #4]
 8004cea:	eb07 060a 	add.w	r6, r7, sl
 8004cee:	429e      	cmp	r6, r3
 8004cf0:	bfc8      	it	gt
 8004cf2:	3101      	addgt	r1, #1
 8004cf4:	f7ff ff08 	bl	8004b08 <_Balloc>
 8004cf8:	f100 0514 	add.w	r5, r0, #20
 8004cfc:	eb05 0886 	add.w	r8, r5, r6, lsl #2
 8004d00:	462b      	mov	r3, r5
 8004d02:	2200      	movs	r2, #0
 8004d04:	4543      	cmp	r3, r8
 8004d06:	d316      	bcc.n	8004d36 <__multiply+0x74>
 8004d08:	f104 0214 	add.w	r2, r4, #20
 8004d0c:	f109 0114 	add.w	r1, r9, #20
 8004d10:	eb02 038a 	add.w	r3, r2, sl, lsl #2
 8004d14:	eb01 0787 	add.w	r7, r1, r7, lsl #2
 8004d18:	9301      	str	r3, [sp, #4]
 8004d1a:	9c01      	ldr	r4, [sp, #4]
 8004d1c:	4294      	cmp	r4, r2
 8004d1e:	4613      	mov	r3, r2
 8004d20:	d80c      	bhi.n	8004d3c <__multiply+0x7a>
 8004d22:	2e00      	cmp	r6, #0
 8004d24:	dd03      	ble.n	8004d2e <__multiply+0x6c>
 8004d26:	f858 3d04 	ldr.w	r3, [r8, #-4]!
 8004d2a:	2b00      	cmp	r3, #0
 8004d2c:	d054      	beq.n	8004dd8 <__multiply+0x116>
 8004d2e:	6106      	str	r6, [r0, #16]
 8004d30:	b003      	add	sp, #12
 8004d32:	e8bd 8ff0 	ldmia.w	sp!, {r4, r5, r6, r7, r8, r9, sl, fp, pc}
 8004d36:	f843 2b04 	str.w	r2, [r3], #4
 8004d3a:	e7e3      	b.n	8004d04 <__multiply+0x42>
 8004d3c:	f8b3 a000 	ldrh.w	sl, [r3]
 8004d40:	3204      	adds	r2, #4
 8004d42:	f1ba 0f00 	cmp.w	sl, #0
 8004d46:	d020      	beq.n	8004d8a <__multiply+0xc8>
 8004d48:	46ae      	mov	lr, r5
 8004d4a:	4689      	mov	r9, r1
 8004d4c:	f04f 0c00 	mov.w	ip, #0
 8004d50:	f859 4b04 	ldr.w	r4, [r9], #4
 8004d54:	f8be b000 	ldrh.w	fp, [lr]
 8004d58:	b2a3      	uxth	r3, r4
 8004d5a:	fb0a b303 	mla	r3, sl, r3, fp
 8004d5e:	ea4f 4b14 	mov.w	fp, r4, lsr #16
 8004d62:	f8de 4000 	ldr.w	r4, [lr]
 8004d66:	4463      	add	r3, ip
 8004d68:	ea4f 4c14 	mov.w	ip, r4, lsr #16
 8004d6c:	fb0a c40b 	mla	r4, sl, fp, ip
 8004d70:	eb04 4413 	add.w	r4, r4, r3, lsr #16
 8004d74:	b29b      	uxth	r3, r3
 8004d76:	ea43 4304 	orr.w	r3, r3, r4, lsl #16
 8004d7a:	454f      	cmp	r7, r9
 8004d7c:	ea4f 4c14 	mov.w	ip, r4, lsr #16
 8004d80:	f84e 3b04 	str.w	r3, [lr], #4
 8004d84:	d8e4      	bhi.n	8004d50 <__multiply+0x8e>
 8004d86:	f8ce c000 	str.w	ip, [lr]
 8004d8a:	f832 9c02 	ldrh.w	r9, [r2, #-2]
 8004d8e:	f1b9 0f00 	cmp.w	r9, #0
 8004d92:	d01f      	beq.n	8004dd4 <__multiply+0x112>
 8004d94:	682b      	ldr	r3, [r5, #0]
 8004d96:	46ae      	mov	lr, r5
 8004d98:	468c      	mov	ip, r1
 8004d9a:	f04f 0a00 	mov.w	sl, #0
 8004d9e:	f8bc 4000 	ldrh.w	r4, [ip]
 8004da2:	f8be b002 	ldrh.w	fp, [lr, #2]
 8004da6:	fb09 b404 	mla	r4, r9, r4, fp
 8004daa:	44a2      	add	sl, r4
 8004dac:	b29b      	uxth	r3, r3
 8004dae:	ea43 430a 	orr.w	r3, r3, sl, lsl #16
 8004db2:	f84e 3b04 	str.w	r3, [lr], #4
 8004db6:	f85c 3b04 	ldr.w	r3, [ip], #4
 8004dba:	f8be 4000 	ldrh.w	r4, [lr]
 8004dbe:	0c1b      	lsrs	r3, r3, #16
 8004dc0:	fb09 4303 	mla	r3, r9, r3, r4
 8004dc4:	eb03 431a 	add.w	r3, r3, sl, lsr #16
 8004dc8:	4567      	cmp	r7, ip
 8004dca:	ea4f 4a13 	mov.w	sl, r3, lsr #16
 8004dce:	d8e6      	bhi.n	8004d9e <__multiply+0xdc>
 8004dd0:	f8ce 3000 	str.w	r3, [lr]
 8004dd4:	3504      	adds	r5, #4
 8004dd6:	e7a0      	b.n	8004d1a <__multiply+0x58>
 8004dd8:	3e01      	subs	r6, #1
 8004dda:	e7a2      	b.n	8004d22 <__multiply+0x60>

08004ddc <__pow5mult>:
 8004ddc:	e92d 43f8 	stmdb	sp!, {r3, r4, r5, r6, r7, r8, r9, lr}
 8004de0:	4615      	mov	r5, r2
 8004de2:	f012 0203 	ands.w	r2, r2, #3
 8004de6:	4606      	mov	r6, r0
 8004de8:	460f      	mov	r7, r1
 8004dea:	d007      	beq.n	8004dfc <__pow5mult+0x20>
 8004dec:	3a01      	subs	r2, #1
 8004dee:	4c21      	ldr	r4, [pc, #132]	; (8004e74 <__pow5mult+0x98>)
 8004df0:	2300      	movs	r3, #0
 8004df2:	f854 2022 	ldr.w	r2, [r4, r2, lsl #2]
 8004df6:	f7ff fed2 	bl	8004b9e <__multadd>
 8004dfa:	4607      	mov	r7, r0
 8004dfc:	10ad      	asrs	r5, r5, #2
 8004dfe:	d035      	beq.n	8004e6c <__pow5mult+0x90>
 8004e00:	6a74      	ldr	r4, [r6, #36]	; 0x24
 8004e02:	b93c      	cbnz	r4, 8004e14 <__pow5mult+0x38>
 8004e04:	2010      	movs	r0, #16
 8004e06:	f7ff fc2f 	bl	8004668 <malloc>
 8004e0a:	6270      	str	r0, [r6, #36]	; 0x24
 8004e0c:	6044      	str	r4, [r0, #4]
 8004e0e:	6084      	str	r4, [r0, #8]
 8004e10:	6004      	str	r4, [r0, #0]
 8004e12:	60c4      	str	r4, [r0, #12]
 8004e14:	f8d6 8024 	ldr.w	r8, [r6, #36]	; 0x24
 8004e18:	f8d8 4008 	ldr.w	r4, [r8, #8]
 8004e1c:	b94c      	cbnz	r4, 8004e32 <__pow5mult+0x56>
 8004e1e:	f240 2171 	movw	r1, #625	; 0x271
 8004e22:	4630      	mov	r0, r6
 8004e24:	f7ff ff44 	bl	8004cb0 <__i2b>
 8004e28:	2300      	movs	r3, #0
 8004e2a:	f8c8 0008 	str.w	r0, [r8, #8]
 8004e2e:	4604      	mov	r4, r0
 8004e30:	6003      	str	r3, [r0, #0]
 8004e32:	f04f 0800 	mov.w	r8, #0
 8004e36:	07eb      	lsls	r3, r5, #31
 8004e38:	d50a      	bpl.n	8004e50 <__pow5mult+0x74>
 8004e3a:	4639      	mov	r1, r7
 8004e3c:	4622      	mov	r2, r4
 8004e3e:	4630      	mov	r0, r6
 8004e40:	f7ff ff3f 	bl	8004cc2 <__multiply>
 8004e44:	4639      	mov	r1, r7
 8004e46:	4681      	mov	r9, r0
 8004e48:	4630      	mov	r0, r6
 8004e4a:	f7ff fe91 	bl	8004b70 <_Bfree>
 8004e4e:	464f      	mov	r7, r9
 8004e50:	106d      	asrs	r5, r5, #1
 8004e52:	d00b      	beq.n	8004e6c <__pow5mult+0x90>
 8004e54:	6820      	ldr	r0, [r4, #0]
 8004e56:	b938      	cbnz	r0, 8004e68 <__pow5mult+0x8c>
 8004e58:	4622      	mov	r2, r4
 8004e5a:	4621      	mov	r1, r4
 8004e5c:	4630      	mov	r0, r6
 8004e5e:	f7ff ff30 	bl	8004cc2 <__multiply>
 8004e62:	6020      	str	r0, [r4, #0]
 8004e64:	f8c0 8000 	str.w	r8, [r0]
 8004e68:	4604      	mov	r4, r0
 8004e6a:	e7e4      	b.n	8004e36 <__pow5mult+0x5a>
 8004e6c:	4638      	mov	r0, r7
 8004e6e:	e8bd 83f8 	ldmia.w	sp!, {r3, r4, r5, r6, r7, r8, r9, pc}
 8004e72:	bf00      	nop
 8004e74:	08005af8 	.word	0x08005af8

08004e78 <__lshift>:
 8004e78:	e92d 47f0 	stmdb	sp!, {r4, r5, r6, r7, r8, r9, sl, lr}
 8004e7c:	460c      	mov	r4, r1
 8004e7e:	ea4f 1a62 	mov.w	sl, r2, asr #5
 8004e82:	6923      	ldr	r3, [r4, #16]
 8004e84:	6849      	ldr	r1, [r1, #4]
 8004e86:	eb0a 0903 	add.w	r9, sl, r3
 8004e8a:	68a3      	ldr	r3, [r4, #8]
 8004e8c:	4607      	mov	r7, r0
 8004e8e:	4616      	mov	r6, r2
 8004e90:	f109 0501 	add.w	r5, r9, #1
 8004e94:	42ab      	cmp	r3, r5
 8004e96:	db31      	blt.n	8004efc <__lshift+0x84>
 8004e98:	4638      	mov	r0, r7
 8004e9a:	f7ff fe35 	bl	8004b08 <_Balloc>
 8004e9e:	2200      	movs	r2, #0
 8004ea0:	4680      	mov	r8, r0
 8004ea2:	f100 0314 	add.w	r3, r0, #20
 8004ea6:	4611      	mov	r1, r2
 8004ea8:	4552      	cmp	r2, sl
 8004eaa:	db2a      	blt.n	8004f02 <__lshift+0x8a>
 8004eac:	6920      	ldr	r0, [r4, #16]
 8004eae:	ea2a 7aea 	bic.w	sl, sl, sl, asr #31
 8004eb2:	f104 0114 	add.w	r1, r4, #20
 8004eb6:	f016 021f 	ands.w	r2, r6, #31
 8004eba:	eb03 038a 	add.w	r3, r3, sl, lsl #2
 8004ebe:	eb01 0e80 	add.w	lr, r1, r0, lsl #2
 8004ec2:	d022      	beq.n	8004f0a <__lshift+0x92>
 8004ec4:	f1c2 0c20 	rsb	ip, r2, #32
 8004ec8:	2000      	movs	r0, #0
 8004eca:	680e      	ldr	r6, [r1, #0]
 8004ecc:	4096      	lsls	r6, r2
 8004ece:	4330      	orrs	r0, r6
 8004ed0:	f843 0b04 	str.w	r0, [r3], #4
 8004ed4:	f851 0b04 	ldr.w	r0, [r1], #4
 8004ed8:	458e      	cmp	lr, r1
 8004eda:	fa20 f00c 	lsr.w	r0, r0, ip
 8004ede:	d8f4      	bhi.n	8004eca <__lshift+0x52>
 8004ee0:	6018      	str	r0, [r3, #0]
 8004ee2:	b108      	cbz	r0, 8004ee8 <__lshift+0x70>
 8004ee4:	f109 0502 	add.w	r5, r9, #2
 8004ee8:	3d01      	subs	r5, #1
 8004eea:	4638      	mov	r0, r7
 8004eec:	f8c8 5010 	str.w	r5, [r8, #16]
 8004ef0:	4621      	mov	r1, r4
 8004ef2:	f7ff fe3d 	bl	8004b70 <_Bfree>
 8004ef6:	4640      	mov	r0, r8
 8004ef8:	e8bd 87f0 	ldmia.w	sp!, {r4, r5, r6, r7, r8, r9, sl, pc}
 8004efc:	3101      	adds	r1, #1
 8004efe:	005b      	lsls	r3, r3, #1
 8004f00:	e7c8      	b.n	8004e94 <__lshift+0x1c>
 8004f02:	f843 1022 	str.w	r1, [r3, r2, lsl #2]
 8004f06:	3201      	adds	r2, #1
 8004f08:	e7ce      	b.n	8004ea8 <__lshift+0x30>
 8004f0a:	3b04      	subs	r3, #4
 8004f0c:	f851 2b04 	ldr.w	r2, [r1], #4
 8004f10:	f843 2f04 	str.w	r2, [r3, #4]!
 8004f14:	458e      	cmp	lr, r1
 8004f16:	d8f9      	bhi.n	8004f0c <__lshift+0x94>
 8004f18:	e7e6      	b.n	8004ee8 <__lshift+0x70>

08004f1a <__mcmp>:
 8004f1a:	6903      	ldr	r3, [r0, #16]
 8004f1c:	690a      	ldr	r2, [r1, #16]
 8004f1e:	1a9b      	subs	r3, r3, r2
 8004f20:	b530      	push	{r4, r5, lr}
 8004f22:	d10c      	bne.n	8004f3e <__mcmp+0x24>
 8004f24:	0092      	lsls	r2, r2, #2
 8004f26:	3014      	adds	r0, #20
 8004f28:	3114      	adds	r1, #20
 8004f2a:	1884      	adds	r4, r0, r2
 8004f2c:	4411      	add	r1, r2
 8004f2e:	f854 5d04 	ldr.w	r5, [r4, #-4]!
 8004f32:	f851 2d04 	ldr.w	r2, [r1, #-4]!
 8004f36:	4295      	cmp	r5, r2
 8004f38:	d003      	beq.n	8004f42 <__mcmp+0x28>
 8004f3a:	d305      	bcc.n	8004f48 <__mcmp+0x2e>
 8004f3c:	2301      	movs	r3, #1
 8004f3e:	4618      	mov	r0, r3
 8004f40:	bd30      	pop	{r4, r5, pc}
 8004f42:	42a0      	cmp	r0, r4
 8004f44:	d3f3      	bcc.n	8004f2e <__mcmp+0x14>
 8004f46:	e7fa      	b.n	8004f3e <__mcmp+0x24>
 8004f48:	f04f 33ff 	mov.w	r3, #4294967295
 8004f4c:	e7f7      	b.n	8004f3e <__mcmp+0x24>

08004f4e <__mdiff>:
 8004f4e:	e92d 47f0 	stmdb	sp!, {r4, r5, r6, r7, r8, r9, sl, lr}
 8004f52:	460d      	mov	r5, r1
 8004f54:	4607      	mov	r7, r0
 8004f56:	4611      	mov	r1, r2
 8004f58:	4628      	mov	r0, r5
 8004f5a:	4614      	mov	r4, r2
 8004f5c:	f7ff ffdd 	bl	8004f1a <__mcmp>
 8004f60:	1e06      	subs	r6, r0, #0
 8004f62:	d108      	bne.n	8004f76 <__mdiff+0x28>
 8004f64:	4631      	mov	r1, r6
 8004f66:	4638      	mov	r0, r7
 8004f68:	f7ff fdce 	bl	8004b08 <_Balloc>
 8004f6c:	2301      	movs	r3, #1
 8004f6e:	6103      	str	r3, [r0, #16]
 8004f70:	6146      	str	r6, [r0, #20]
 8004f72:	e8bd 87f0 	ldmia.w	sp!, {r4, r5, r6, r7, r8, r9, sl, pc}
 8004f76:	bfa4      	itt	ge
 8004f78:	4623      	movge	r3, r4
 8004f7a:	462c      	movge	r4, r5
 8004f7c:	4638      	mov	r0, r7
 8004f7e:	6861      	ldr	r1, [r4, #4]
 8004f80:	bfa6      	itte	ge
 8004f82:	461d      	movge	r5, r3
 8004f84:	2600      	movge	r6, #0
 8004f86:	2601      	movlt	r6, #1
 8004f88:	f7ff fdbe 	bl	8004b08 <_Balloc>
 8004f8c:	692b      	ldr	r3, [r5, #16]
 8004f8e:	60c6      	str	r6, [r0, #12]
 8004f90:	6926      	ldr	r6, [r4, #16]
 8004f92:	f105 0914 	add.w	r9, r5, #20
 8004f96:	f104 0214 	add.w	r2, r4, #20
 8004f9a:	eb02 0786 	add.w	r7, r2, r6, lsl #2
 8004f9e:	eb09 0883 	add.w	r8, r9, r3, lsl #2
 8004fa2:	f100 0514 	add.w	r5, r0, #20
 8004fa6:	f04f 0c00 	mov.w	ip, #0
 8004faa:	f852 ab04 	ldr.w	sl, [r2], #4
 8004fae:	f859 4b04 	ldr.w	r4, [r9], #4
 8004fb2:	fa1c f18a 	uxtah	r1, ip, sl
 8004fb6:	b2a3      	uxth	r3, r4
 8004fb8:	1ac9      	subs	r1, r1, r3
 8004fba:	0c23      	lsrs	r3, r4, #16
 8004fbc:	ebc3 431a 	rsb	r3, r3, sl, lsr #16
 8004fc0:	eb03 4321 	add.w	r3, r3, r1, asr #16
 8004fc4:	b289      	uxth	r1, r1
 8004fc6:	ea4f 4c23 	mov.w	ip, r3, asr #16
 8004fca:	45c8      	cmp	r8, r9
 8004fcc:	ea41 4303 	orr.w	r3, r1, r3, lsl #16
 8004fd0:	4696      	mov	lr, r2
 8004fd2:	f845 3b04 	str.w	r3, [r5], #4
 8004fd6:	d8e8      	bhi.n	8004faa <__mdiff+0x5c>
 8004fd8:	45be      	cmp	lr, r7
 8004fda:	d305      	bcc.n	8004fe8 <__mdiff+0x9a>
 8004fdc:	f855 3d04 	ldr.w	r3, [r5, #-4]!
 8004fe0:	b18b      	cbz	r3, 8005006 <__mdiff+0xb8>
 8004fe2:	6106      	str	r6, [r0, #16]
 8004fe4:	e8bd 87f0 	ldmia.w	sp!, {r4, r5, r6, r7, r8, r9, sl, pc}
 8004fe8:	f85e 1b04 	ldr.w	r1, [lr], #4
 8004fec:	fa1c f381 	uxtah	r3, ip, r1
 8004ff0:	141a      	asrs	r2, r3, #16
 8004ff2:	eb02 4211 	add.w	r2, r2, r1, lsr #16
 8004ff6:	b29b      	uxth	r3, r3
 8004ff8:	ea43 4302 	orr.w	r3, r3, r2, lsl #16
 8004ffc:	ea4f 4c22 	mov.w	ip, r2, asr #16
 8005000:	f845 3b04 	str.w	r3, [r5], #4
 8005004:	e7e8      	b.n	8004fd8 <__mdiff+0x8a>
 8005006:	3e01      	subs	r6, #1
 8005008:	e7e8      	b.n	8004fdc <__mdiff+0x8e>

0800500a <__d2b>:
 800500a:	e92d 43f7 	stmdb	sp!, {r0, r1, r2, r4, r5, r6, r7, r8, r9, lr}
 800500e:	460e      	mov	r6, r1
 8005010:	2101      	movs	r1, #1
 8005012:	ec59 8b10 	vmov	r8, r9, d0
 8005016:	4615      	mov	r5, r2
 8005018:	f7ff fd76 	bl	8004b08 <_Balloc>
 800501c:	f3c9 540a 	ubfx	r4, r9, #20, #11
 8005020:	4607      	mov	r7, r0
 8005022:	f3c9 0313 	ubfx	r3, r9, #0, #20
 8005026:	bb34      	cbnz	r4, 8005076 <__d2b+0x6c>
 8005028:	9301      	str	r3, [sp, #4]
 800502a:	f1b8 0f00 	cmp.w	r8, #0
 800502e:	d027      	beq.n	8005080 <__d2b+0x76>
 8005030:	a802      	add	r0, sp, #8
 8005032:	f840 8d08 	str.w	r8, [r0, #-8]!
 8005036:	f7ff fe0c 	bl	8004c52 <__lo0bits>
 800503a:	9900      	ldr	r1, [sp, #0]
 800503c:	b1f0      	cbz	r0, 800507c <__d2b+0x72>
 800503e:	9a01      	ldr	r2, [sp, #4]
 8005040:	f1c0 0320 	rsb	r3, r0, #32
 8005044:	fa02 f303 	lsl.w	r3, r2, r3
 8005048:	430b      	orrs	r3, r1
 800504a:	40c2      	lsrs	r2, r0
 800504c:	617b      	str	r3, [r7, #20]
 800504e:	9201      	str	r2, [sp, #4]
 8005050:	9b01      	ldr	r3, [sp, #4]
 8005052:	61bb      	str	r3, [r7, #24]
 8005054:	2b00      	cmp	r3, #0
 8005056:	bf14      	ite	ne
 8005058:	2102      	movne	r1, #2
 800505a:	2101      	moveq	r1, #1
 800505c:	6139      	str	r1, [r7, #16]
 800505e:	b1c4      	cbz	r4, 8005092 <__d2b+0x88>
 8005060:	f2a4 4433 	subw	r4, r4, #1075	; 0x433
 8005064:	4404      	add	r4, r0
 8005066:	6034      	str	r4, [r6, #0]
 8005068:	f1c0 0035 	rsb	r0, r0, #53	; 0x35
 800506c:	6028      	str	r0, [r5, #0]
 800506e:	4638      	mov	r0, r7
 8005070:	b003      	add	sp, #12
 8005072:	e8bd 83f0 	ldmia.w	sp!, {r4, r5, r6, r7, r8, r9, pc}
 8005076:	f443 1380 	orr.w	r3, r3, #1048576	; 0x100000
 800507a:	e7d5      	b.n	8005028 <__d2b+0x1e>
 800507c:	6179      	str	r1, [r7, #20]
 800507e:	e7e7      	b.n	8005050 <__d2b+0x46>
 8005080:	a801      	add	r0, sp, #4
 8005082:	f7ff fde6 	bl	8004c52 <__lo0bits>
 8005086:	9b01      	ldr	r3, [sp, #4]
 8005088:	617b      	str	r3, [r7, #20]
 800508a:	2101      	movs	r1, #1
 800508c:	6139      	str	r1, [r7, #16]
 800508e:	3020      	adds	r0, #32
 8005090:	e7e5      	b.n	800505e <__d2b+0x54>
 8005092:	eb07 0381 	add.w	r3, r7, r1, lsl #2
 8005096:	f2a0 4032 	subw	r0, r0, #1074	; 0x432
 800509a:	6030      	str	r0, [r6, #0]
 800509c:	6918      	ldr	r0, [r3, #16]
 800509e:	f7ff fdb9 	bl	8004c14 <__hi0bits>
 80050a2:	ebc0 1041 	rsb	r0, r0, r1, lsl #5
 80050a6:	e7e1      	b.n	800506c <__d2b+0x62>

080050a8 <_realloc_r>:
 80050a8:	e92d 4ff7 	stmdb	sp!, {r0, r1, r2, r4, r5, r6, r7, r8, r9, sl, fp, lr}
 80050ac:	4682      	mov	sl, r0
 80050ae:	460c      	mov	r4, r1
 80050b0:	b929      	cbnz	r1, 80050be <_realloc_r+0x16>
 80050b2:	4611      	mov	r1, r2
 80050b4:	b003      	add	sp, #12
 80050b6:	e8bd 4ff0 	ldmia.w	sp!, {r4, r5, r6, r7, r8, r9, sl, fp, lr}
 80050ba:	f7ff badd 	b.w	8004678 <_malloc_r>
 80050be:	9201      	str	r2, [sp, #4]
 80050c0:	f7ff fd16 	bl	8004af0 <__malloc_lock>
 80050c4:	9a01      	ldr	r2, [sp, #4]
 80050c6:	f854 5c04 	ldr.w	r5, [r4, #-4]
 80050ca:	f102 080b 	add.w	r8, r2, #11
 80050ce:	f1b8 0f16 	cmp.w	r8, #22
 80050d2:	f1a4 0908 	sub.w	r9, r4, #8
 80050d6:	f025 0603 	bic.w	r6, r5, #3
 80050da:	d90a      	bls.n	80050f2 <_realloc_r+0x4a>
 80050dc:	f038 0807 	bics.w	r8, r8, #7
 80050e0:	d509      	bpl.n	80050f6 <_realloc_r+0x4e>
 80050e2:	230c      	movs	r3, #12
 80050e4:	f8ca 3000 	str.w	r3, [sl]
 80050e8:	2700      	movs	r7, #0
 80050ea:	4638      	mov	r0, r7
 80050ec:	b003      	add	sp, #12
 80050ee:	e8bd 8ff0 	ldmia.w	sp!, {r4, r5, r6, r7, r8, r9, sl, fp, pc}
 80050f2:	f04f 0810 	mov.w	r8, #16
 80050f6:	4590      	cmp	r8, r2
 80050f8:	d3f3      	bcc.n	80050e2 <_realloc_r+0x3a>
 80050fa:	45b0      	cmp	r8, r6
 80050fc:	f340 8145 	ble.w	800538a <_realloc_r+0x2e2>
 8005100:	4ba8      	ldr	r3, [pc, #672]	; (80053a4 <_realloc_r+0x2fc>)
 8005102:	f8d3 e008 	ldr.w	lr, [r3, #8]
 8005106:	eb09 0106 	add.w	r1, r9, r6
 800510a:	4571      	cmp	r1, lr
 800510c:	469b      	mov	fp, r3
 800510e:	684b      	ldr	r3, [r1, #4]
 8005110:	d005      	beq.n	800511e <_realloc_r+0x76>
 8005112:	f023 0001 	bic.w	r0, r3, #1
 8005116:	4408      	add	r0, r1
 8005118:	6840      	ldr	r0, [r0, #4]
 800511a:	07c7      	lsls	r7, r0, #31
 800511c:	d447      	bmi.n	80051ae <_realloc_r+0x106>
 800511e:	f023 0303 	bic.w	r3, r3, #3
 8005122:	4571      	cmp	r1, lr
 8005124:	eb06 0703 	add.w	r7, r6, r3
 8005128:	d119      	bne.n	800515e <_realloc_r+0xb6>
 800512a:	f108 0010 	add.w	r0, r8, #16
 800512e:	4287      	cmp	r7, r0
 8005130:	db3f      	blt.n	80051b2 <_realloc_r+0x10a>
 8005132:	eb09 0308 	add.w	r3, r9, r8
 8005136:	eba7 0708 	sub.w	r7, r7, r8
 800513a:	f047 0701 	orr.w	r7, r7, #1
 800513e:	f8cb 3008 	str.w	r3, [fp, #8]
 8005142:	605f      	str	r7, [r3, #4]
 8005144:	f854 3c04 	ldr.w	r3, [r4, #-4]
 8005148:	f003 0301 	and.w	r3, r3, #1
 800514c:	ea43 0308 	orr.w	r3, r3, r8
 8005150:	f844 3c04 	str.w	r3, [r4, #-4]
 8005154:	4650      	mov	r0, sl
 8005156:	f7ff fcd1 	bl	8004afc <__malloc_unlock>
 800515a:	4627      	mov	r7, r4
 800515c:	e7c5      	b.n	80050ea <_realloc_r+0x42>
 800515e:	45b8      	cmp	r8, r7
 8005160:	dc27      	bgt.n	80051b2 <_realloc_r+0x10a>
 8005162:	68cb      	ldr	r3, [r1, #12]
 8005164:	688a      	ldr	r2, [r1, #8]
 8005166:	60d3      	str	r3, [r2, #12]
 8005168:	609a      	str	r2, [r3, #8]
 800516a:	eba7 0008 	sub.w	r0, r7, r8
 800516e:	280f      	cmp	r0, #15
 8005170:	f8d9 3004 	ldr.w	r3, [r9, #4]
 8005174:	eb09 0207 	add.w	r2, r9, r7
 8005178:	f240 8109 	bls.w	800538e <_realloc_r+0x2e6>
 800517c:	eb09 0108 	add.w	r1, r9, r8
 8005180:	f003 0301 	and.w	r3, r3, #1
 8005184:	ea43 0308 	orr.w	r3, r3, r8
 8005188:	f040 0001 	orr.w	r0, r0, #1
 800518c:	f8c9 3004 	str.w	r3, [r9, #4]
 8005190:	6048      	str	r0, [r1, #4]
 8005192:	6853      	ldr	r3, [r2, #4]
 8005194:	f043 0301 	orr.w	r3, r3, #1
 8005198:	6053      	str	r3, [r2, #4]
 800519a:	3108      	adds	r1, #8
 800519c:	4650      	mov	r0, sl
 800519e:	f7fe ffbd 	bl	800411c <_free_r>
 80051a2:	4650      	mov	r0, sl
 80051a4:	f7ff fcaa 	bl	8004afc <__malloc_unlock>
 80051a8:	f109 0708 	add.w	r7, r9, #8
 80051ac:	e79d      	b.n	80050ea <_realloc_r+0x42>
 80051ae:	2300      	movs	r3, #0
 80051b0:	4619      	mov	r1, r3
 80051b2:	07e8      	lsls	r0, r5, #31
 80051b4:	f100 8084 	bmi.w	80052c0 <_realloc_r+0x218>
 80051b8:	f854 5c08 	ldr.w	r5, [r4, #-8]
 80051bc:	eba9 0505 	sub.w	r5, r9, r5
 80051c0:	6868      	ldr	r0, [r5, #4]
 80051c2:	f020 0003 	bic.w	r0, r0, #3
 80051c6:	4430      	add	r0, r6
 80051c8:	2900      	cmp	r1, #0
 80051ca:	d076      	beq.n	80052ba <_realloc_r+0x212>
 80051cc:	4571      	cmp	r1, lr
 80051ce:	d150      	bne.n	8005272 <_realloc_r+0x1ca>
 80051d0:	4403      	add	r3, r0
 80051d2:	f108 0110 	add.w	r1, r8, #16
 80051d6:	428b      	cmp	r3, r1
 80051d8:	db6f      	blt.n	80052ba <_realloc_r+0x212>
 80051da:	462f      	mov	r7, r5
 80051dc:	68ea      	ldr	r2, [r5, #12]
 80051de:	f857 1f08 	ldr.w	r1, [r7, #8]!
 80051e2:	60ca      	str	r2, [r1, #12]
 80051e4:	6091      	str	r1, [r2, #8]
 80051e6:	1f32      	subs	r2, r6, #4
 80051e8:	2a24      	cmp	r2, #36	; 0x24
 80051ea:	d83b      	bhi.n	8005264 <_realloc_r+0x1bc>
 80051ec:	2a13      	cmp	r2, #19
 80051ee:	d936      	bls.n	800525e <_realloc_r+0x1b6>
 80051f0:	6821      	ldr	r1, [r4, #0]
 80051f2:	60a9      	str	r1, [r5, #8]
 80051f4:	6861      	ldr	r1, [r4, #4]
 80051f6:	60e9      	str	r1, [r5, #12]
 80051f8:	2a1b      	cmp	r2, #27
 80051fa:	d81c      	bhi.n	8005236 <_realloc_r+0x18e>
 80051fc:	f105 0210 	add.w	r2, r5, #16
 8005200:	f104 0108 	add.w	r1, r4, #8
 8005204:	6808      	ldr	r0, [r1, #0]
 8005206:	6010      	str	r0, [r2, #0]
 8005208:	6848      	ldr	r0, [r1, #4]
 800520a:	6050      	str	r0, [r2, #4]
 800520c:	6889      	ldr	r1, [r1, #8]
 800520e:	6091      	str	r1, [r2, #8]
 8005210:	eb05 0208 	add.w	r2, r5, r8
 8005214:	eba3 0308 	sub.w	r3, r3, r8
 8005218:	f043 0301 	orr.w	r3, r3, #1
 800521c:	f8cb 2008 	str.w	r2, [fp, #8]
 8005220:	6053      	str	r3, [r2, #4]
 8005222:	686b      	ldr	r3, [r5, #4]
 8005224:	f003 0301 	and.w	r3, r3, #1
 8005228:	ea43 0308 	orr.w	r3, r3, r8
 800522c:	606b      	str	r3, [r5, #4]
 800522e:	4650      	mov	r0, sl
 8005230:	f7ff fc64 	bl	8004afc <__malloc_unlock>
 8005234:	e759      	b.n	80050ea <_realloc_r+0x42>
 8005236:	68a1      	ldr	r1, [r4, #8]
 8005238:	6129      	str	r1, [r5, #16]
 800523a:	68e1      	ldr	r1, [r4, #12]
 800523c:	6169      	str	r1, [r5, #20]
 800523e:	2a24      	cmp	r2, #36	; 0x24
 8005240:	bf01      	itttt	eq
 8005242:	6922      	ldreq	r2, [r4, #16]
 8005244:	61aa      	streq	r2, [r5, #24]
 8005246:	6960      	ldreq	r0, [r4, #20]
 8005248:	61e8      	streq	r0, [r5, #28]
 800524a:	bf19      	ittee	ne
 800524c:	f105 0218 	addne.w	r2, r5, #24
 8005250:	f104 0110 	addne.w	r1, r4, #16
 8005254:	f105 0220 	addeq.w	r2, r5, #32
 8005258:	f104 0118 	addeq.w	r1, r4, #24
 800525c:	e7d2      	b.n	8005204 <_realloc_r+0x15c>
 800525e:	463a      	mov	r2, r7
 8005260:	4621      	mov	r1, r4
 8005262:	e7cf      	b.n	8005204 <_realloc_r+0x15c>
 8005264:	4621      	mov	r1, r4
 8005266:	4638      	mov	r0, r7
 8005268:	9301      	str	r3, [sp, #4]
 800526a:	f7ff fc1e 	bl	8004aaa <memmove>
 800526e:	9b01      	ldr	r3, [sp, #4]
 8005270:	e7ce      	b.n	8005210 <_realloc_r+0x168>
 8005272:	18c7      	adds	r7, r0, r3
 8005274:	45b8      	cmp	r8, r7
 8005276:	dc20      	bgt.n	80052ba <_realloc_r+0x212>
 8005278:	68cb      	ldr	r3, [r1, #12]
 800527a:	688a      	ldr	r2, [r1, #8]
 800527c:	60d3      	str	r3, [r2, #12]
 800527e:	609a      	str	r2, [r3, #8]
 8005280:	4628      	mov	r0, r5
 8005282:	68eb      	ldr	r3, [r5, #12]
 8005284:	f850 2f08 	ldr.w	r2, [r0, #8]!
 8005288:	60d3      	str	r3, [r2, #12]
 800528a:	609a      	str	r2, [r3, #8]
 800528c:	1f32      	subs	r2, r6, #4
 800528e:	2a24      	cmp	r2, #36	; 0x24
 8005290:	d842      	bhi.n	8005318 <_realloc_r+0x270>
 8005292:	2a13      	cmp	r2, #19
 8005294:	d93e      	bls.n	8005314 <_realloc_r+0x26c>
 8005296:	6823      	ldr	r3, [r4, #0]
 8005298:	60ab      	str	r3, [r5, #8]
 800529a:	6863      	ldr	r3, [r4, #4]
 800529c:	60eb      	str	r3, [r5, #12]
 800529e:	2a1b      	cmp	r2, #27
 80052a0:	d824      	bhi.n	80052ec <_realloc_r+0x244>
 80052a2:	f105 0010 	add.w	r0, r5, #16
 80052a6:	f104 0308 	add.w	r3, r4, #8
 80052aa:	681a      	ldr	r2, [r3, #0]
 80052ac:	6002      	str	r2, [r0, #0]
 80052ae:	685a      	ldr	r2, [r3, #4]
 80052b0:	6042      	str	r2, [r0, #4]
 80052b2:	689b      	ldr	r3, [r3, #8]
 80052b4:	6083      	str	r3, [r0, #8]
 80052b6:	46a9      	mov	r9, r5
 80052b8:	e757      	b.n	800516a <_realloc_r+0xc2>
 80052ba:	4580      	cmp	r8, r0
 80052bc:	4607      	mov	r7, r0
 80052be:	dddf      	ble.n	8005280 <_realloc_r+0x1d8>
 80052c0:	4611      	mov	r1, r2
 80052c2:	4650      	mov	r0, sl
 80052c4:	f7ff f9d8 	bl	8004678 <_malloc_r>
 80052c8:	4607      	mov	r7, r0
 80052ca:	2800      	cmp	r0, #0
 80052cc:	d0af      	beq.n	800522e <_realloc_r+0x186>
 80052ce:	f854 3c04 	ldr.w	r3, [r4, #-4]
 80052d2:	f023 0301 	bic.w	r3, r3, #1
 80052d6:	f1a0 0208 	sub.w	r2, r0, #8
 80052da:	444b      	add	r3, r9
 80052dc:	429a      	cmp	r2, r3
 80052de:	d11f      	bne.n	8005320 <_realloc_r+0x278>
 80052e0:	f850 7c04 	ldr.w	r7, [r0, #-4]
 80052e4:	f027 0703 	bic.w	r7, r7, #3
 80052e8:	4437      	add	r7, r6
 80052ea:	e73e      	b.n	800516a <_realloc_r+0xc2>
 80052ec:	68a3      	ldr	r3, [r4, #8]
 80052ee:	612b      	str	r3, [r5, #16]
 80052f0:	68e3      	ldr	r3, [r4, #12]
 80052f2:	616b      	str	r3, [r5, #20]
 80052f4:	2a24      	cmp	r2, #36	; 0x24
 80052f6:	bf01      	itttt	eq
 80052f8:	6923      	ldreq	r3, [r4, #16]
 80052fa:	61ab      	streq	r3, [r5, #24]
 80052fc:	6962      	ldreq	r2, [r4, #20]
 80052fe:	61ea      	streq	r2, [r5, #28]
 8005300:	bf19      	ittee	ne
 8005302:	f105 0018 	addne.w	r0, r5, #24
 8005306:	f104 0310 	addne.w	r3, r4, #16
 800530a:	f105 0020 	addeq.w	r0, r5, #32
 800530e:	f104 0318 	addeq.w	r3, r4, #24
 8005312:	e7ca      	b.n	80052aa <_realloc_r+0x202>
 8005314:	4623      	mov	r3, r4
 8005316:	e7c8      	b.n	80052aa <_realloc_r+0x202>
 8005318:	4621      	mov	r1, r4
 800531a:	f7ff fbc6 	bl	8004aaa <memmove>
 800531e:	e7ca      	b.n	80052b6 <_realloc_r+0x20e>
 8005320:	1f32      	subs	r2, r6, #4
 8005322:	2a24      	cmp	r2, #36	; 0x24
 8005324:	d82d      	bhi.n	8005382 <_realloc_r+0x2da>
 8005326:	2a13      	cmp	r2, #19
 8005328:	d928      	bls.n	800537c <_realloc_r+0x2d4>
 800532a:	6823      	ldr	r3, [r4, #0]
 800532c:	6003      	str	r3, [r0, #0]
 800532e:	6863      	ldr	r3, [r4, #4]
 8005330:	6043      	str	r3, [r0, #4]
 8005332:	2a1b      	cmp	r2, #27
 8005334:	d80e      	bhi.n	8005354 <_realloc_r+0x2ac>
 8005336:	f100 0308 	add.w	r3, r0, #8
 800533a:	f104 0208 	add.w	r2, r4, #8
 800533e:	6811      	ldr	r1, [r2, #0]
 8005340:	6019      	str	r1, [r3, #0]
 8005342:	6851      	ldr	r1, [r2, #4]
 8005344:	6059      	str	r1, [r3, #4]
 8005346:	6892      	ldr	r2, [r2, #8]
 8005348:	609a      	str	r2, [r3, #8]
 800534a:	4621      	mov	r1, r4
 800534c:	4650      	mov	r0, sl
 800534e:	f7fe fee5 	bl	800411c <_free_r>
 8005352:	e76c      	b.n	800522e <_realloc_r+0x186>
 8005354:	68a3      	ldr	r3, [r4, #8]
 8005356:	6083      	str	r3, [r0, #8]
 8005358:	68e3      	ldr	r3, [r4, #12]
 800535a:	60c3      	str	r3, [r0, #12]
 800535c:	2a24      	cmp	r2, #36	; 0x24
 800535e:	bf01      	itttt	eq
 8005360:	6923      	ldreq	r3, [r4, #16]
 8005362:	6103      	streq	r3, [r0, #16]
 8005364:	6961      	ldreq	r1, [r4, #20]
 8005366:	6141      	streq	r1, [r0, #20]
 8005368:	bf19      	ittee	ne
 800536a:	f100 0310 	addne.w	r3, r0, #16
 800536e:	f104 0210 	addne.w	r2, r4, #16
 8005372:	f100 0318 	addeq.w	r3, r0, #24
 8005376:	f104 0218 	addeq.w	r2, r4, #24
 800537a:	e7e0      	b.n	800533e <_realloc_r+0x296>
 800537c:	4603      	mov	r3, r0
 800537e:	4622      	mov	r2, r4
 8005380:	e7dd      	b.n	800533e <_realloc_r+0x296>
 8005382:	4621      	mov	r1, r4
 8005384:	f7ff fb91 	bl	8004aaa <memmove>
 8005388:	e7df      	b.n	800534a <_realloc_r+0x2a2>
 800538a:	4637      	mov	r7, r6
 800538c:	e6ed      	b.n	800516a <_realloc_r+0xc2>
 800538e:	f003 0301 	and.w	r3, r3, #1
 8005392:	431f      	orrs	r7, r3
 8005394:	f8c9 7004 	str.w	r7, [r9, #4]
 8005398:	6853      	ldr	r3, [r2, #4]
 800539a:	f043 0301 	orr.w	r3, r3, #1
 800539e:	6053      	str	r3, [r2, #4]
 80053a0:	e6ff      	b.n	80051a2 <_realloc_r+0xfa>
 80053a2:	bf00      	nop
 80053a4:	200000f8 	.word	0x200000f8

080053a8 <_sbrk_r>:
 80053a8:	b538      	push	{r3, r4, r5, lr}
 80053aa:	4c06      	ldr	r4, [pc, #24]	; (80053c4 <_sbrk_r+0x1c>)
 80053ac:	2300      	movs	r3, #0
 80053ae:	4605      	mov	r5, r0
 80053b0:	4608      	mov	r0, r1
 80053b2:	6023      	str	r3, [r4, #0]
 80053b4:	f7fc fab0 	bl	8001918 <_sbrk>
 80053b8:	1c43      	adds	r3, r0, #1
 80053ba:	d102      	bne.n	80053c2 <_sbrk_r+0x1a>
 80053bc:	6823      	ldr	r3, [r4, #0]
 80053be:	b103      	cbz	r3, 80053c2 <_sbrk_r+0x1a>
 80053c0:	602b      	str	r3, [r5, #0]
 80053c2:	bd38      	pop	{r3, r4, r5, pc}
 80053c4:	200006cc 	.word	0x200006cc

080053c8 <__sread>:
 80053c8:	b510      	push	{r4, lr}
 80053ca:	460c      	mov	r4, r1
 80053cc:	f9b1 100e 	ldrsh.w	r1, [r1, #14]
 80053d0:	f000 f9ec 	bl	80057ac <_read_r>
 80053d4:	2800      	cmp	r0, #0
 80053d6:	bfab      	itete	ge
 80053d8:	6d63      	ldrge	r3, [r4, #84]	; 0x54
 80053da:	89a3      	ldrhlt	r3, [r4, #12]
 80053dc:	181b      	addge	r3, r3, r0
 80053de:	f423 5380 	biclt.w	r3, r3, #4096	; 0x1000
 80053e2:	bfac      	ite	ge
 80053e4:	6563      	strge	r3, [r4, #84]	; 0x54
 80053e6:	81a3      	strhlt	r3, [r4, #12]
 80053e8:	bd10      	pop	{r4, pc}

080053ea <__swrite>:
 80053ea:	e92d 41f0 	stmdb	sp!, {r4, r5, r6, r7, r8, lr}
 80053ee:	461f      	mov	r7, r3
 80053f0:	898b      	ldrh	r3, [r1, #12]
 80053f2:	05db      	lsls	r3, r3, #23
 80053f4:	4605      	mov	r5, r0
 80053f6:	460c      	mov	r4, r1
 80053f8:	4616      	mov	r6, r2
 80053fa:	d505      	bpl.n	8005408 <__swrite+0x1e>
 80053fc:	2302      	movs	r3, #2
 80053fe:	2200      	movs	r2, #0
 8005400:	f9b1 100e 	ldrsh.w	r1, [r1, #14]
 8005404:	f000 f9ae 	bl	8005764 <_lseek_r>
 8005408:	89a3      	ldrh	r3, [r4, #12]
 800540a:	f9b4 100e 	ldrsh.w	r1, [r4, #14]
 800540e:	f423 5380 	bic.w	r3, r3, #4096	; 0x1000
 8005412:	81a3      	strh	r3, [r4, #12]
 8005414:	4632      	mov	r2, r6
 8005416:	463b      	mov	r3, r7
 8005418:	4628      	mov	r0, r5
 800541a:	e8bd 41f0 	ldmia.w	sp!, {r4, r5, r6, r7, r8, lr}
 800541e:	f000 b84b 	b.w	80054b8 <_write_r>

08005422 <__sseek>:
 8005422:	b510      	push	{r4, lr}
 8005424:	460c      	mov	r4, r1
 8005426:	f9b1 100e 	ldrsh.w	r1, [r1, #14]
 800542a:	f000 f99b 	bl	8005764 <_lseek_r>
 800542e:	1c43      	adds	r3, r0, #1
 8005430:	89a3      	ldrh	r3, [r4, #12]
 8005432:	bf15      	itete	ne
 8005434:	6560      	strne	r0, [r4, #84]	; 0x54
 8005436:	f423 5380 	biceq.w	r3, r3, #4096	; 0x1000
 800543a:	f443 5380 	orrne.w	r3, r3, #4096	; 0x1000
 800543e:	81a3      	strheq	r3, [r4, #12]
 8005440:	bf18      	it	ne
 8005442:	81a3      	strhne	r3, [r4, #12]
 8005444:	bd10      	pop	{r4, pc}

08005446 <__sclose>:
 8005446:	f9b1 100e 	ldrsh.w	r1, [r1, #14]
 800544a:	f000 b875 	b.w	8005538 <_close_r>

0800544e <__sprint_r>:
 800544e:	e92d 4ff8 	stmdb	sp!, {r3, r4, r5, r6, r7, r8, r9, sl, fp, lr}
 8005452:	6893      	ldr	r3, [r2, #8]
 8005454:	4680      	mov	r8, r0
 8005456:	460f      	mov	r7, r1
 8005458:	4614      	mov	r4, r2
 800545a:	b91b      	cbnz	r3, 8005464 <__sprint_r+0x16>
 800545c:	6053      	str	r3, [r2, #4]
 800545e:	4618      	mov	r0, r3
 8005460:	e8bd 8ff8 	ldmia.w	sp!, {r3, r4, r5, r6, r7, r8, r9, sl, fp, pc}
 8005464:	6e4b      	ldr	r3, [r1, #100]	; 0x64
 8005466:	049d      	lsls	r5, r3, #18
 8005468:	d523      	bpl.n	80054b2 <__sprint_r+0x64>
 800546a:	6815      	ldr	r5, [r2, #0]
 800546c:	68a0      	ldr	r0, [r4, #8]
 800546e:	3508      	adds	r5, #8
 8005470:	b920      	cbnz	r0, 800547c <__sprint_r+0x2e>
 8005472:	2300      	movs	r3, #0
 8005474:	60a3      	str	r3, [r4, #8]
 8005476:	6063      	str	r3, [r4, #4]
 8005478:	e8bd 8ff8 	ldmia.w	sp!, {r3, r4, r5, r6, r7, r8, r9, sl, fp, pc}
 800547c:	f855 6c04 	ldr.w	r6, [r5, #-4]
 8005480:	f855 bc08 	ldr.w	fp, [r5, #-8]
 8005484:	ea4f 0a96 	mov.w	sl, r6, lsr #2
 8005488:	f04f 0900 	mov.w	r9, #0
 800548c:	45ca      	cmp	sl, r9
 800548e:	dc05      	bgt.n	800549c <__sprint_r+0x4e>
 8005490:	68a3      	ldr	r3, [r4, #8]
 8005492:	f026 0603 	bic.w	r6, r6, #3
 8005496:	1b9e      	subs	r6, r3, r6
 8005498:	60a6      	str	r6, [r4, #8]
 800549a:	e7e7      	b.n	800546c <__sprint_r+0x1e>
 800549c:	463a      	mov	r2, r7
 800549e:	f85b 1029 	ldr.w	r1, [fp, r9, lsl #2]
 80054a2:	4640      	mov	r0, r8
 80054a4:	f000 f905 	bl	80056b2 <_fputwc_r>
 80054a8:	1c43      	adds	r3, r0, #1
 80054aa:	d0e2      	beq.n	8005472 <__sprint_r+0x24>
 80054ac:	f109 0901 	add.w	r9, r9, #1
 80054b0:	e7ec      	b.n	800548c <__sprint_r+0x3e>
 80054b2:	f7fe feef 	bl	8004294 <__sfvwrite_r>
 80054b6:	e7dc      	b.n	8005472 <__sprint_r+0x24>

080054b8 <_write_r>:
 80054b8:	b538      	push	{r3, r4, r5, lr}
 80054ba:	4c07      	ldr	r4, [pc, #28]	; (80054d8 <_write_r+0x20>)
 80054bc:	4605      	mov	r5, r0
 80054be:	4608      	mov	r0, r1
 80054c0:	4611      	mov	r1, r2
 80054c2:	2200      	movs	r2, #0
 80054c4:	6022      	str	r2, [r4, #0]
 80054c6:	461a      	mov	r2, r3
 80054c8:	f7fc fa8e 	bl	80019e8 <_write>
 80054cc:	1c43      	adds	r3, r0, #1
 80054ce:	d102      	bne.n	80054d6 <_write_r+0x1e>
 80054d0:	6823      	ldr	r3, [r4, #0]
 80054d2:	b103      	cbz	r3, 80054d6 <_write_r+0x1e>
 80054d4:	602b      	str	r3, [r5, #0]
 80054d6:	bd38      	pop	{r3, r4, r5, pc}
 80054d8:	200006cc 	.word	0x200006cc

080054dc <_calloc_r>:
 80054dc:	b510      	push	{r4, lr}
 80054de:	4351      	muls	r1, r2
 80054e0:	f7ff f8ca 	bl	8004678 <_malloc_r>
 80054e4:	4604      	mov	r4, r0
 80054e6:	b198      	cbz	r0, 8005510 <_calloc_r+0x34>
 80054e8:	f850 2c04 	ldr.w	r2, [r0, #-4]
 80054ec:	f022 0203 	bic.w	r2, r2, #3
 80054f0:	3a04      	subs	r2, #4
 80054f2:	2a24      	cmp	r2, #36	; 0x24
 80054f4:	d81b      	bhi.n	800552e <_calloc_r+0x52>
 80054f6:	2a13      	cmp	r2, #19
 80054f8:	d917      	bls.n	800552a <_calloc_r+0x4e>
 80054fa:	2100      	movs	r1, #0
 80054fc:	2a1b      	cmp	r2, #27
 80054fe:	6001      	str	r1, [r0, #0]
 8005500:	6041      	str	r1, [r0, #4]
 8005502:	d807      	bhi.n	8005514 <_calloc_r+0x38>
 8005504:	f100 0308 	add.w	r3, r0, #8
 8005508:	2200      	movs	r2, #0
 800550a:	601a      	str	r2, [r3, #0]
 800550c:	605a      	str	r2, [r3, #4]
 800550e:	609a      	str	r2, [r3, #8]
 8005510:	4620      	mov	r0, r4
 8005512:	bd10      	pop	{r4, pc}
 8005514:	2a24      	cmp	r2, #36	; 0x24
 8005516:	6081      	str	r1, [r0, #8]
 8005518:	60c1      	str	r1, [r0, #12]
 800551a:	bf11      	iteee	ne
 800551c:	f100 0310 	addne.w	r3, r0, #16
 8005520:	6101      	streq	r1, [r0, #16]
 8005522:	f100 0318 	addeq.w	r3, r0, #24
 8005526:	6141      	streq	r1, [r0, #20]
 8005528:	e7ee      	b.n	8005508 <_calloc_r+0x2c>
 800552a:	4603      	mov	r3, r0
 800552c:	e7ec      	b.n	8005508 <_calloc_r+0x2c>
 800552e:	2100      	movs	r1, #0
 8005530:	f7ff fad5 	bl	8004ade <memset>
 8005534:	e7ec      	b.n	8005510 <_calloc_r+0x34>
	...

08005538 <_close_r>:
 8005538:	b538      	push	{r3, r4, r5, lr}
 800553a:	4c06      	ldr	r4, [pc, #24]	; (8005554 <_close_r+0x1c>)
 800553c:	2300      	movs	r3, #0
 800553e:	4605      	mov	r5, r0
 8005540:	4608      	mov	r0, r1
 8005542:	6023      	str	r3, [r4, #0]
 8005544:	f7fc fa08 	bl	8001958 <_close>
 8005548:	1c43      	adds	r3, r0, #1
 800554a:	d102      	bne.n	8005552 <_close_r+0x1a>
 800554c:	6823      	ldr	r3, [r4, #0]
 800554e:	b103      	cbz	r3, 8005552 <_close_r+0x1a>
 8005550:	602b      	str	r3, [r5, #0]
 8005552:	bd38      	pop	{r3, r4, r5, pc}
 8005554:	200006cc 	.word	0x200006cc

08005558 <_fclose_r>:
 8005558:	b570      	push	{r4, r5, r6, lr}
 800555a:	4605      	mov	r5, r0
 800555c:	460c      	mov	r4, r1
 800555e:	b911      	cbnz	r1, 8005566 <_fclose_r+0xe>
 8005560:	2600      	movs	r6, #0
 8005562:	4630      	mov	r0, r6
 8005564:	bd70      	pop	{r4, r5, r6, pc}
 8005566:	b118      	cbz	r0, 8005570 <_fclose_r+0x18>
 8005568:	6983      	ldr	r3, [r0, #24]
 800556a:	b90b      	cbnz	r3, 8005570 <_fclose_r+0x18>
 800556c:	f7fe fd00 	bl	8003f70 <__sinit>
 8005570:	4b2c      	ldr	r3, [pc, #176]	; (8005624 <_fclose_r+0xcc>)
 8005572:	429c      	cmp	r4, r3
 8005574:	d114      	bne.n	80055a0 <_fclose_r+0x48>
 8005576:	686c      	ldr	r4, [r5, #4]
 8005578:	6e63      	ldr	r3, [r4, #100]	; 0x64
 800557a:	07d8      	lsls	r0, r3, #31
 800557c:	d405      	bmi.n	800558a <_fclose_r+0x32>
 800557e:	89a3      	ldrh	r3, [r4, #12]
 8005580:	0599      	lsls	r1, r3, #22
 8005582:	d402      	bmi.n	800558a <_fclose_r+0x32>
 8005584:	6da0      	ldr	r0, [r4, #88]	; 0x58
 8005586:	f7ff f801 	bl	800458c <__retarget_lock_acquire_recursive>
 800558a:	f9b4 300c 	ldrsh.w	r3, [r4, #12]
 800558e:	b98b      	cbnz	r3, 80055b4 <_fclose_r+0x5c>
 8005590:	6e66      	ldr	r6, [r4, #100]	; 0x64
 8005592:	f016 0601 	ands.w	r6, r6, #1
 8005596:	d1e3      	bne.n	8005560 <_fclose_r+0x8>
 8005598:	6da0      	ldr	r0, [r4, #88]	; 0x58
 800559a:	f7fe fff8 	bl	800458e <__retarget_lock_release_recursive>
 800559e:	e7e0      	b.n	8005562 <_fclose_r+0xa>
 80055a0:	4b21      	ldr	r3, [pc, #132]	; (8005628 <_fclose_r+0xd0>)
 80055a2:	429c      	cmp	r4, r3
 80055a4:	d101      	bne.n	80055aa <_fclose_r+0x52>
 80055a6:	68ac      	ldr	r4, [r5, #8]
 80055a8:	e7e6      	b.n	8005578 <_fclose_r+0x20>
 80055aa:	4b20      	ldr	r3, [pc, #128]	; (800562c <_fclose_r+0xd4>)
 80055ac:	429c      	cmp	r4, r3
 80055ae:	bf08      	it	eq
 80055b0:	68ec      	ldreq	r4, [r5, #12]
 80055b2:	e7e1      	b.n	8005578 <_fclose_r+0x20>
 80055b4:	4621      	mov	r1, r4
 80055b6:	4628      	mov	r0, r5
 80055b8:	f7fe fbb4 	bl	8003d24 <__sflush_r>
 80055bc:	6b23      	ldr	r3, [r4, #48]	; 0x30
 80055be:	4606      	mov	r6, r0
 80055c0:	b133      	cbz	r3, 80055d0 <_fclose_r+0x78>
 80055c2:	6a21      	ldr	r1, [r4, #32]
 80055c4:	4628      	mov	r0, r5
 80055c6:	4798      	blx	r3
 80055c8:	2800      	cmp	r0, #0
 80055ca:	bfb8      	it	lt
 80055cc:	f04f 36ff 	movlt.w	r6, #4294967295
 80055d0:	89a3      	ldrh	r3, [r4, #12]
 80055d2:	061a      	lsls	r2, r3, #24
 80055d4:	d503      	bpl.n	80055de <_fclose_r+0x86>
 80055d6:	6921      	ldr	r1, [r4, #16]
 80055d8:	4628      	mov	r0, r5
 80055da:	f7fe fd9f 	bl	800411c <_free_r>
 80055de:	6b61      	ldr	r1, [r4, #52]	; 0x34
 80055e0:	b141      	cbz	r1, 80055f4 <_fclose_r+0x9c>
 80055e2:	f104 0344 	add.w	r3, r4, #68	; 0x44
 80055e6:	4299      	cmp	r1, r3
 80055e8:	d002      	beq.n	80055f0 <_fclose_r+0x98>
 80055ea:	4628      	mov	r0, r5
 80055ec:	f7fe fd96 	bl	800411c <_free_r>
 80055f0:	2300      	movs	r3, #0
 80055f2:	6363      	str	r3, [r4, #52]	; 0x34
 80055f4:	6ca1      	ldr	r1, [r4, #72]	; 0x48
 80055f6:	b121      	cbz	r1, 8005602 <_fclose_r+0xaa>
 80055f8:	4628      	mov	r0, r5
 80055fa:	f7fe fd8f 	bl	800411c <_free_r>
 80055fe:	2300      	movs	r3, #0
 8005600:	64a3      	str	r3, [r4, #72]	; 0x48
 8005602:	f7fe fc9d 	bl	8003f40 <__sfp_lock_acquire>
 8005606:	2300      	movs	r3, #0
 8005608:	81a3      	strh	r3, [r4, #12]
 800560a:	6e63      	ldr	r3, [r4, #100]	; 0x64
 800560c:	07db      	lsls	r3, r3, #31
 800560e:	d402      	bmi.n	8005616 <_fclose_r+0xbe>
 8005610:	6da0      	ldr	r0, [r4, #88]	; 0x58
 8005612:	f7fe ffbc 	bl	800458e <__retarget_lock_release_recursive>
 8005616:	6da0      	ldr	r0, [r4, #88]	; 0x58
 8005618:	f7fe ffb7 	bl	800458a <__retarget_lock_close_recursive>
 800561c:	f7fe fc96 	bl	8003f4c <__sfp_lock_release>
 8005620:	e79f      	b.n	8005562 <_fclose_r+0xa>
 8005622:	bf00      	nop
 8005624:	080059c4 	.word	0x080059c4
 8005628:	080059e4 	.word	0x080059e4
 800562c:	080059a4 	.word	0x080059a4

08005630 <__fputwc>:
 8005630:	e92d 43f7 	stmdb	sp!, {r0, r1, r2, r4, r5, r6, r7, r8, r9, lr}
 8005634:	4680      	mov	r8, r0
 8005636:	460e      	mov	r6, r1
 8005638:	4614      	mov	r4, r2
 800563a:	f000 f885 	bl	8005748 <__locale_mb_cur_max>
 800563e:	2801      	cmp	r0, #1
 8005640:	d11c      	bne.n	800567c <__fputwc+0x4c>
 8005642:	1e73      	subs	r3, r6, #1
 8005644:	2bfe      	cmp	r3, #254	; 0xfe
 8005646:	d819      	bhi.n	800567c <__fputwc+0x4c>
 8005648:	f88d 6004 	strb.w	r6, [sp, #4]
 800564c:	4605      	mov	r5, r0
 800564e:	2700      	movs	r7, #0
 8005650:	f10d 0904 	add.w	r9, sp, #4
 8005654:	42af      	cmp	r7, r5
 8005656:	d020      	beq.n	800569a <__fputwc+0x6a>
 8005658:	68a3      	ldr	r3, [r4, #8]
 800565a:	f817 1009 	ldrb.w	r1, [r7, r9]
 800565e:	3b01      	subs	r3, #1
 8005660:	2b00      	cmp	r3, #0
 8005662:	60a3      	str	r3, [r4, #8]
 8005664:	da04      	bge.n	8005670 <__fputwc+0x40>
 8005666:	69a2      	ldr	r2, [r4, #24]
 8005668:	4293      	cmp	r3, r2
 800566a:	db1a      	blt.n	80056a2 <__fputwc+0x72>
 800566c:	290a      	cmp	r1, #10
 800566e:	d018      	beq.n	80056a2 <__fputwc+0x72>
 8005670:	6823      	ldr	r3, [r4, #0]
 8005672:	1c5a      	adds	r2, r3, #1
 8005674:	6022      	str	r2, [r4, #0]
 8005676:	7019      	strb	r1, [r3, #0]
 8005678:	3701      	adds	r7, #1
 800567a:	e7eb      	b.n	8005654 <__fputwc+0x24>
 800567c:	4632      	mov	r2, r6
 800567e:	f104 035c 	add.w	r3, r4, #92	; 0x5c
 8005682:	a901      	add	r1, sp, #4
 8005684:	4640      	mov	r0, r8
 8005686:	f000 f901 	bl	800588c <_wcrtomb_r>
 800568a:	1c42      	adds	r2, r0, #1
 800568c:	4605      	mov	r5, r0
 800568e:	d1de      	bne.n	800564e <__fputwc+0x1e>
 8005690:	89a3      	ldrh	r3, [r4, #12]
 8005692:	f043 0340 	orr.w	r3, r3, #64	; 0x40
 8005696:	81a3      	strh	r3, [r4, #12]
 8005698:	4606      	mov	r6, r0
 800569a:	4630      	mov	r0, r6
 800569c:	b003      	add	sp, #12
 800569e:	e8bd 83f0 	ldmia.w	sp!, {r4, r5, r6, r7, r8, r9, pc}
 80056a2:	4622      	mov	r2, r4
 80056a4:	4640      	mov	r0, r8
 80056a6:	f000 f893 	bl	80057d0 <__swbuf_r>
 80056aa:	1c43      	adds	r3, r0, #1
 80056ac:	d1e4      	bne.n	8005678 <__fputwc+0x48>
 80056ae:	4606      	mov	r6, r0
 80056b0:	e7f3      	b.n	800569a <__fputwc+0x6a>

080056b2 <_fputwc_r>:
 80056b2:	6e53      	ldr	r3, [r2, #100]	; 0x64
 80056b4:	07db      	lsls	r3, r3, #31
 80056b6:	b570      	push	{r4, r5, r6, lr}
 80056b8:	4605      	mov	r5, r0
 80056ba:	460e      	mov	r6, r1
 80056bc:	4614      	mov	r4, r2
 80056be:	d405      	bmi.n	80056cc <_fputwc_r+0x1a>
 80056c0:	8993      	ldrh	r3, [r2, #12]
 80056c2:	0598      	lsls	r0, r3, #22
 80056c4:	d402      	bmi.n	80056cc <_fputwc_r+0x1a>
 80056c6:	6d90      	ldr	r0, [r2, #88]	; 0x58
 80056c8:	f7fe ff60 	bl	800458c <__retarget_lock_acquire_recursive>
 80056cc:	f9b4 300c 	ldrsh.w	r3, [r4, #12]
 80056d0:	0499      	lsls	r1, r3, #18
 80056d2:	d406      	bmi.n	80056e2 <_fputwc_r+0x30>
 80056d4:	f443 5300 	orr.w	r3, r3, #8192	; 0x2000
 80056d8:	81a3      	strh	r3, [r4, #12]
 80056da:	6e63      	ldr	r3, [r4, #100]	; 0x64
 80056dc:	f443 5300 	orr.w	r3, r3, #8192	; 0x2000
 80056e0:	6663      	str	r3, [r4, #100]	; 0x64
 80056e2:	4622      	mov	r2, r4
 80056e4:	4628      	mov	r0, r5
 80056e6:	4631      	mov	r1, r6
 80056e8:	f7ff ffa2 	bl	8005630 <__fputwc>
 80056ec:	6e63      	ldr	r3, [r4, #100]	; 0x64
 80056ee:	07da      	lsls	r2, r3, #31
 80056f0:	4605      	mov	r5, r0
 80056f2:	d405      	bmi.n	8005700 <_fputwc_r+0x4e>
 80056f4:	89a3      	ldrh	r3, [r4, #12]
 80056f6:	059b      	lsls	r3, r3, #22
 80056f8:	d402      	bmi.n	8005700 <_fputwc_r+0x4e>
 80056fa:	6da0      	ldr	r0, [r4, #88]	; 0x58
 80056fc:	f7fe ff47 	bl	800458e <__retarget_lock_release_recursive>
 8005700:	4628      	mov	r0, r5
 8005702:	bd70      	pop	{r4, r5, r6, pc}

08005704 <_fstat_r>:
 8005704:	b538      	push	{r3, r4, r5, lr}
 8005706:	4c07      	ldr	r4, [pc, #28]	; (8005724 <_fstat_r+0x20>)
 8005708:	2300      	movs	r3, #0
 800570a:	4605      	mov	r5, r0
 800570c:	4608      	mov	r0, r1
 800570e:	4611      	mov	r1, r2
 8005710:	6023      	str	r3, [r4, #0]
 8005712:	f7fc f933 	bl	800197c <_fstat>
 8005716:	1c43      	adds	r3, r0, #1
 8005718:	d102      	bne.n	8005720 <_fstat_r+0x1c>
 800571a:	6823      	ldr	r3, [r4, #0]
 800571c:	b103      	cbz	r3, 8005720 <_fstat_r+0x1c>
 800571e:	602b      	str	r3, [r5, #0]
 8005720:	bd38      	pop	{r3, r4, r5, pc}
 8005722:	bf00      	nop
 8005724:	200006cc 	.word	0x200006cc

08005728 <_isatty_r>:
 8005728:	b538      	push	{r3, r4, r5, lr}
 800572a:	4c06      	ldr	r4, [pc, #24]	; (8005744 <_isatty_r+0x1c>)
 800572c:	2300      	movs	r3, #0
 800572e:	4605      	mov	r5, r0
 8005730:	4608      	mov	r0, r1
 8005732:	6023      	str	r3, [r4, #0]
 8005734:	f7fc f934 	bl	80019a0 <_isatty>
 8005738:	1c43      	adds	r3, r0, #1
 800573a:	d102      	bne.n	8005742 <_isatty_r+0x1a>
 800573c:	6823      	ldr	r3, [r4, #0]
 800573e:	b103      	cbz	r3, 8005742 <_isatty_r+0x1a>
 8005740:	602b      	str	r3, [r5, #0]
 8005742:	bd38      	pop	{r3, r4, r5, pc}
 8005744:	200006cc 	.word	0x200006cc

08005748 <__locale_mb_cur_max>:
 8005748:	4b04      	ldr	r3, [pc, #16]	; (800575c <__locale_mb_cur_max+0x14>)
 800574a:	4a05      	ldr	r2, [pc, #20]	; (8005760 <__locale_mb_cur_max+0x18>)
 800574c:	681b      	ldr	r3, [r3, #0]
 800574e:	6a1b      	ldr	r3, [r3, #32]
 8005750:	2b00      	cmp	r3, #0
 8005752:	bf08      	it	eq
 8005754:	4613      	moveq	r3, r2
 8005756:	f893 0128 	ldrb.w	r0, [r3, #296]	; 0x128
 800575a:	4770      	bx	lr
 800575c:	20000004 	.word	0x20000004
 8005760:	20000508 	.word	0x20000508

08005764 <_lseek_r>:
 8005764:	b538      	push	{r3, r4, r5, lr}
 8005766:	4c07      	ldr	r4, [pc, #28]	; (8005784 <_lseek_r+0x20>)
 8005768:	4605      	mov	r5, r0
 800576a:	4608      	mov	r0, r1
 800576c:	4611      	mov	r1, r2
 800576e:	2200      	movs	r2, #0
 8005770:	6022      	str	r2, [r4, #0]
 8005772:	461a      	mov	r2, r3
 8005774:	f7fc f924 	bl	80019c0 <_lseek>
 8005778:	1c43      	adds	r3, r0, #1
 800577a:	d102      	bne.n	8005782 <_lseek_r+0x1e>
 800577c:	6823      	ldr	r3, [r4, #0]
 800577e:	b103      	cbz	r3, 8005782 <_lseek_r+0x1e>
 8005780:	602b      	str	r3, [r5, #0]
 8005782:	bd38      	pop	{r3, r4, r5, pc}
 8005784:	200006cc 	.word	0x200006cc

08005788 <__ascii_mbtowc>:
 8005788:	b082      	sub	sp, #8
 800578a:	b901      	cbnz	r1, 800578e <__ascii_mbtowc+0x6>
 800578c:	a901      	add	r1, sp, #4
 800578e:	b142      	cbz	r2, 80057a2 <__ascii_mbtowc+0x1a>
 8005790:	b14b      	cbz	r3, 80057a6 <__ascii_mbtowc+0x1e>
 8005792:	7813      	ldrb	r3, [r2, #0]
 8005794:	600b      	str	r3, [r1, #0]
 8005796:	7812      	ldrb	r2, [r2, #0]
 8005798:	1c10      	adds	r0, r2, #0
 800579a:	bf18      	it	ne
 800579c:	2001      	movne	r0, #1
 800579e:	b002      	add	sp, #8
 80057a0:	4770      	bx	lr
 80057a2:	4610      	mov	r0, r2
 80057a4:	e7fb      	b.n	800579e <__ascii_mbtowc+0x16>
 80057a6:	f06f 0001 	mvn.w	r0, #1
 80057aa:	e7f8      	b.n	800579e <__ascii_mbtowc+0x16>

080057ac <_read_r>:
 80057ac:	b538      	push	{r3, r4, r5, lr}
 80057ae:	4c07      	ldr	r4, [pc, #28]	; (80057cc <_read_r+0x20>)
 80057b0:	4605      	mov	r5, r0
 80057b2:	4608      	mov	r0, r1
 80057b4:	4611      	mov	r1, r2
 80057b6:	2200      	movs	r2, #0
 80057b8:	6022      	str	r2, [r4, #0]
 80057ba:	461a      	mov	r2, r3
 80057bc:	f7fc f936 	bl	8001a2c <_read>
 80057c0:	1c43      	adds	r3, r0, #1
 80057c2:	d102      	bne.n	80057ca <_read_r+0x1e>
 80057c4:	6823      	ldr	r3, [r4, #0]
 80057c6:	b103      	cbz	r3, 80057ca <_read_r+0x1e>
 80057c8:	602b      	str	r3, [r5, #0]
 80057ca:	bd38      	pop	{r3, r4, r5, pc}
 80057cc:	200006cc 	.word	0x200006cc

080057d0 <__swbuf_r>:
 80057d0:	b5f8      	push	{r3, r4, r5, r6, r7, lr}
 80057d2:	460e      	mov	r6, r1
 80057d4:	4614      	mov	r4, r2
 80057d6:	4605      	mov	r5, r0
 80057d8:	b118      	cbz	r0, 80057e2 <__swbuf_r+0x12>
 80057da:	6983      	ldr	r3, [r0, #24]
 80057dc:	b90b      	cbnz	r3, 80057e2 <__swbuf_r+0x12>
 80057de:	f7fe fbc7 	bl	8003f70 <__sinit>
 80057e2:	4b27      	ldr	r3, [pc, #156]	; (8005880 <__swbuf_r+0xb0>)
 80057e4:	429c      	cmp	r4, r3
 80057e6:	d12f      	bne.n	8005848 <__swbuf_r+0x78>
 80057e8:	686c      	ldr	r4, [r5, #4]
 80057ea:	69a3      	ldr	r3, [r4, #24]
 80057ec:	60a3      	str	r3, [r4, #8]
 80057ee:	89a3      	ldrh	r3, [r4, #12]
 80057f0:	0719      	lsls	r1, r3, #28
 80057f2:	d533      	bpl.n	800585c <__swbuf_r+0x8c>
 80057f4:	6923      	ldr	r3, [r4, #16]
 80057f6:	2b00      	cmp	r3, #0
 80057f8:	d030      	beq.n	800585c <__swbuf_r+0x8c>
 80057fa:	f9b4 300c 	ldrsh.w	r3, [r4, #12]
 80057fe:	b2f6      	uxtb	r6, r6
 8005800:	049a      	lsls	r2, r3, #18
 8005802:	4637      	mov	r7, r6
 8005804:	d534      	bpl.n	8005870 <__swbuf_r+0xa0>
 8005806:	6923      	ldr	r3, [r4, #16]
 8005808:	6820      	ldr	r0, [r4, #0]
 800580a:	1ac0      	subs	r0, r0, r3
 800580c:	6963      	ldr	r3, [r4, #20]
 800580e:	4298      	cmp	r0, r3
 8005810:	db04      	blt.n	800581c <__swbuf_r+0x4c>
 8005812:	4621      	mov	r1, r4
 8005814:	4628      	mov	r0, r5
 8005816:	f7fe fb17 	bl	8003e48 <_fflush_r>
 800581a:	bb28      	cbnz	r0, 8005868 <__swbuf_r+0x98>
 800581c:	68a3      	ldr	r3, [r4, #8]
 800581e:	3b01      	subs	r3, #1
 8005820:	60a3      	str	r3, [r4, #8]
 8005822:	6823      	ldr	r3, [r4, #0]
 8005824:	1c5a      	adds	r2, r3, #1
 8005826:	6022      	str	r2, [r4, #0]
 8005828:	701e      	strb	r6, [r3, #0]
 800582a:	6963      	ldr	r3, [r4, #20]
 800582c:	3001      	adds	r0, #1
 800582e:	4298      	cmp	r0, r3
 8005830:	d004      	beq.n	800583c <__swbuf_r+0x6c>
 8005832:	89a3      	ldrh	r3, [r4, #12]
 8005834:	07db      	lsls	r3, r3, #31
 8005836:	d519      	bpl.n	800586c <__swbuf_r+0x9c>
 8005838:	2e0a      	cmp	r6, #10
 800583a:	d117      	bne.n	800586c <__swbuf_r+0x9c>
 800583c:	4621      	mov	r1, r4
 800583e:	4628      	mov	r0, r5
 8005840:	f7fe fb02 	bl	8003e48 <_fflush_r>
 8005844:	b190      	cbz	r0, 800586c <__swbuf_r+0x9c>
 8005846:	e00f      	b.n	8005868 <__swbuf_r+0x98>
 8005848:	4b0e      	ldr	r3, [pc, #56]	; (8005884 <__swbuf_r+0xb4>)
 800584a:	429c      	cmp	r4, r3
 800584c:	d101      	bne.n	8005852 <__swbuf_r+0x82>
 800584e:	68ac      	ldr	r4, [r5, #8]
 8005850:	e7cb      	b.n	80057ea <__swbuf_r+0x1a>
 8005852:	4b0d      	ldr	r3, [pc, #52]	; (8005888 <__swbuf_r+0xb8>)
 8005854:	429c      	cmp	r4, r3
 8005856:	bf08      	it	eq
 8005858:	68ec      	ldreq	r4, [r5, #12]
 800585a:	e7c6      	b.n	80057ea <__swbuf_r+0x1a>
 800585c:	4621      	mov	r1, r4
 800585e:	4628      	mov	r0, r5
 8005860:	f7fd fb96 	bl	8002f90 <__swsetup_r>
 8005864:	2800      	cmp	r0, #0
 8005866:	d0c8      	beq.n	80057fa <__swbuf_r+0x2a>
 8005868:	f04f 37ff 	mov.w	r7, #4294967295
 800586c:	4638      	mov	r0, r7
 800586e:	bdf8      	pop	{r3, r4, r5, r6, r7, pc}
 8005870:	f443 5300 	orr.w	r3, r3, #8192	; 0x2000
 8005874:	81a3      	strh	r3, [r4, #12]
 8005876:	6e63      	ldr	r3, [r4, #100]	; 0x64
 8005878:	f423 5300 	bic.w	r3, r3, #8192	; 0x2000
 800587c:	6663      	str	r3, [r4, #100]	; 0x64
 800587e:	e7c2      	b.n	8005806 <__swbuf_r+0x36>
 8005880:	080059c4 	.word	0x080059c4
 8005884:	080059e4 	.word	0x080059e4
 8005888:	080059a4 	.word	0x080059a4

0800588c <_wcrtomb_r>:
 800588c:	b5f0      	push	{r4, r5, r6, r7, lr}
 800588e:	4605      	mov	r5, r0
 8005890:	b085      	sub	sp, #20
 8005892:	461e      	mov	r6, r3
 8005894:	460f      	mov	r7, r1
 8005896:	4c0f      	ldr	r4, [pc, #60]	; (80058d4 <_wcrtomb_r+0x48>)
 8005898:	b991      	cbnz	r1, 80058c0 <_wcrtomb_r+0x34>
 800589a:	6822      	ldr	r2, [r4, #0]
 800589c:	490e      	ldr	r1, [pc, #56]	; (80058d8 <_wcrtomb_r+0x4c>)
 800589e:	6a12      	ldr	r2, [r2, #32]
 80058a0:	2a00      	cmp	r2, #0
 80058a2:	bf08      	it	eq
 80058a4:	460a      	moveq	r2, r1
 80058a6:	a901      	add	r1, sp, #4
 80058a8:	f8d2 40e0 	ldr.w	r4, [r2, #224]	; 0xe0
 80058ac:	463a      	mov	r2, r7
 80058ae:	47a0      	blx	r4
 80058b0:	1c43      	adds	r3, r0, #1
 80058b2:	bf01      	itttt	eq
 80058b4:	2300      	moveq	r3, #0
 80058b6:	6033      	streq	r3, [r6, #0]
 80058b8:	238a      	moveq	r3, #138	; 0x8a
 80058ba:	602b      	streq	r3, [r5, #0]
 80058bc:	b005      	add	sp, #20
 80058be:	bdf0      	pop	{r4, r5, r6, r7, pc}
 80058c0:	6824      	ldr	r4, [r4, #0]
 80058c2:	4f05      	ldr	r7, [pc, #20]	; (80058d8 <_wcrtomb_r+0x4c>)
 80058c4:	6a24      	ldr	r4, [r4, #32]
 80058c6:	2c00      	cmp	r4, #0
 80058c8:	bf08      	it	eq
 80058ca:	463c      	moveq	r4, r7
 80058cc:	f8d4 40e0 	ldr.w	r4, [r4, #224]	; 0xe0
 80058d0:	e7ed      	b.n	80058ae <_wcrtomb_r+0x22>
 80058d2:	bf00      	nop
 80058d4:	20000004 	.word	0x20000004
 80058d8:	20000508 	.word	0x20000508

080058dc <__ascii_wctomb>:
 80058dc:	b149      	cbz	r1, 80058f2 <__ascii_wctomb+0x16>
 80058de:	2aff      	cmp	r2, #255	; 0xff
 80058e0:	bf85      	ittet	hi
 80058e2:	238a      	movhi	r3, #138	; 0x8a
 80058e4:	6003      	strhi	r3, [r0, #0]
 80058e6:	700a      	strbls	r2, [r1, #0]
 80058e8:	f04f 30ff 	movhi.w	r0, #4294967295
 80058ec:	bf98      	it	ls
 80058ee:	2001      	movls	r0, #1
 80058f0:	4770      	bx	lr
 80058f2:	4608      	mov	r0, r1
 80058f4:	4770      	bx	lr
	...

080058f8 <_init>:
 80058f8:	b5f8      	push	{r3, r4, r5, r6, r7, lr}
 80058fa:	bf00      	nop
 80058fc:	bcf8      	pop	{r3, r4, r5, r6, r7}
 80058fe:	bc08      	pop	{r3}
 8005900:	469e      	mov	lr, r3
 8005902:	4770      	bx	lr

08005904 <_fini>:
 8005904:	b5f8      	push	{r3, r4, r5, r6, r7, lr}
 8005906:	bf00      	nop
 8005908:	bcf8      	pop	{r3, r4, r5, r6, r7}
 800590a:	bc08      	pop	{r3}
 800590c:	469e      	mov	lr, r3
 800590e:	4770      	bx	lr
