
Cviceni8_DychaniLED.elf:     file format elf32-littlearm

Sections:
Idx Name          Size      VMA       LMA       File off  Algn
  0 .isr_vector   00000198  08000000  08000000  00010000  2**0
                  CONTENTS, ALLOC, LOAD, READONLY, DATA
  1 .text         000011e0  08000198  08000198  00010198  2**3
                  CONTENTS, ALLOC, LOAD, READONLY, CODE
  2 .rodata       00000010  08001378  08001378  00011378  2**2
                  CONTENTS, ALLOC, LOAD, READONLY, DATA
  3 .init_array   00000004  08001388  08001388  00011388  2**2
                  CONTENTS, ALLOC, LOAD, DATA
  4 .fini_array   00000004  0800138c  0800138c  0001138c  2**2
                  CONTENTS, ALLOC, LOAD, DATA
  5 .data         00000004  20000000  08001390  00020000  2**2
                  CONTENTS, ALLOC, LOAD, DATA
  6 .bss          00000020  20000004  08001394  00020004  2**2
                  ALLOC
  7 ._user_heap_stack 00000400  20000024  08001394  00020024  2**0
                  ALLOC
  8 .ARM.attributes 00000030  00000000  00000000  00020004  2**0
                  CONTENTS, READONLY
  9 .debug_info   0000143a  00000000  00000000  00020034  2**0
                  CONTENTS, READONLY, DEBUGGING
 10 .debug_abbrev 00000421  00000000  00000000  0002146e  2**0
                  CONTENTS, READONLY, DEBUGGING
 11 .debug_aranges 000000c8  00000000  00000000  00021890  2**3
                  CONTENTS, READONLY, DEBUGGING
 12 .debug_ranges 00000090  00000000  00000000  00021958  2**3
                  CONTENTS, READONLY, DEBUGGING
 13 .debug_line   00000687  00000000  00000000  000219e8  2**0
                  CONTENTS, READONLY, DEBUGGING
 14 .debug_str    00000969  00000000  00000000  0002206f  2**0
                  CONTENTS, READONLY, DEBUGGING
 15 .comment      0000007c  00000000  00000000  000229d8  2**0
                  CONTENTS, READONLY
 16 .debug_frame  00000318  00000000  00000000  00022a54  2**2
                  CONTENTS, READONLY, DEBUGGING
 17 .stabstr      0000003f  00000000  00000000  00022d6c  2**0
                  CONTENTS, READONLY, DEBUGGING

Disassembly of section .text:

08000198 <__do_global_dtors_aux>:
 8000198:	b510      	push	{r4, lr}
 800019a:	4c05      	ldr	r4, [pc, #20]	; (80001b0 <__do_global_dtors_aux+0x18>)
 800019c:	7823      	ldrb	r3, [r4, #0]
 800019e:	b933      	cbnz	r3, 80001ae <__do_global_dtors_aux+0x16>
 80001a0:	4b04      	ldr	r3, [pc, #16]	; (80001b4 <__do_global_dtors_aux+0x1c>)
 80001a2:	b113      	cbz	r3, 80001aa <__do_global_dtors_aux+0x12>
 80001a4:	4804      	ldr	r0, [pc, #16]	; (80001b8 <__do_global_dtors_aux+0x20>)
 80001a6:	f3af 8000 	nop.w
 80001aa:	2301      	movs	r3, #1
 80001ac:	7023      	strb	r3, [r4, #0]
 80001ae:	bd10      	pop	{r4, pc}
 80001b0:	20000004 	.word	0x20000004
 80001b4:	00000000 	.word	0x00000000
 80001b8:	08001360 	.word	0x08001360

080001bc <frame_dummy>:
 80001bc:	b508      	push	{r3, lr}
 80001be:	4b03      	ldr	r3, [pc, #12]	; (80001cc <frame_dummy+0x10>)
 80001c0:	b11b      	cbz	r3, 80001ca <frame_dummy+0xe>
 80001c2:	4903      	ldr	r1, [pc, #12]	; (80001d0 <frame_dummy+0x14>)
 80001c4:	4803      	ldr	r0, [pc, #12]	; (80001d4 <frame_dummy+0x18>)
 80001c6:	f3af 8000 	nop.w
 80001ca:	bd08      	pop	{r3, pc}
 80001cc:	00000000 	.word	0x00000000
 80001d0:	20000008 	.word	0x20000008
 80001d4:	08001360 	.word	0x08001360

080001d8 <__aeabi_drsub>:
 80001d8:	f081 4100 	eor.w	r1, r1, #2147483648	; 0x80000000
 80001dc:	e002      	b.n	80001e4 <__adddf3>
 80001de:	bf00      	nop

080001e0 <__aeabi_dsub>:
 80001e0:	f083 4300 	eor.w	r3, r3, #2147483648	; 0x80000000

080001e4 <__adddf3>:
 80001e4:	b530      	push	{r4, r5, lr}
 80001e6:	ea4f 0441 	mov.w	r4, r1, lsl #1
 80001ea:	ea4f 0543 	mov.w	r5, r3, lsl #1
 80001ee:	ea94 0f05 	teq	r4, r5
 80001f2:	bf08      	it	eq
 80001f4:	ea90 0f02 	teqeq	r0, r2
 80001f8:	bf1f      	itttt	ne
 80001fa:	ea54 0c00 	orrsne.w	ip, r4, r0
 80001fe:	ea55 0c02 	orrsne.w	ip, r5, r2
 8000202:	ea7f 5c64 	mvnsne.w	ip, r4, asr #21
 8000206:	ea7f 5c65 	mvnsne.w	ip, r5, asr #21
 800020a:	f000 80e2 	beq.w	80003d2 <__adddf3+0x1ee>
 800020e:	ea4f 5454 	mov.w	r4, r4, lsr #21
 8000212:	ebd4 5555 	rsbs	r5, r4, r5, lsr #21
 8000216:	bfb8      	it	lt
 8000218:	426d      	neglt	r5, r5
 800021a:	dd0c      	ble.n	8000236 <__adddf3+0x52>
 800021c:	442c      	add	r4, r5
 800021e:	ea80 0202 	eor.w	r2, r0, r2
 8000222:	ea81 0303 	eor.w	r3, r1, r3
 8000226:	ea82 0000 	eor.w	r0, r2, r0
 800022a:	ea83 0101 	eor.w	r1, r3, r1
 800022e:	ea80 0202 	eor.w	r2, r0, r2
 8000232:	ea81 0303 	eor.w	r3, r1, r3
 8000236:	2d36      	cmp	r5, #54	; 0x36
 8000238:	bf88      	it	hi
 800023a:	bd30      	pophi	{r4, r5, pc}
 800023c:	f011 4f00 	tst.w	r1, #2147483648	; 0x80000000
 8000240:	ea4f 3101 	mov.w	r1, r1, lsl #12
 8000244:	f44f 1c80 	mov.w	ip, #1048576	; 0x100000
 8000248:	ea4c 3111 	orr.w	r1, ip, r1, lsr #12
 800024c:	d002      	beq.n	8000254 <__adddf3+0x70>
 800024e:	4240      	negs	r0, r0
 8000250:	eb61 0141 	sbc.w	r1, r1, r1, lsl #1
 8000254:	f013 4f00 	tst.w	r3, #2147483648	; 0x80000000
 8000258:	ea4f 3303 	mov.w	r3, r3, lsl #12
 800025c:	ea4c 3313 	orr.w	r3, ip, r3, lsr #12
 8000260:	d002      	beq.n	8000268 <__adddf3+0x84>
 8000262:	4252      	negs	r2, r2
 8000264:	eb63 0343 	sbc.w	r3, r3, r3, lsl #1
 8000268:	ea94 0f05 	teq	r4, r5
 800026c:	f000 80a7 	beq.w	80003be <__adddf3+0x1da>
 8000270:	f1a4 0401 	sub.w	r4, r4, #1
 8000274:	f1d5 0e20 	rsbs	lr, r5, #32
 8000278:	db0d      	blt.n	8000296 <__adddf3+0xb2>
 800027a:	fa02 fc0e 	lsl.w	ip, r2, lr
 800027e:	fa22 f205 	lsr.w	r2, r2, r5
 8000282:	1880      	adds	r0, r0, r2
 8000284:	f141 0100 	adc.w	r1, r1, #0
 8000288:	fa03 f20e 	lsl.w	r2, r3, lr
 800028c:	1880      	adds	r0, r0, r2
 800028e:	fa43 f305 	asr.w	r3, r3, r5
 8000292:	4159      	adcs	r1, r3
 8000294:	e00e      	b.n	80002b4 <__adddf3+0xd0>
 8000296:	f1a5 0520 	sub.w	r5, r5, #32
 800029a:	f10e 0e20 	add.w	lr, lr, #32
 800029e:	2a01      	cmp	r2, #1
 80002a0:	fa03 fc0e 	lsl.w	ip, r3, lr
 80002a4:	bf28      	it	cs
 80002a6:	f04c 0c02 	orrcs.w	ip, ip, #2
 80002aa:	fa43 f305 	asr.w	r3, r3, r5
 80002ae:	18c0      	adds	r0, r0, r3
 80002b0:	eb51 71e3 	adcs.w	r1, r1, r3, asr #31
 80002b4:	f001 4500 	and.w	r5, r1, #2147483648	; 0x80000000
 80002b8:	d507      	bpl.n	80002ca <__adddf3+0xe6>
 80002ba:	f04f 0e00 	mov.w	lr, #0
 80002be:	f1dc 0c00 	rsbs	ip, ip, #0
 80002c2:	eb7e 0000 	sbcs.w	r0, lr, r0
 80002c6:	eb6e 0101 	sbc.w	r1, lr, r1
 80002ca:	f5b1 1f80 	cmp.w	r1, #1048576	; 0x100000
 80002ce:	d31b      	bcc.n	8000308 <__adddf3+0x124>
 80002d0:	f5b1 1f00 	cmp.w	r1, #2097152	; 0x200000
 80002d4:	d30c      	bcc.n	80002f0 <__adddf3+0x10c>
 80002d6:	0849      	lsrs	r1, r1, #1
 80002d8:	ea5f 0030 	movs.w	r0, r0, rrx
 80002dc:	ea4f 0c3c 	mov.w	ip, ip, rrx
 80002e0:	f104 0401 	add.w	r4, r4, #1
 80002e4:	ea4f 5244 	mov.w	r2, r4, lsl #21
 80002e8:	f512 0f80 	cmn.w	r2, #4194304	; 0x400000
 80002ec:	f080 809a 	bcs.w	8000424 <__adddf3+0x240>
 80002f0:	f1bc 4f00 	cmp.w	ip, #2147483648	; 0x80000000
 80002f4:	bf08      	it	eq
 80002f6:	ea5f 0c50 	movseq.w	ip, r0, lsr #1
 80002fa:	f150 0000 	adcs.w	r0, r0, #0
 80002fe:	eb41 5104 	adc.w	r1, r1, r4, lsl #20
 8000302:	ea41 0105 	orr.w	r1, r1, r5
 8000306:	bd30      	pop	{r4, r5, pc}
 8000308:	ea5f 0c4c 	movs.w	ip, ip, lsl #1
 800030c:	4140      	adcs	r0, r0
 800030e:	eb41 0101 	adc.w	r1, r1, r1
 8000312:	f411 1f80 	tst.w	r1, #1048576	; 0x100000
 8000316:	f1a4 0401 	sub.w	r4, r4, #1
 800031a:	d1e9      	bne.n	80002f0 <__adddf3+0x10c>
 800031c:	f091 0f00 	teq	r1, #0
 8000320:	bf04      	itt	eq
 8000322:	4601      	moveq	r1, r0
 8000324:	2000      	moveq	r0, #0
 8000326:	fab1 f381 	clz	r3, r1
 800032a:	bf08      	it	eq
 800032c:	3320      	addeq	r3, #32
 800032e:	f1a3 030b 	sub.w	r3, r3, #11
 8000332:	f1b3 0220 	subs.w	r2, r3, #32
 8000336:	da0c      	bge.n	8000352 <__adddf3+0x16e>
 8000338:	320c      	adds	r2, #12
 800033a:	dd08      	ble.n	800034e <__adddf3+0x16a>
 800033c:	f102 0c14 	add.w	ip, r2, #20
 8000340:	f1c2 020c 	rsb	r2, r2, #12
 8000344:	fa01 f00c 	lsl.w	r0, r1, ip
 8000348:	fa21 f102 	lsr.w	r1, r1, r2
 800034c:	e00c      	b.n	8000368 <__adddf3+0x184>
 800034e:	f102 0214 	add.w	r2, r2, #20
 8000352:	bfd8      	it	le
 8000354:	f1c2 0c20 	rsble	ip, r2, #32
 8000358:	fa01 f102 	lsl.w	r1, r1, r2
 800035c:	fa20 fc0c 	lsr.w	ip, r0, ip
 8000360:	bfdc      	itt	le
 8000362:	ea41 010c 	orrle.w	r1, r1, ip
 8000366:	4090      	lslle	r0, r2
 8000368:	1ae4      	subs	r4, r4, r3
 800036a:	bfa2      	ittt	ge
 800036c:	eb01 5104 	addge.w	r1, r1, r4, lsl #20
 8000370:	4329      	orrge	r1, r5
 8000372:	bd30      	popge	{r4, r5, pc}
 8000374:	ea6f 0404 	mvn.w	r4, r4
 8000378:	3c1f      	subs	r4, #31
 800037a:	da1c      	bge.n	80003b6 <__adddf3+0x1d2>
 800037c:	340c      	adds	r4, #12
 800037e:	dc0e      	bgt.n	800039e <__adddf3+0x1ba>
 8000380:	f104 0414 	add.w	r4, r4, #20
 8000384:	f1c4 0220 	rsb	r2, r4, #32
 8000388:	fa20 f004 	lsr.w	r0, r0, r4
 800038c:	fa01 f302 	lsl.w	r3, r1, r2
 8000390:	ea40 0003 	orr.w	r0, r0, r3
 8000394:	fa21 f304 	lsr.w	r3, r1, r4
 8000398:	ea45 0103 	orr.w	r1, r5, r3
 800039c:	bd30      	pop	{r4, r5, pc}
 800039e:	f1c4 040c 	rsb	r4, r4, #12
 80003a2:	f1c4 0220 	rsb	r2, r4, #32
 80003a6:	fa20 f002 	lsr.w	r0, r0, r2
 80003aa:	fa01 f304 	lsl.w	r3, r1, r4
 80003ae:	ea40 0003 	orr.w	r0, r0, r3
 80003b2:	4629      	mov	r1, r5
 80003b4:	bd30      	pop	{r4, r5, pc}
 80003b6:	fa21 f004 	lsr.w	r0, r1, r4
 80003ba:	4629      	mov	r1, r5
 80003bc:	bd30      	pop	{r4, r5, pc}
 80003be:	f094 0f00 	teq	r4, #0
 80003c2:	f483 1380 	eor.w	r3, r3, #1048576	; 0x100000
 80003c6:	bf06      	itte	eq
 80003c8:	f481 1180 	eoreq.w	r1, r1, #1048576	; 0x100000
 80003cc:	3401      	addeq	r4, #1
 80003ce:	3d01      	subne	r5, #1
 80003d0:	e74e      	b.n	8000270 <__adddf3+0x8c>
 80003d2:	ea7f 5c64 	mvns.w	ip, r4, asr #21
 80003d6:	bf18      	it	ne
 80003d8:	ea7f 5c65 	mvnsne.w	ip, r5, asr #21
 80003dc:	d029      	beq.n	8000432 <__adddf3+0x24e>
 80003de:	ea94 0f05 	teq	r4, r5
 80003e2:	bf08      	it	eq
 80003e4:	ea90 0f02 	teqeq	r0, r2
 80003e8:	d005      	beq.n	80003f6 <__adddf3+0x212>
 80003ea:	ea54 0c00 	orrs.w	ip, r4, r0
 80003ee:	bf04      	itt	eq
 80003f0:	4619      	moveq	r1, r3
 80003f2:	4610      	moveq	r0, r2
 80003f4:	bd30      	pop	{r4, r5, pc}
 80003f6:	ea91 0f03 	teq	r1, r3
 80003fa:	bf1e      	ittt	ne
 80003fc:	2100      	movne	r1, #0
 80003fe:	2000      	movne	r0, #0
 8000400:	bd30      	popne	{r4, r5, pc}
 8000402:	ea5f 5c54 	movs.w	ip, r4, lsr #21
 8000406:	d105      	bne.n	8000414 <__adddf3+0x230>
 8000408:	0040      	lsls	r0, r0, #1
 800040a:	4149      	adcs	r1, r1
 800040c:	bf28      	it	cs
 800040e:	f041 4100 	orrcs.w	r1, r1, #2147483648	; 0x80000000
 8000412:	bd30      	pop	{r4, r5, pc}
 8000414:	f514 0480 	adds.w	r4, r4, #4194304	; 0x400000
 8000418:	bf3c      	itt	cc
 800041a:	f501 1180 	addcc.w	r1, r1, #1048576	; 0x100000
 800041e:	bd30      	popcc	{r4, r5, pc}
 8000420:	f001 4500 	and.w	r5, r1, #2147483648	; 0x80000000
 8000424:	f045 41fe 	orr.w	r1, r5, #2130706432	; 0x7f000000
 8000428:	f441 0170 	orr.w	r1, r1, #15728640	; 0xf00000
 800042c:	f04f 0000 	mov.w	r0, #0
 8000430:	bd30      	pop	{r4, r5, pc}
 8000432:	ea7f 5c64 	mvns.w	ip, r4, asr #21
 8000436:	bf1a      	itte	ne
 8000438:	4619      	movne	r1, r3
 800043a:	4610      	movne	r0, r2
 800043c:	ea7f 5c65 	mvnseq.w	ip, r5, asr #21
 8000440:	bf1c      	itt	ne
 8000442:	460b      	movne	r3, r1
 8000444:	4602      	movne	r2, r0
 8000446:	ea50 3401 	orrs.w	r4, r0, r1, lsl #12
 800044a:	bf06      	itte	eq
 800044c:	ea52 3503 	orrseq.w	r5, r2, r3, lsl #12
 8000450:	ea91 0f03 	teqeq	r1, r3
 8000454:	f441 2100 	orrne.w	r1, r1, #524288	; 0x80000
 8000458:	bd30      	pop	{r4, r5, pc}
 800045a:	bf00      	nop

0800045c <__aeabi_ui2d>:
 800045c:	f090 0f00 	teq	r0, #0
 8000460:	bf04      	itt	eq
 8000462:	2100      	moveq	r1, #0
 8000464:	4770      	bxeq	lr
 8000466:	b530      	push	{r4, r5, lr}
 8000468:	f44f 6480 	mov.w	r4, #1024	; 0x400
 800046c:	f104 0432 	add.w	r4, r4, #50	; 0x32
 8000470:	f04f 0500 	mov.w	r5, #0
 8000474:	f04f 0100 	mov.w	r1, #0
 8000478:	e750      	b.n	800031c <__adddf3+0x138>
 800047a:	bf00      	nop

0800047c <__aeabi_i2d>:
 800047c:	f090 0f00 	teq	r0, #0
 8000480:	bf04      	itt	eq
 8000482:	2100      	moveq	r1, #0
 8000484:	4770      	bxeq	lr
 8000486:	b530      	push	{r4, r5, lr}
 8000488:	f44f 6480 	mov.w	r4, #1024	; 0x400
 800048c:	f104 0432 	add.w	r4, r4, #50	; 0x32
 8000490:	f010 4500 	ands.w	r5, r0, #2147483648	; 0x80000000
 8000494:	bf48      	it	mi
 8000496:	4240      	negmi	r0, r0
 8000498:	f04f 0100 	mov.w	r1, #0
 800049c:	e73e      	b.n	800031c <__adddf3+0x138>
 800049e:	bf00      	nop

080004a0 <__aeabi_f2d>:
 80004a0:	0042      	lsls	r2, r0, #1
 80004a2:	ea4f 01e2 	mov.w	r1, r2, asr #3
 80004a6:	ea4f 0131 	mov.w	r1, r1, rrx
 80004aa:	ea4f 7002 	mov.w	r0, r2, lsl #28
 80004ae:	bf1f      	itttt	ne
 80004b0:	f012 437f 	andsne.w	r3, r2, #4278190080	; 0xff000000
 80004b4:	f093 4f7f 	teqne	r3, #4278190080	; 0xff000000
 80004b8:	f081 5160 	eorne.w	r1, r1, #939524096	; 0x38000000
 80004bc:	4770      	bxne	lr
 80004be:	f092 0f00 	teq	r2, #0
 80004c2:	bf14      	ite	ne
 80004c4:	f093 4f7f 	teqne	r3, #4278190080	; 0xff000000
 80004c8:	4770      	bxeq	lr
 80004ca:	b530      	push	{r4, r5, lr}
 80004cc:	f44f 7460 	mov.w	r4, #896	; 0x380
 80004d0:	f001 4500 	and.w	r5, r1, #2147483648	; 0x80000000
 80004d4:	f021 4100 	bic.w	r1, r1, #2147483648	; 0x80000000
 80004d8:	e720      	b.n	800031c <__adddf3+0x138>
 80004da:	bf00      	nop

080004dc <__aeabi_ul2d>:
 80004dc:	ea50 0201 	orrs.w	r2, r0, r1
 80004e0:	bf08      	it	eq
 80004e2:	4770      	bxeq	lr
 80004e4:	b530      	push	{r4, r5, lr}
 80004e6:	f04f 0500 	mov.w	r5, #0
 80004ea:	e00a      	b.n	8000502 <__aeabi_l2d+0x16>

080004ec <__aeabi_l2d>:
 80004ec:	ea50 0201 	orrs.w	r2, r0, r1
 80004f0:	bf08      	it	eq
 80004f2:	4770      	bxeq	lr
 80004f4:	b530      	push	{r4, r5, lr}
 80004f6:	f011 4500 	ands.w	r5, r1, #2147483648	; 0x80000000
 80004fa:	d502      	bpl.n	8000502 <__aeabi_l2d+0x16>
 80004fc:	4240      	negs	r0, r0
 80004fe:	eb61 0141 	sbc.w	r1, r1, r1, lsl #1
 8000502:	f44f 6480 	mov.w	r4, #1024	; 0x400
 8000506:	f104 0432 	add.w	r4, r4, #50	; 0x32
 800050a:	ea5f 5c91 	movs.w	ip, r1, lsr #22
 800050e:	f43f aedc 	beq.w	80002ca <__adddf3+0xe6>
 8000512:	f04f 0203 	mov.w	r2, #3
 8000516:	ea5f 0cdc 	movs.w	ip, ip, lsr #3
 800051a:	bf18      	it	ne
 800051c:	3203      	addne	r2, #3
 800051e:	ea5f 0cdc 	movs.w	ip, ip, lsr #3
 8000522:	bf18      	it	ne
 8000524:	3203      	addne	r2, #3
 8000526:	eb02 02dc 	add.w	r2, r2, ip, lsr #3
 800052a:	f1c2 0320 	rsb	r3, r2, #32
 800052e:	fa00 fc03 	lsl.w	ip, r0, r3
 8000532:	fa20 f002 	lsr.w	r0, r0, r2
 8000536:	fa01 fe03 	lsl.w	lr, r1, r3
 800053a:	ea40 000e 	orr.w	r0, r0, lr
 800053e:	fa21 f102 	lsr.w	r1, r1, r2
 8000542:	4414      	add	r4, r2
 8000544:	e6c1      	b.n	80002ca <__adddf3+0xe6>
 8000546:	bf00      	nop

08000548 <__aeabi_dmul>:
 8000548:	b570      	push	{r4, r5, r6, lr}
 800054a:	f04f 0cff 	mov.w	ip, #255	; 0xff
 800054e:	f44c 6ce0 	orr.w	ip, ip, #1792	; 0x700
 8000552:	ea1c 5411 	ands.w	r4, ip, r1, lsr #20
 8000556:	bf1d      	ittte	ne
 8000558:	ea1c 5513 	andsne.w	r5, ip, r3, lsr #20
 800055c:	ea94 0f0c 	teqne	r4, ip
 8000560:	ea95 0f0c 	teqne	r5, ip
 8000564:	f000 f8de 	bleq	8000724 <__aeabi_dmul+0x1dc>
 8000568:	442c      	add	r4, r5
 800056a:	ea81 0603 	eor.w	r6, r1, r3
 800056e:	ea21 514c 	bic.w	r1, r1, ip, lsl #21
 8000572:	ea23 534c 	bic.w	r3, r3, ip, lsl #21
 8000576:	ea50 3501 	orrs.w	r5, r0, r1, lsl #12
 800057a:	bf18      	it	ne
 800057c:	ea52 3503 	orrsne.w	r5, r2, r3, lsl #12
 8000580:	f441 1180 	orr.w	r1, r1, #1048576	; 0x100000
 8000584:	f443 1380 	orr.w	r3, r3, #1048576	; 0x100000
 8000588:	d038      	beq.n	80005fc <__aeabi_dmul+0xb4>
 800058a:	fba0 ce02 	umull	ip, lr, r0, r2
 800058e:	f04f 0500 	mov.w	r5, #0
 8000592:	fbe1 e502 	umlal	lr, r5, r1, r2
 8000596:	f006 4200 	and.w	r2, r6, #2147483648	; 0x80000000
 800059a:	fbe0 e503 	umlal	lr, r5, r0, r3
 800059e:	f04f 0600 	mov.w	r6, #0
 80005a2:	fbe1 5603 	umlal	r5, r6, r1, r3
 80005a6:	f09c 0f00 	teq	ip, #0
 80005aa:	bf18      	it	ne
 80005ac:	f04e 0e01 	orrne.w	lr, lr, #1
 80005b0:	f1a4 04ff 	sub.w	r4, r4, #255	; 0xff
 80005b4:	f5b6 7f00 	cmp.w	r6, #512	; 0x200
 80005b8:	f564 7440 	sbc.w	r4, r4, #768	; 0x300
 80005bc:	d204      	bcs.n	80005c8 <__aeabi_dmul+0x80>
 80005be:	ea5f 0e4e 	movs.w	lr, lr, lsl #1
 80005c2:	416d      	adcs	r5, r5
 80005c4:	eb46 0606 	adc.w	r6, r6, r6
 80005c8:	ea42 21c6 	orr.w	r1, r2, r6, lsl #11
 80005cc:	ea41 5155 	orr.w	r1, r1, r5, lsr #21
 80005d0:	ea4f 20c5 	mov.w	r0, r5, lsl #11
 80005d4:	ea40 505e 	orr.w	r0, r0, lr, lsr #21
 80005d8:	ea4f 2ece 	mov.w	lr, lr, lsl #11
 80005dc:	f1b4 0cfd 	subs.w	ip, r4, #253	; 0xfd
 80005e0:	bf88      	it	hi
 80005e2:	f5bc 6fe0 	cmphi.w	ip, #1792	; 0x700
 80005e6:	d81e      	bhi.n	8000626 <__aeabi_dmul+0xde>
 80005e8:	f1be 4f00 	cmp.w	lr, #2147483648	; 0x80000000
 80005ec:	bf08      	it	eq
 80005ee:	ea5f 0e50 	movseq.w	lr, r0, lsr #1
 80005f2:	f150 0000 	adcs.w	r0, r0, #0
 80005f6:	eb41 5104 	adc.w	r1, r1, r4, lsl #20
 80005fa:	bd70      	pop	{r4, r5, r6, pc}
 80005fc:	f006 4600 	and.w	r6, r6, #2147483648	; 0x80000000
 8000600:	ea46 0101 	orr.w	r1, r6, r1
 8000604:	ea40 0002 	orr.w	r0, r0, r2
 8000608:	ea81 0103 	eor.w	r1, r1, r3
 800060c:	ebb4 045c 	subs.w	r4, r4, ip, lsr #1
 8000610:	bfc2      	ittt	gt
 8000612:	ebd4 050c 	rsbsgt	r5, r4, ip
 8000616:	ea41 5104 	orrgt.w	r1, r1, r4, lsl #20
 800061a:	bd70      	popgt	{r4, r5, r6, pc}
 800061c:	f441 1180 	orr.w	r1, r1, #1048576	; 0x100000
 8000620:	f04f 0e00 	mov.w	lr, #0
 8000624:	3c01      	subs	r4, #1
 8000626:	f300 80ab 	bgt.w	8000780 <__aeabi_dmul+0x238>
 800062a:	f114 0f36 	cmn.w	r4, #54	; 0x36
 800062e:	bfde      	ittt	le
 8000630:	2000      	movle	r0, #0
 8000632:	f001 4100 	andle.w	r1, r1, #2147483648	; 0x80000000
 8000636:	bd70      	pople	{r4, r5, r6, pc}
 8000638:	f1c4 0400 	rsb	r4, r4, #0
 800063c:	3c20      	subs	r4, #32
 800063e:	da35      	bge.n	80006ac <__aeabi_dmul+0x164>
 8000640:	340c      	adds	r4, #12
 8000642:	dc1b      	bgt.n	800067c <__aeabi_dmul+0x134>
 8000644:	f104 0414 	add.w	r4, r4, #20
 8000648:	f1c4 0520 	rsb	r5, r4, #32
 800064c:	fa00 f305 	lsl.w	r3, r0, r5
 8000650:	fa20 f004 	lsr.w	r0, r0, r4
 8000654:	fa01 f205 	lsl.w	r2, r1, r5
 8000658:	ea40 0002 	orr.w	r0, r0, r2
 800065c:	f001 4200 	and.w	r2, r1, #2147483648	; 0x80000000
 8000660:	f021 4100 	bic.w	r1, r1, #2147483648	; 0x80000000
 8000664:	eb10 70d3 	adds.w	r0, r0, r3, lsr #31
 8000668:	fa21 f604 	lsr.w	r6, r1, r4
 800066c:	eb42 0106 	adc.w	r1, r2, r6
 8000670:	ea5e 0e43 	orrs.w	lr, lr, r3, lsl #1
 8000674:	bf08      	it	eq
 8000676:	ea20 70d3 	biceq.w	r0, r0, r3, lsr #31
 800067a:	bd70      	pop	{r4, r5, r6, pc}
 800067c:	f1c4 040c 	rsb	r4, r4, #12
 8000680:	f1c4 0520 	rsb	r5, r4, #32
 8000684:	fa00 f304 	lsl.w	r3, r0, r4
 8000688:	fa20 f005 	lsr.w	r0, r0, r5
 800068c:	fa01 f204 	lsl.w	r2, r1, r4
 8000690:	ea40 0002 	orr.w	r0, r0, r2
 8000694:	f001 4100 	and.w	r1, r1, #2147483648	; 0x80000000
 8000698:	eb10 70d3 	adds.w	r0, r0, r3, lsr #31
 800069c:	f141 0100 	adc.w	r1, r1, #0
 80006a0:	ea5e 0e43 	orrs.w	lr, lr, r3, lsl #1
 80006a4:	bf08      	it	eq
 80006a6:	ea20 70d3 	biceq.w	r0, r0, r3, lsr #31
 80006aa:	bd70      	pop	{r4, r5, r6, pc}
 80006ac:	f1c4 0520 	rsb	r5, r4, #32
 80006b0:	fa00 f205 	lsl.w	r2, r0, r5
 80006b4:	ea4e 0e02 	orr.w	lr, lr, r2
 80006b8:	fa20 f304 	lsr.w	r3, r0, r4
 80006bc:	fa01 f205 	lsl.w	r2, r1, r5
 80006c0:	ea43 0302 	orr.w	r3, r3, r2
 80006c4:	fa21 f004 	lsr.w	r0, r1, r4
 80006c8:	f001 4100 	and.w	r1, r1, #2147483648	; 0x80000000
 80006cc:	fa21 f204 	lsr.w	r2, r1, r4
 80006d0:	ea20 0002 	bic.w	r0, r0, r2
 80006d4:	eb00 70d3 	add.w	r0, r0, r3, lsr #31
 80006d8:	ea5e 0e43 	orrs.w	lr, lr, r3, lsl #1
 80006dc:	bf08      	it	eq
 80006de:	ea20 70d3 	biceq.w	r0, r0, r3, lsr #31
 80006e2:	bd70      	pop	{r4, r5, r6, pc}
 80006e4:	f094 0f00 	teq	r4, #0
 80006e8:	d10f      	bne.n	800070a <__aeabi_dmul+0x1c2>
 80006ea:	f001 4600 	and.w	r6, r1, #2147483648	; 0x80000000
 80006ee:	0040      	lsls	r0, r0, #1
 80006f0:	eb41 0101 	adc.w	r1, r1, r1
 80006f4:	f411 1f80 	tst.w	r1, #1048576	; 0x100000
 80006f8:	bf08      	it	eq
 80006fa:	3c01      	subeq	r4, #1
 80006fc:	d0f7      	beq.n	80006ee <__aeabi_dmul+0x1a6>
 80006fe:	ea41 0106 	orr.w	r1, r1, r6
 8000702:	f095 0f00 	teq	r5, #0
 8000706:	bf18      	it	ne
 8000708:	4770      	bxne	lr
 800070a:	f003 4600 	and.w	r6, r3, #2147483648	; 0x80000000
 800070e:	0052      	lsls	r2, r2, #1
 8000710:	eb43 0303 	adc.w	r3, r3, r3
 8000714:	f413 1f80 	tst.w	r3, #1048576	; 0x100000
 8000718:	bf08      	it	eq
 800071a:	3d01      	subeq	r5, #1
 800071c:	d0f7      	beq.n	800070e <__aeabi_dmul+0x1c6>
 800071e:	ea43 0306 	orr.w	r3, r3, r6
 8000722:	4770      	bx	lr
 8000724:	ea94 0f0c 	teq	r4, ip
 8000728:	ea0c 5513 	and.w	r5, ip, r3, lsr #20
 800072c:	bf18      	it	ne
 800072e:	ea95 0f0c 	teqne	r5, ip
 8000732:	d00c      	beq.n	800074e <__aeabi_dmul+0x206>
 8000734:	ea50 0641 	orrs.w	r6, r0, r1, lsl #1
 8000738:	bf18      	it	ne
 800073a:	ea52 0643 	orrsne.w	r6, r2, r3, lsl #1
 800073e:	d1d1      	bne.n	80006e4 <__aeabi_dmul+0x19c>
 8000740:	ea81 0103 	eor.w	r1, r1, r3
 8000744:	f001 4100 	and.w	r1, r1, #2147483648	; 0x80000000
 8000748:	f04f 0000 	mov.w	r0, #0
 800074c:	bd70      	pop	{r4, r5, r6, pc}
 800074e:	ea50 0641 	orrs.w	r6, r0, r1, lsl #1
 8000752:	bf06      	itte	eq
 8000754:	4610      	moveq	r0, r2
 8000756:	4619      	moveq	r1, r3
 8000758:	ea52 0643 	orrsne.w	r6, r2, r3, lsl #1
 800075c:	d019      	beq.n	8000792 <__aeabi_dmul+0x24a>
 800075e:	ea94 0f0c 	teq	r4, ip
 8000762:	d102      	bne.n	800076a <__aeabi_dmul+0x222>
 8000764:	ea50 3601 	orrs.w	r6, r0, r1, lsl #12
 8000768:	d113      	bne.n	8000792 <__aeabi_dmul+0x24a>
 800076a:	ea95 0f0c 	teq	r5, ip
 800076e:	d105      	bne.n	800077c <__aeabi_dmul+0x234>
 8000770:	ea52 3603 	orrs.w	r6, r2, r3, lsl #12
 8000774:	bf1c      	itt	ne
 8000776:	4610      	movne	r0, r2
 8000778:	4619      	movne	r1, r3
 800077a:	d10a      	bne.n	8000792 <__aeabi_dmul+0x24a>
 800077c:	ea81 0103 	eor.w	r1, r1, r3
 8000780:	f001 4100 	and.w	r1, r1, #2147483648	; 0x80000000
 8000784:	f041 41fe 	orr.w	r1, r1, #2130706432	; 0x7f000000
 8000788:	f441 0170 	orr.w	r1, r1, #15728640	; 0xf00000
 800078c:	f04f 0000 	mov.w	r0, #0
 8000790:	bd70      	pop	{r4, r5, r6, pc}
 8000792:	f041 41fe 	orr.w	r1, r1, #2130706432	; 0x7f000000
 8000796:	f441 0178 	orr.w	r1, r1, #16252928	; 0xf80000
 800079a:	bd70      	pop	{r4, r5, r6, pc}

0800079c <__aeabi_ddiv>:
 800079c:	b570      	push	{r4, r5, r6, lr}
 800079e:	f04f 0cff 	mov.w	ip, #255	; 0xff
 80007a2:	f44c 6ce0 	orr.w	ip, ip, #1792	; 0x700
 80007a6:	ea1c 5411 	ands.w	r4, ip, r1, lsr #20
 80007aa:	bf1d      	ittte	ne
 80007ac:	ea1c 5513 	andsne.w	r5, ip, r3, lsr #20
 80007b0:	ea94 0f0c 	teqne	r4, ip
 80007b4:	ea95 0f0c 	teqne	r5, ip
 80007b8:	f000 f8a7 	bleq	800090a <__aeabi_ddiv+0x16e>
 80007bc:	eba4 0405 	sub.w	r4, r4, r5
 80007c0:	ea81 0e03 	eor.w	lr, r1, r3
 80007c4:	ea52 3503 	orrs.w	r5, r2, r3, lsl #12
 80007c8:	ea4f 3101 	mov.w	r1, r1, lsl #12
 80007cc:	f000 8088 	beq.w	80008e0 <__aeabi_ddiv+0x144>
 80007d0:	ea4f 3303 	mov.w	r3, r3, lsl #12
 80007d4:	f04f 5580 	mov.w	r5, #268435456	; 0x10000000
 80007d8:	ea45 1313 	orr.w	r3, r5, r3, lsr #4
 80007dc:	ea43 6312 	orr.w	r3, r3, r2, lsr #24
 80007e0:	ea4f 2202 	mov.w	r2, r2, lsl #8
 80007e4:	ea45 1511 	orr.w	r5, r5, r1, lsr #4
 80007e8:	ea45 6510 	orr.w	r5, r5, r0, lsr #24
 80007ec:	ea4f 2600 	mov.w	r6, r0, lsl #8
 80007f0:	f00e 4100 	and.w	r1, lr, #2147483648	; 0x80000000
 80007f4:	429d      	cmp	r5, r3
 80007f6:	bf08      	it	eq
 80007f8:	4296      	cmpeq	r6, r2
 80007fa:	f144 04fd 	adc.w	r4, r4, #253	; 0xfd
 80007fe:	f504 7440 	add.w	r4, r4, #768	; 0x300
 8000802:	d202      	bcs.n	800080a <__aeabi_ddiv+0x6e>
 8000804:	085b      	lsrs	r3, r3, #1
 8000806:	ea4f 0232 	mov.w	r2, r2, rrx
 800080a:	1ab6      	subs	r6, r6, r2
 800080c:	eb65 0503 	sbc.w	r5, r5, r3
 8000810:	085b      	lsrs	r3, r3, #1
 8000812:	ea4f 0232 	mov.w	r2, r2, rrx
 8000816:	f44f 1080 	mov.w	r0, #1048576	; 0x100000
 800081a:	f44f 2c00 	mov.w	ip, #524288	; 0x80000
 800081e:	ebb6 0e02 	subs.w	lr, r6, r2
 8000822:	eb75 0e03 	sbcs.w	lr, r5, r3
 8000826:	bf22      	ittt	cs
 8000828:	1ab6      	subcs	r6, r6, r2
 800082a:	4675      	movcs	r5, lr
 800082c:	ea40 000c 	orrcs.w	r0, r0, ip
 8000830:	085b      	lsrs	r3, r3, #1
 8000832:	ea4f 0232 	mov.w	r2, r2, rrx
 8000836:	ebb6 0e02 	subs.w	lr, r6, r2
 800083a:	eb75 0e03 	sbcs.w	lr, r5, r3
 800083e:	bf22      	ittt	cs
 8000840:	1ab6      	subcs	r6, r6, r2
 8000842:	4675      	movcs	r5, lr
 8000844:	ea40 005c 	orrcs.w	r0, r0, ip, lsr #1
 8000848:	085b      	lsrs	r3, r3, #1
 800084a:	ea4f 0232 	mov.w	r2, r2, rrx
 800084e:	ebb6 0e02 	subs.w	lr, r6, r2
 8000852:	eb75 0e03 	sbcs.w	lr, r5, r3
 8000856:	bf22      	ittt	cs
 8000858:	1ab6      	subcs	r6, r6, r2
 800085a:	4675      	movcs	r5, lr
 800085c:	ea40 009c 	orrcs.w	r0, r0, ip, lsr #2
 8000860:	085b      	lsrs	r3, r3, #1
 8000862:	ea4f 0232 	mov.w	r2, r2, rrx
 8000866:	ebb6 0e02 	subs.w	lr, r6, r2
 800086a:	eb75 0e03 	sbcs.w	lr, r5, r3
 800086e:	bf22      	ittt	cs
 8000870:	1ab6      	subcs	r6, r6, r2
 8000872:	4675      	movcs	r5, lr
 8000874:	ea40 00dc 	orrcs.w	r0, r0, ip, lsr #3
 8000878:	ea55 0e06 	orrs.w	lr, r5, r6
 800087c:	d018      	beq.n	80008b0 <__aeabi_ddiv+0x114>
 800087e:	ea4f 1505 	mov.w	r5, r5, lsl #4
 8000882:	ea45 7516 	orr.w	r5, r5, r6, lsr #28
 8000886:	ea4f 1606 	mov.w	r6, r6, lsl #4
 800088a:	ea4f 03c3 	mov.w	r3, r3, lsl #3
 800088e:	ea43 7352 	orr.w	r3, r3, r2, lsr #29
 8000892:	ea4f 02c2 	mov.w	r2, r2, lsl #3
 8000896:	ea5f 1c1c 	movs.w	ip, ip, lsr #4
 800089a:	d1c0      	bne.n	800081e <__aeabi_ddiv+0x82>
 800089c:	f411 1f80 	tst.w	r1, #1048576	; 0x100000
 80008a0:	d10b      	bne.n	80008ba <__aeabi_ddiv+0x11e>
 80008a2:	ea41 0100 	orr.w	r1, r1, r0
 80008a6:	f04f 0000 	mov.w	r0, #0
 80008aa:	f04f 4c00 	mov.w	ip, #2147483648	; 0x80000000
 80008ae:	e7b6      	b.n	800081e <__aeabi_ddiv+0x82>
 80008b0:	f411 1f80 	tst.w	r1, #1048576	; 0x100000
 80008b4:	bf04      	itt	eq
 80008b6:	4301      	orreq	r1, r0
 80008b8:	2000      	moveq	r0, #0
 80008ba:	f1b4 0cfd 	subs.w	ip, r4, #253	; 0xfd
 80008be:	bf88      	it	hi
 80008c0:	f5bc 6fe0 	cmphi.w	ip, #1792	; 0x700
 80008c4:	f63f aeaf 	bhi.w	8000626 <__aeabi_dmul+0xde>
 80008c8:	ebb5 0c03 	subs.w	ip, r5, r3
 80008cc:	bf04      	itt	eq
 80008ce:	ebb6 0c02 	subseq.w	ip, r6, r2
 80008d2:	ea5f 0c50 	movseq.w	ip, r0, lsr #1
 80008d6:	f150 0000 	adcs.w	r0, r0, #0
 80008da:	eb41 5104 	adc.w	r1, r1, r4, lsl #20
 80008de:	bd70      	pop	{r4, r5, r6, pc}
 80008e0:	f00e 4e00 	and.w	lr, lr, #2147483648	; 0x80000000
 80008e4:	ea4e 3111 	orr.w	r1, lr, r1, lsr #12
 80008e8:	eb14 045c 	adds.w	r4, r4, ip, lsr #1
 80008ec:	bfc2      	ittt	gt
 80008ee:	ebd4 050c 	rsbsgt	r5, r4, ip
 80008f2:	ea41 5104 	orrgt.w	r1, r1, r4, lsl #20
 80008f6:	bd70      	popgt	{r4, r5, r6, pc}
 80008f8:	f441 1180 	orr.w	r1, r1, #1048576	; 0x100000
 80008fc:	f04f 0e00 	mov.w	lr, #0
 8000900:	3c01      	subs	r4, #1
 8000902:	e690      	b.n	8000626 <__aeabi_dmul+0xde>
 8000904:	ea45 0e06 	orr.w	lr, r5, r6
 8000908:	e68d      	b.n	8000626 <__aeabi_dmul+0xde>
 800090a:	ea0c 5513 	and.w	r5, ip, r3, lsr #20
 800090e:	ea94 0f0c 	teq	r4, ip
 8000912:	bf08      	it	eq
 8000914:	ea95 0f0c 	teqeq	r5, ip
 8000918:	f43f af3b 	beq.w	8000792 <__aeabi_dmul+0x24a>
 800091c:	ea94 0f0c 	teq	r4, ip
 8000920:	d10a      	bne.n	8000938 <__aeabi_ddiv+0x19c>
 8000922:	ea50 3401 	orrs.w	r4, r0, r1, lsl #12
 8000926:	f47f af34 	bne.w	8000792 <__aeabi_dmul+0x24a>
 800092a:	ea95 0f0c 	teq	r5, ip
 800092e:	f47f af25 	bne.w	800077c <__aeabi_dmul+0x234>
 8000932:	4610      	mov	r0, r2
 8000934:	4619      	mov	r1, r3
 8000936:	e72c      	b.n	8000792 <__aeabi_dmul+0x24a>
 8000938:	ea95 0f0c 	teq	r5, ip
 800093c:	d106      	bne.n	800094c <__aeabi_ddiv+0x1b0>
 800093e:	ea52 3503 	orrs.w	r5, r2, r3, lsl #12
 8000942:	f43f aefd 	beq.w	8000740 <__aeabi_dmul+0x1f8>
 8000946:	4610      	mov	r0, r2
 8000948:	4619      	mov	r1, r3
 800094a:	e722      	b.n	8000792 <__aeabi_dmul+0x24a>
 800094c:	ea50 0641 	orrs.w	r6, r0, r1, lsl #1
 8000950:	bf18      	it	ne
 8000952:	ea52 0643 	orrsne.w	r6, r2, r3, lsl #1
 8000956:	f47f aec5 	bne.w	80006e4 <__aeabi_dmul+0x19c>
 800095a:	ea50 0441 	orrs.w	r4, r0, r1, lsl #1
 800095e:	f47f af0d 	bne.w	800077c <__aeabi_dmul+0x234>
 8000962:	ea52 0543 	orrs.w	r5, r2, r3, lsl #1
 8000966:	f47f aeeb 	bne.w	8000740 <__aeabi_dmul+0x1f8>
 800096a:	e712      	b.n	8000792 <__aeabi_dmul+0x24a>

0800096c <__aeabi_d2uiz>:
 800096c:	004a      	lsls	r2, r1, #1
 800096e:	d211      	bcs.n	8000994 <__aeabi_d2uiz+0x28>
 8000970:	f512 1200 	adds.w	r2, r2, #2097152	; 0x200000
 8000974:	d211      	bcs.n	800099a <__aeabi_d2uiz+0x2e>
 8000976:	d50d      	bpl.n	8000994 <__aeabi_d2uiz+0x28>
 8000978:	f46f 7378 	mvn.w	r3, #992	; 0x3e0
 800097c:	ebb3 5262 	subs.w	r2, r3, r2, asr #21
 8000980:	d40e      	bmi.n	80009a0 <__aeabi_d2uiz+0x34>
 8000982:	ea4f 23c1 	mov.w	r3, r1, lsl #11
 8000986:	f043 4300 	orr.w	r3, r3, #2147483648	; 0x80000000
 800098a:	ea43 5350 	orr.w	r3, r3, r0, lsr #21
 800098e:	fa23 f002 	lsr.w	r0, r3, r2
 8000992:	4770      	bx	lr
 8000994:	f04f 0000 	mov.w	r0, #0
 8000998:	4770      	bx	lr
 800099a:	ea50 3001 	orrs.w	r0, r0, r1, lsl #12
 800099e:	d102      	bne.n	80009a6 <__aeabi_d2uiz+0x3a>
 80009a0:	f04f 30ff 	mov.w	r0, #4294967295
 80009a4:	4770      	bx	lr
 80009a6:	f04f 0000 	mov.w	r0, #0
 80009aa:	4770      	bx	lr

080009ac <NVIC_SetPriority>:
  \note    The priority cannot be set for every core interrupt.
  \param [in]      IRQn  Interrupt number.
  \param [in]  priority  Priority to set.
 */
__STATIC_INLINE void NVIC_SetPriority(IRQn_Type IRQn, uint32_t priority)
{
 80009ac:	b480      	push	{r7}
 80009ae:	b083      	sub	sp, #12
 80009b0:	af00      	add	r7, sp, #0
 80009b2:	4603      	mov	r3, r0
 80009b4:	6039      	str	r1, [r7, #0]
 80009b6:	71fb      	strb	r3, [r7, #7]
  if ((int32_t)(IRQn) < 0)
 80009b8:	f997 3007 	ldrsb.w	r3, [r7, #7]
 80009bc:	2b00      	cmp	r3, #0
 80009be:	da0b      	bge.n	80009d8 <NVIC_SetPriority+0x2c>
  {
    SCB->SHP[(((uint32_t)(int32_t)IRQn) & 0xFUL)-4UL] = (uint8_t)((priority << (8U - __NVIC_PRIO_BITS)) & (uint32_t)0xFFUL);
 80009c0:	490d      	ldr	r1, [pc, #52]	; (80009f8 <NVIC_SetPriority+0x4c>)
 80009c2:	79fb      	ldrb	r3, [r7, #7]
 80009c4:	f003 030f 	and.w	r3, r3, #15
 80009c8:	3b04      	subs	r3, #4
 80009ca:	683a      	ldr	r2, [r7, #0]
 80009cc:	b2d2      	uxtb	r2, r2
 80009ce:	0112      	lsls	r2, r2, #4
 80009d0:	b2d2      	uxtb	r2, r2
 80009d2:	440b      	add	r3, r1
 80009d4:	761a      	strb	r2, [r3, #24]
  }
  else
  {
    NVIC->IP[((uint32_t)(int32_t)IRQn)]               = (uint8_t)((priority << (8U - __NVIC_PRIO_BITS)) & (uint32_t)0xFFUL);
  }
}
 80009d6:	e009      	b.n	80009ec <NVIC_SetPriority+0x40>
    NVIC->IP[((uint32_t)(int32_t)IRQn)]               = (uint8_t)((priority << (8U - __NVIC_PRIO_BITS)) & (uint32_t)0xFFUL);
 80009d8:	4908      	ldr	r1, [pc, #32]	; (80009fc <NVIC_SetPriority+0x50>)
 80009da:	f997 3007 	ldrsb.w	r3, [r7, #7]
 80009de:	683a      	ldr	r2, [r7, #0]
 80009e0:	b2d2      	uxtb	r2, r2
 80009e2:	0112      	lsls	r2, r2, #4
 80009e4:	b2d2      	uxtb	r2, r2
 80009e6:	440b      	add	r3, r1
 80009e8:	f883 2300 	strb.w	r2, [r3, #768]	; 0x300
}
 80009ec:	bf00      	nop
 80009ee:	370c      	adds	r7, #12
 80009f0:	46bd      	mov	sp, r7
 80009f2:	f85d 7b04 	ldr.w	r7, [sp], #4
 80009f6:	4770      	bx	lr
 80009f8:	e000ed00 	.word	0xe000ed00
 80009fc:	e000e100 	.word	0xe000e100

08000a00 <SysTick_Config>:
  \note    When the variable <b>__Vendor_SysTickConfig</b> is set to 1, then the
           function <b>SysTick_Config</b> is not included. In this case, the file <b><i>device</i>.h</b>
           must contain a vendor-specific implementation of this function.
 */
__STATIC_INLINE uint32_t SysTick_Config(uint32_t ticks)
{
 8000a00:	b580      	push	{r7, lr}
 8000a02:	b082      	sub	sp, #8
 8000a04:	af00      	add	r7, sp, #0
 8000a06:	6078      	str	r0, [r7, #4]
  if ((ticks - 1UL) > SysTick_LOAD_RELOAD_Msk)
 8000a08:	687b      	ldr	r3, [r7, #4]
 8000a0a:	3b01      	subs	r3, #1
 8000a0c:	f1b3 7f80 	cmp.w	r3, #16777216	; 0x1000000
 8000a10:	d301      	bcc.n	8000a16 <SysTick_Config+0x16>
  {
    return (1UL);                                                   /* Reload value impossible */
 8000a12:	2301      	movs	r3, #1
 8000a14:	e00f      	b.n	8000a36 <SysTick_Config+0x36>
  }

  SysTick->LOAD  = (uint32_t)(ticks - 1UL);                         /* set reload register */
 8000a16:	4a0a      	ldr	r2, [pc, #40]	; (8000a40 <SysTick_Config+0x40>)
 8000a18:	687b      	ldr	r3, [r7, #4]
 8000a1a:	3b01      	subs	r3, #1
 8000a1c:	6053      	str	r3, [r2, #4]
  NVIC_SetPriority (SysTick_IRQn, (1UL << __NVIC_PRIO_BITS) - 1UL); /* set Priority for Systick Interrupt */
 8000a1e:	210f      	movs	r1, #15
 8000a20:	f04f 30ff 	mov.w	r0, #4294967295
 8000a24:	f7ff ffc2 	bl	80009ac <NVIC_SetPriority>
  SysTick->VAL   = 0UL;                                             /* Load the SysTick Counter Value */
 8000a28:	4b05      	ldr	r3, [pc, #20]	; (8000a40 <SysTick_Config+0x40>)
 8000a2a:	2200      	movs	r2, #0
 8000a2c:	609a      	str	r2, [r3, #8]
  SysTick->CTRL  = SysTick_CTRL_CLKSOURCE_Msk |
 8000a2e:	4b04      	ldr	r3, [pc, #16]	; (8000a40 <SysTick_Config+0x40>)
 8000a30:	2207      	movs	r2, #7
 8000a32:	601a      	str	r2, [r3, #0]
                   SysTick_CTRL_TICKINT_Msk   |
                   SysTick_CTRL_ENABLE_Msk;                         /* Enable SysTick IRQ and SysTick Timer */
  return (0UL);                                                     /* Function successful */
 8000a34:	2300      	movs	r3, #0
}
 8000a36:	4618      	mov	r0, r3
 8000a38:	3708      	adds	r7, #8
 8000a3a:	46bd      	mov	sp, r7
 8000a3c:	bd80      	pop	{r7, pc}
 8000a3e:	bf00      	nop
 8000a40:	e000e010 	.word	0xe000e010

08000a44 <SysTick_Handler>:

volatile uint32_t ticks = 0; // promìná která symbolizuje dobìhnutí hodin
// "volatile" znamená že kompilátor tuto promìnou nebude optimalizovat, to je tøeba, protože by jinak mohl kompilátor dojít k chybným závìrùm o fknci nìkterých programových konstrukcí a nesprávnì program optimalizovat

void SysTick_Handler(void) // tato funkce musí mít pøesnì takovýto název, jinak se pøi pøerušení volá defalutnì nastavená
{
 8000a44:	b480      	push	{r7}
 8000a46:	af00      	add	r7, sp, #0
	ticks++;
 8000a48:	4b04      	ldr	r3, [pc, #16]	; (8000a5c <SysTick_Handler+0x18>)
 8000a4a:	681b      	ldr	r3, [r3, #0]
 8000a4c:	3301      	adds	r3, #1
 8000a4e:	4a03      	ldr	r2, [pc, #12]	; (8000a5c <SysTick_Handler+0x18>)
 8000a50:	6013      	str	r3, [r2, #0]
}
 8000a52:	bf00      	nop
 8000a54:	46bd      	mov	sp, r7
 8000a56:	f85d 7b04 	ldr.w	r7, [sp], #4
 8000a5a:	4770      	bx	lr
 8000a5c:	20000020 	.word	0x20000020

08000a60 <main>:

int main(void) {
 8000a60:	b590      	push	{r4, r7, lr}
 8000a62:	b085      	sub	sp, #20
 8000a64:	af00      	add	r7, sp, #0

	uint32_t timeConstant = 50;
 8000a66:	2332      	movs	r3, #50	; 0x32
 8000a68:	60fb      	str	r3, [r7, #12]
	uint32_t apb2 = SystemCoreClock; //TODO dopln podle RCC
 8000a6a:	4ba3      	ldr	r3, [pc, #652]	; (8000cf8 <main+0x298>)
 8000a6c:	681b      	ldr	r3, [r3, #0]
 8000a6e:	607b      	str	r3, [r7, #4]
	uint8_t b = 0;
 8000a70:	2300      	movs	r3, #0
 8000a72:	72fb      	strb	r3, [r7, #11]

	SystemCoreClockUpdate();
 8000a74:	f000 fbd6 	bl	8001224 <SystemCoreClockUpdate>

	SysTick_Config(SystemCoreClock / 1000);
 8000a78:	4b9f      	ldr	r3, [pc, #636]	; (8000cf8 <main+0x298>)
 8000a7a:	681b      	ldr	r3, [r3, #0]
 8000a7c:	4a9f      	ldr	r2, [pc, #636]	; (8000cfc <main+0x29c>)
 8000a7e:	fba2 2303 	umull	r2, r3, r2, r3
 8000a82:	099b      	lsrs	r3, r3, #6
 8000a84:	4618      	mov	r0, r3
 8000a86:	f7ff ffbb 	bl	8000a00 <SysTick_Config>

	if (!(RCC->APB2ENR & RCC_APB2ENR_TIM1EN)) {
 8000a8a:	4b9d      	ldr	r3, [pc, #628]	; (8000d00 <main+0x2a0>)
 8000a8c:	6c5b      	ldr	r3, [r3, #68]	; 0x44
 8000a8e:	f003 0301 	and.w	r3, r3, #1
 8000a92:	2b00      	cmp	r3, #0
 8000a94:	d111      	bne.n	8000aba <main+0x5a>
		RCC->APB2ENR |= RCC_APB2ENR_TIM1EN;
 8000a96:	4a9a      	ldr	r2, [pc, #616]	; (8000d00 <main+0x2a0>)
 8000a98:	4b99      	ldr	r3, [pc, #612]	; (8000d00 <main+0x2a0>)
 8000a9a:	6c5b      	ldr	r3, [r3, #68]	; 0x44
 8000a9c:	f043 0301 	orr.w	r3, r3, #1
 8000aa0:	6453      	str	r3, [r2, #68]	; 0x44
		RCC->APB2RSTR |= RCC_APB2RSTR_TIM1RST;
 8000aa2:	4a97      	ldr	r2, [pc, #604]	; (8000d00 <main+0x2a0>)
 8000aa4:	4b96      	ldr	r3, [pc, #600]	; (8000d00 <main+0x2a0>)
 8000aa6:	6a5b      	ldr	r3, [r3, #36]	; 0x24
 8000aa8:	f043 0301 	orr.w	r3, r3, #1
 8000aac:	6253      	str	r3, [r2, #36]	; 0x24
		RCC->APB2RSTR &= ~RCC_APB2RSTR_TIM1RST;
 8000aae:	4a94      	ldr	r2, [pc, #592]	; (8000d00 <main+0x2a0>)
 8000ab0:	4b93      	ldr	r3, [pc, #588]	; (8000d00 <main+0x2a0>)
 8000ab2:	6a5b      	ldr	r3, [r3, #36]	; 0x24
 8000ab4:	f023 0301 	bic.w	r3, r3, #1
 8000ab8:	6253      	str	r3, [r2, #36]	; 0x24
	}

	TIM1->CR1 = 0 | TIM_CR1_ARPE;
 8000aba:	4b92      	ldr	r3, [pc, #584]	; (8000d04 <main+0x2a4>)
 8000abc:	2280      	movs	r2, #128	; 0x80
 8000abe:	601a      	str	r2, [r3, #0]
	TIM1->CR2 = 0;
 8000ac0:	4b90      	ldr	r3, [pc, #576]	; (8000d04 <main+0x2a4>)
 8000ac2:	2200      	movs	r2, #0
 8000ac4:	605a      	str	r2, [r3, #4]
	TIM1->PSC = apb2 / 1E6 - 1; // (1us)
 8000ac6:	4c8f      	ldr	r4, [pc, #572]	; (8000d04 <main+0x2a4>)
 8000ac8:	6878      	ldr	r0, [r7, #4]
 8000aca:	f7ff fcc7 	bl	800045c <__aeabi_ui2d>
 8000ace:	a388      	add	r3, pc, #544	; (adr r3, 8000cf0 <main+0x290>)
 8000ad0:	e9d3 2300 	ldrd	r2, r3, [r3]
 8000ad4:	f7ff fe62 	bl	800079c <__aeabi_ddiv>
 8000ad8:	4602      	mov	r2, r0
 8000ada:	460b      	mov	r3, r1
 8000adc:	4610      	mov	r0, r2
 8000ade:	4619      	mov	r1, r3
 8000ae0:	f04f 0200 	mov.w	r2, #0
 8000ae4:	4b88      	ldr	r3, [pc, #544]	; (8000d08 <main+0x2a8>)
 8000ae6:	f7ff fb7b 	bl	80001e0 <__aeabi_dsub>
 8000aea:	4602      	mov	r2, r0
 8000aec:	460b      	mov	r3, r1
 8000aee:	4610      	mov	r0, r2
 8000af0:	4619      	mov	r1, r3
 8000af2:	f7ff ff3b 	bl	800096c <__aeabi_d2uiz>
 8000af6:	4603      	mov	r3, r0
 8000af8:	62a3      	str	r3, [r4, #40]	; 0x28
	TIM1->ARR = 256 - 1; // (256us)
 8000afa:	4b82      	ldr	r3, [pc, #520]	; (8000d04 <main+0x2a4>)
 8000afc:	22ff      	movs	r2, #255	; 0xff
 8000afe:	62da      	str	r2, [r3, #44]	; 0x2c
	TIM1->CR1 = TIM_CR1_CEN;
 8000b00:	4b80      	ldr	r3, [pc, #512]	; (8000d04 <main+0x2a4>)
 8000b02:	2201      	movs	r2, #1
 8000b04:	601a      	str	r2, [r3, #0]

	TIM1->BDTR |= TIM_BDTR_MOE; //nutno nastavit, na jedna (povoluje OC výstupù), urèeno k jednoduchému odpojení motorových budièù
 8000b06:	4a7f      	ldr	r2, [pc, #508]	; (8000d04 <main+0x2a4>)
 8000b08:	4b7e      	ldr	r3, [pc, #504]	; (8000d04 <main+0x2a4>)
 8000b0a:	6c5b      	ldr	r3, [r3, #68]	; 0x44
 8000b0c:	f443 4300 	orr.w	r3, r3, #32768	; 0x8000
 8000b10:	6453      	str	r3, [r2, #68]	; 0x44

	GPIOConfigurePin(RGBLED_BLUE, ioPortAlternatrPushPull);
 8000b12:	2206      	movs	r2, #6
 8000b14:	210d      	movs	r1, #13
 8000b16:	487d      	ldr	r0, [pc, #500]	; (8000d0c <main+0x2ac>)
 8000b18:	f000 f956 	bl	8000dc8 <GPIOConfigurePin>
	GPIOConfigureAlternativFunction(RGBLED_BLUE, 1); // AF01 odpovida TIM1_CH1N
 8000b1c:	2201      	movs	r2, #1
 8000b1e:	210d      	movs	r1, #13
 8000b20:	487a      	ldr	r0, [pc, #488]	; (8000d0c <main+0x2ac>)
 8000b22:	f000 facf 	bl	80010c4 <GPIOConfigureAlternativFunction>

	TIM1->CCMR1 &= ~TIM_CCMR1_OC1M;
 8000b26:	4a77      	ldr	r2, [pc, #476]	; (8000d04 <main+0x2a4>)
 8000b28:	4b76      	ldr	r3, [pc, #472]	; (8000d04 <main+0x2a4>)
 8000b2a:	699b      	ldr	r3, [r3, #24]
 8000b2c:	f023 0370 	bic.w	r3, r3, #112	; 0x70
 8000b30:	6193      	str	r3, [r2, #24]
	TIM1->CCMR1 |= TIM_CCMR1_OC1M_2 | TIM_CCMR1_OC1M_1; // 110 – PWM 1
 8000b32:	4a74      	ldr	r2, [pc, #464]	; (8000d04 <main+0x2a4>)
 8000b34:	4b73      	ldr	r3, [pc, #460]	; (8000d04 <main+0x2a4>)
 8000b36:	699b      	ldr	r3, [r3, #24]
 8000b38:	f043 0360 	orr.w	r3, r3, #96	; 0x60
 8000b3c:	6193      	str	r3, [r2, #24]
	TIM1->CCER |= TIM_CCER_CC1NE; // povol komplementarni vystup
 8000b3e:	4a71      	ldr	r2, [pc, #452]	; (8000d04 <main+0x2a4>)
 8000b40:	4b70      	ldr	r3, [pc, #448]	; (8000d04 <main+0x2a4>)
 8000b42:	6a1b      	ldr	r3, [r3, #32]
 8000b44:	f043 0304 	orr.w	r3, r3, #4
 8000b48:	6213      	str	r3, [r2, #32]
	TIM1->CCR1 = 0; //TIM1->ARR / 2;
 8000b4a:	4b6e      	ldr	r3, [pc, #440]	; (8000d04 <main+0x2a4>)
 8000b4c:	2200      	movs	r2, #0
 8000b4e:	635a      	str	r2, [r3, #52]	; 0x34

	GPIOConfigurePin(RGBLED_GREEN, ioPortAlternatrPushPull);
 8000b50:	2206      	movs	r2, #6
 8000b52:	210e      	movs	r1, #14
 8000b54:	486d      	ldr	r0, [pc, #436]	; (8000d0c <main+0x2ac>)
 8000b56:	f000 f937 	bl	8000dc8 <GPIOConfigurePin>
	GPIOConfigureAlternativFunction(RGBLED_GREEN, 1); // AF01 odpovida TIM1_CH2N
 8000b5a:	2201      	movs	r2, #1
 8000b5c:	210e      	movs	r1, #14
 8000b5e:	486b      	ldr	r0, [pc, #428]	; (8000d0c <main+0x2ac>)
 8000b60:	f000 fab0 	bl	80010c4 <GPIOConfigureAlternativFunction>

	TIM1->CCMR1 &= ~TIM_CCMR1_OC2M;
 8000b64:	4a67      	ldr	r2, [pc, #412]	; (8000d04 <main+0x2a4>)
 8000b66:	4b67      	ldr	r3, [pc, #412]	; (8000d04 <main+0x2a4>)
 8000b68:	699b      	ldr	r3, [r3, #24]
 8000b6a:	f423 43e0 	bic.w	r3, r3, #28672	; 0x7000
 8000b6e:	6193      	str	r3, [r2, #24]
	TIM1->CCMR1 |= TIM_CCMR1_OC2M_2 | TIM_CCMR1_OC2M_1; // 110 - PWM 1
 8000b70:	4a64      	ldr	r2, [pc, #400]	; (8000d04 <main+0x2a4>)
 8000b72:	4b64      	ldr	r3, [pc, #400]	; (8000d04 <main+0x2a4>)
 8000b74:	699b      	ldr	r3, [r3, #24]
 8000b76:	f443 43c0 	orr.w	r3, r3, #24576	; 0x6000
 8000b7a:	6193      	str	r3, [r2, #24]
	TIM1->CCER |= TIM_CCER_CC2NE; // povol komplementarni vystup
 8000b7c:	4a61      	ldr	r2, [pc, #388]	; (8000d04 <main+0x2a4>)
 8000b7e:	4b61      	ldr	r3, [pc, #388]	; (8000d04 <main+0x2a4>)
 8000b80:	6a1b      	ldr	r3, [r3, #32]
 8000b82:	f043 0340 	orr.w	r3, r3, #64	; 0x40
 8000b86:	6213      	str	r3, [r2, #32]
	TIM1->CCR2 = 0; //TIM1->ARR / 2;
 8000b88:	4b5e      	ldr	r3, [pc, #376]	; (8000d04 <main+0x2a4>)
 8000b8a:	2200      	movs	r2, #0
 8000b8c:	639a      	str	r2, [r3, #56]	; 0x38

	GPIOConfigurePin(RGBLED_RED, ioPortAlternatrPushPull);
 8000b8e:	2206      	movs	r2, #6
 8000b90:	210f      	movs	r1, #15
 8000b92:	485e      	ldr	r0, [pc, #376]	; (8000d0c <main+0x2ac>)
 8000b94:	f000 f918 	bl	8000dc8 <GPIOConfigurePin>
	GPIOConfigureAlternativFunction(RGBLED_RED, 1); // AF01 odpovida TIM1_CH3N
 8000b98:	2201      	movs	r2, #1
 8000b9a:	210f      	movs	r1, #15
 8000b9c:	485b      	ldr	r0, [pc, #364]	; (8000d0c <main+0x2ac>)
 8000b9e:	f000 fa91 	bl	80010c4 <GPIOConfigureAlternativFunction>

	TIM1->CCMR2 &= ~TIM_CCMR2_OC3M;
 8000ba2:	4a58      	ldr	r2, [pc, #352]	; (8000d04 <main+0x2a4>)
 8000ba4:	4b57      	ldr	r3, [pc, #348]	; (8000d04 <main+0x2a4>)
 8000ba6:	69db      	ldr	r3, [r3, #28]
 8000ba8:	f023 0370 	bic.w	r3, r3, #112	; 0x70
 8000bac:	61d3      	str	r3, [r2, #28]
	TIM1->CCMR2 |= TIM_CCMR2_OC3M_2 | TIM_CCMR2_OC3M_1; // 110 - PWM 1
 8000bae:	4a55      	ldr	r2, [pc, #340]	; (8000d04 <main+0x2a4>)
 8000bb0:	4b54      	ldr	r3, [pc, #336]	; (8000d04 <main+0x2a4>)
 8000bb2:	69db      	ldr	r3, [r3, #28]
 8000bb4:	f043 0360 	orr.w	r3, r3, #96	; 0x60
 8000bb8:	61d3      	str	r3, [r2, #28]
	TIM1->CCER |= TIM_CCER_CC3NE; // povol komplementarni vystup
 8000bba:	4a52      	ldr	r2, [pc, #328]	; (8000d04 <main+0x2a4>)
 8000bbc:	4b51      	ldr	r3, [pc, #324]	; (8000d04 <main+0x2a4>)
 8000bbe:	6a1b      	ldr	r3, [r3, #32]
 8000bc0:	f443 6380 	orr.w	r3, r3, #1024	; 0x400
 8000bc4:	6213      	str	r3, [r2, #32]
	TIM1->CCR3 = 0; //TIM1->ARR / 2;
 8000bc6:	4b4f      	ldr	r3, [pc, #316]	; (8000d04 <main+0x2a4>)
 8000bc8:	2200      	movs	r2, #0
 8000bca:	63da      	str	r2, [r3, #60]	; 0x3c

	GPIOConfigurePin(BUTTON_BLUE, ioPortInputFloat);
 8000bcc:	2203      	movs	r2, #3
 8000bce:	210d      	movs	r1, #13
 8000bd0:	484f      	ldr	r0, [pc, #316]	; (8000d10 <main+0x2b0>)
 8000bd2:	f000 f8f9 	bl	8000dc8 <GPIOConfigurePin>
	GPIOConfigurePin(BUTTON_LEFT,ioPortInputFloat);
 8000bd6:	2203      	movs	r2, #3
 8000bd8:	2105      	movs	r1, #5
 8000bda:	484c      	ldr	r0, [pc, #304]	; (8000d0c <main+0x2ac>)
 8000bdc:	f000 f8f4 	bl	8000dc8 <GPIOConfigurePin>
	GPIOConfigurePin(BUTTON_RIGHT,ioPortInputFloat);
 8000be0:	2203      	movs	r2, #3
 8000be2:	2104      	movs	r1, #4
 8000be4:	4849      	ldr	r0, [pc, #292]	; (8000d0c <main+0x2ac>)
 8000be6:	f000 f8ef 	bl	8000dc8 <GPIOConfigurePin>


	bool red = false;
 8000bea:	2300      	movs	r3, #0
 8000bec:	72bb      	strb	r3, [r7, #10]
	bool green = false;
 8000bee:	2300      	movs	r3, #0
 8000bf0:	727b      	strb	r3, [r7, #9]
	bool blue = false;
 8000bf2:	2300      	movs	r3, #0
 8000bf4:	723b      	strb	r3, [r7, #8]

	while (1) {
		if (ticks >= timeConstant) {
 8000bf6:	4b47      	ldr	r3, [pc, #284]	; (8000d14 <main+0x2b4>)
 8000bf8:	681a      	ldr	r2, [r3, #0]
 8000bfa:	68fb      	ldr	r3, [r7, #12]
 8000bfc:	429a      	cmp	r2, r3
 8000bfe:	d3fa      	bcc.n	8000bf6 <main+0x196>
			timeConstant = ticks + 5; // 20ms
 8000c00:	4b44      	ldr	r3, [pc, #272]	; (8000d14 <main+0x2b4>)
 8000c02:	681b      	ldr	r3, [r3, #0]
 8000c04:	3305      	adds	r3, #5
 8000c06:	60fb      	str	r3, [r7, #12]
			b++;
 8000c08:	7afb      	ldrb	r3, [r7, #11]
 8000c0a:	3301      	adds	r3, #1
 8000c0c:	72fb      	strb	r3, [r7, #11]

			TIM1->CCR1 = b;
 8000c0e:	4a3d      	ldr	r2, [pc, #244]	; (8000d04 <main+0x2a4>)
 8000c10:	7afb      	ldrb	r3, [r7, #11]
 8000c12:	6353      	str	r3, [r2, #52]	; 0x34
			TIM1->CCR2 = b;
 8000c14:	4a3b      	ldr	r2, [pc, #236]	; (8000d04 <main+0x2a4>)
 8000c16:	7afb      	ldrb	r3, [r7, #11]
 8000c18:	6393      	str	r3, [r2, #56]	; 0x38
			TIM1->CCR3 = b;
 8000c1a:	4a3a      	ldr	r2, [pc, #232]	; (8000d04 <main+0x2a4>)
 8000c1c:	7afb      	ldrb	r3, [r7, #11]
 8000c1e:	63d3      	str	r3, [r2, #60]	; 0x3c

			if ((!red)&&(!green)&&(!blue)) {
 8000c20:	7abb      	ldrb	r3, [r7, #10]
 8000c22:	f083 0301 	eor.w	r3, r3, #1
 8000c26:	b2db      	uxtb	r3, r3
 8000c28:	2b00      	cmp	r3, #0
 8000c2a:	d00d      	beq.n	8000c48 <main+0x1e8>
 8000c2c:	7a7b      	ldrb	r3, [r7, #9]
 8000c2e:	f083 0301 	eor.w	r3, r3, #1
 8000c32:	b2db      	uxtb	r3, r3
 8000c34:	2b00      	cmp	r3, #0
 8000c36:	d007      	beq.n	8000c48 <main+0x1e8>
 8000c38:	7a3b      	ldrb	r3, [r7, #8]
 8000c3a:	f083 0301 	eor.w	r3, r3, #1
 8000c3e:	b2db      	uxtb	r3, r3
 8000c40:	2b00      	cmp	r3, #0
 8000c42:	d001      	beq.n	8000c48 <main+0x1e8>
				b = 0;
 8000c44:	2300      	movs	r3, #0
 8000c46:	72fb      	strb	r3, [r7, #11]
			}
			if (!red) {
 8000c48:	7abb      	ldrb	r3, [r7, #10]
 8000c4a:	f083 0301 	eor.w	r3, r3, #1
 8000c4e:	b2db      	uxtb	r3, r3
 8000c50:	2b00      	cmp	r3, #0
 8000c52:	d003      	beq.n	8000c5c <main+0x1fc>
				TIM1->CCR3 = 0;
 8000c54:	4b2b      	ldr	r3, [pc, #172]	; (8000d04 <main+0x2a4>)
 8000c56:	2200      	movs	r2, #0
 8000c58:	63da      	str	r2, [r3, #60]	; 0x3c
 8000c5a:	e002      	b.n	8000c62 <main+0x202>
			} else {
				TIM1->CCR3 = b;
 8000c5c:	4a29      	ldr	r2, [pc, #164]	; (8000d04 <main+0x2a4>)
 8000c5e:	7afb      	ldrb	r3, [r7, #11]
 8000c60:	63d3      	str	r3, [r2, #60]	; 0x3c
			}
			if (!blue) {
 8000c62:	7a3b      	ldrb	r3, [r7, #8]
 8000c64:	f083 0301 	eor.w	r3, r3, #1
 8000c68:	b2db      	uxtb	r3, r3
 8000c6a:	2b00      	cmp	r3, #0
 8000c6c:	d003      	beq.n	8000c76 <main+0x216>
				TIM1->CCR1 = 0;
 8000c6e:	4b25      	ldr	r3, [pc, #148]	; (8000d04 <main+0x2a4>)
 8000c70:	2200      	movs	r2, #0
 8000c72:	635a      	str	r2, [r3, #52]	; 0x34
 8000c74:	e002      	b.n	8000c7c <main+0x21c>
			} else {
				TIM1->CCR1 = b;
 8000c76:	4a23      	ldr	r2, [pc, #140]	; (8000d04 <main+0x2a4>)
 8000c78:	7afb      	ldrb	r3, [r7, #11]
 8000c7a:	6353      	str	r3, [r2, #52]	; 0x34
			}
			if (!green) {
 8000c7c:	7a7b      	ldrb	r3, [r7, #9]
 8000c7e:	f083 0301 	eor.w	r3, r3, #1
 8000c82:	b2db      	uxtb	r3, r3
 8000c84:	2b00      	cmp	r3, #0
 8000c86:	d003      	beq.n	8000c90 <main+0x230>
				TIM1->CCR2 = 0;
 8000c88:	4b1e      	ldr	r3, [pc, #120]	; (8000d04 <main+0x2a4>)
 8000c8a:	2200      	movs	r2, #0
 8000c8c:	639a      	str	r2, [r3, #56]	; 0x38
 8000c8e:	e002      	b.n	8000c96 <main+0x236>
			} else {
				TIM1->CCR2 = b;
 8000c90:	4a1c      	ldr	r2, [pc, #112]	; (8000d04 <main+0x2a4>)
 8000c92:	7afb      	ldrb	r3, [r7, #11]
 8000c94:	6393      	str	r3, [r2, #56]	; 0x38
			}

			if (!GPIORead(BUTTON_BLUE)) {
 8000c96:	210d      	movs	r1, #13
 8000c98:	481d      	ldr	r0, [pc, #116]	; (8000d10 <main+0x2b0>)
 8000c9a:	f000 fa4e 	bl	800113a <GPIORead>
 8000c9e:	4603      	mov	r3, r0
 8000ca0:	f083 0301 	eor.w	r3, r3, #1
 8000ca4:	b2db      	uxtb	r3, r3
 8000ca6:	2b00      	cmp	r3, #0
 8000ca8:	d012      	beq.n	8000cd0 <main+0x270>
				if (blue) {
 8000caa:	7a3b      	ldrb	r3, [r7, #8]
 8000cac:	2b00      	cmp	r3, #0
 8000cae:	d002      	beq.n	8000cb6 <main+0x256>
					blue = false;
 8000cb0:	2300      	movs	r3, #0
 8000cb2:	723b      	strb	r3, [r7, #8]
 8000cb4:	e001      	b.n	8000cba <main+0x25a>
				} else {
					blue = true;
 8000cb6:	2301      	movs	r3, #1
 8000cb8:	723b      	strb	r3, [r7, #8]
				}
				while (!GPIORead(BUTTON_BLUE))
 8000cba:	bf00      	nop
 8000cbc:	210d      	movs	r1, #13
 8000cbe:	4814      	ldr	r0, [pc, #80]	; (8000d10 <main+0x2b0>)
 8000cc0:	f000 fa3b 	bl	800113a <GPIORead>
 8000cc4:	4603      	mov	r3, r0
 8000cc6:	f083 0301 	eor.w	r3, r3, #1
 8000cca:	b2db      	uxtb	r3, r3
 8000ccc:	2b00      	cmp	r3, #0
 8000cce:	d1f5      	bne.n	8000cbc <main+0x25c>
					;
			}
			if (!GPIORead(BUTTON_LEFT)) {
 8000cd0:	2105      	movs	r1, #5
 8000cd2:	480e      	ldr	r0, [pc, #56]	; (8000d0c <main+0x2ac>)
 8000cd4:	f000 fa31 	bl	800113a <GPIORead>
 8000cd8:	4603      	mov	r3, r0
 8000cda:	f083 0301 	eor.w	r3, r3, #1
 8000cde:	b2db      	uxtb	r3, r3
 8000ce0:	2b00      	cmp	r3, #0
 8000ce2:	d026      	beq.n	8000d32 <main+0x2d2>
				if (green) {
 8000ce4:	7a7b      	ldrb	r3, [r7, #9]
 8000ce6:	2b00      	cmp	r3, #0
 8000ce8:	d016      	beq.n	8000d18 <main+0x2b8>
					green = false;
 8000cea:	2300      	movs	r3, #0
 8000cec:	727b      	strb	r3, [r7, #9]
 8000cee:	e015      	b.n	8000d1c <main+0x2bc>
 8000cf0:	00000000 	.word	0x00000000
 8000cf4:	412e8480 	.word	0x412e8480
 8000cf8:	20000000 	.word	0x20000000
 8000cfc:	10624dd3 	.word	0x10624dd3
 8000d00:	40023800 	.word	0x40023800
 8000d04:	40010000 	.word	0x40010000
 8000d08:	3ff00000 	.word	0x3ff00000
 8000d0c:	40020400 	.word	0x40020400
 8000d10:	40020800 	.word	0x40020800
 8000d14:	20000020 	.word	0x20000020
				} else {
					green = true;
 8000d18:	2301      	movs	r3, #1
 8000d1a:	727b      	strb	r3, [r7, #9]
				}
				while (!GPIORead(BUTTON_LEFT))
 8000d1c:	bf00      	nop
 8000d1e:	2105      	movs	r1, #5
 8000d20:	4813      	ldr	r0, [pc, #76]	; (8000d70 <main+0x310>)
 8000d22:	f000 fa0a 	bl	800113a <GPIORead>
 8000d26:	4603      	mov	r3, r0
 8000d28:	f083 0301 	eor.w	r3, r3, #1
 8000d2c:	b2db      	uxtb	r3, r3
 8000d2e:	2b00      	cmp	r3, #0
 8000d30:	d1f5      	bne.n	8000d1e <main+0x2be>
					;
			}
			if (!GPIORead(BUTTON_RIGHT)) {
 8000d32:	2104      	movs	r1, #4
 8000d34:	480e      	ldr	r0, [pc, #56]	; (8000d70 <main+0x310>)
 8000d36:	f000 fa00 	bl	800113a <GPIORead>
 8000d3a:	4603      	mov	r3, r0
 8000d3c:	f083 0301 	eor.w	r3, r3, #1
 8000d40:	b2db      	uxtb	r3, r3
 8000d42:	2b00      	cmp	r3, #0
 8000d44:	f43f af57 	beq.w	8000bf6 <main+0x196>
				if (red) {
 8000d48:	7abb      	ldrb	r3, [r7, #10]
 8000d4a:	2b00      	cmp	r3, #0
 8000d4c:	d002      	beq.n	8000d54 <main+0x2f4>
					red = false;
 8000d4e:	2300      	movs	r3, #0
 8000d50:	72bb      	strb	r3, [r7, #10]
 8000d52:	e001      	b.n	8000d58 <main+0x2f8>
				} else {
					red = true;
 8000d54:	2301      	movs	r3, #1
 8000d56:	72bb      	strb	r3, [r7, #10]
				}
				while (!GPIORead(BUTTON_RIGHT))
 8000d58:	bf00      	nop
 8000d5a:	2104      	movs	r1, #4
 8000d5c:	4804      	ldr	r0, [pc, #16]	; (8000d70 <main+0x310>)
 8000d5e:	f000 f9ec 	bl	800113a <GPIORead>
 8000d62:	4603      	mov	r3, r0
 8000d64:	f083 0301 	eor.w	r3, r3, #1
 8000d68:	b2db      	uxtb	r3, r3
 8000d6a:	2b00      	cmp	r3, #0
 8000d6c:	d1f5      	bne.n	8000d5a <main+0x2fa>
		if (ticks >= timeConstant) {
 8000d6e:	e742      	b.n	8000bf6 <main+0x196>
 8000d70:	40020400 	.word	0x40020400

08000d74 <Reset_Handler>:

    .section  .text.Reset_Handler
  .weak  Reset_Handler
  .type  Reset_Handler, %function
Reset_Handler:  
  ldr   sp, =_estack    		 /* set stack pointer */
 8000d74:	f8df d034 	ldr.w	sp, [pc, #52]	; 8000dac <LoopFillZerobss+0x14>

/* Copy the data segment initializers from flash to SRAM */  
  movs  r1, #0
 8000d78:	2100      	movs	r1, #0
  b  LoopCopyDataInit
 8000d7a:	e003      	b.n	8000d84 <LoopCopyDataInit>

08000d7c <CopyDataInit>:

CopyDataInit:
  ldr  r3, =_sidata
 8000d7c:	4b0c      	ldr	r3, [pc, #48]	; (8000db0 <LoopFillZerobss+0x18>)
  ldr  r3, [r3, r1]
 8000d7e:	585b      	ldr	r3, [r3, r1]
  str  r3, [r0, r1]
 8000d80:	5043      	str	r3, [r0, r1]
  adds  r1, r1, #4
 8000d82:	3104      	adds	r1, #4

08000d84 <LoopCopyDataInit>:
    
LoopCopyDataInit:
  ldr  r0, =_sdata
 8000d84:	480b      	ldr	r0, [pc, #44]	; (8000db4 <LoopFillZerobss+0x1c>)
  ldr  r3, =_edata
 8000d86:	4b0c      	ldr	r3, [pc, #48]	; (8000db8 <LoopFillZerobss+0x20>)
  adds  r2, r0, r1
 8000d88:	1842      	adds	r2, r0, r1
  cmp  r2, r3
 8000d8a:	429a      	cmp	r2, r3
  bcc  CopyDataInit
 8000d8c:	d3f6      	bcc.n	8000d7c <CopyDataInit>
  ldr  r2, =_sbss
 8000d8e:	4a0b      	ldr	r2, [pc, #44]	; (8000dbc <LoopFillZerobss+0x24>)
  b  LoopFillZerobss
 8000d90:	e002      	b.n	8000d98 <LoopFillZerobss>

08000d92 <FillZerobss>:
/* Zero fill the bss segment. */  
FillZerobss:
  movs  r3, #0
 8000d92:	2300      	movs	r3, #0
  str  r3, [r2], #4
 8000d94:	f842 3b04 	str.w	r3, [r2], #4

08000d98 <LoopFillZerobss>:
    
LoopFillZerobss:
  ldr  r3, = _ebss
 8000d98:	4b09      	ldr	r3, [pc, #36]	; (8000dc0 <LoopFillZerobss+0x28>)
  cmp  r2, r3
 8000d9a:	429a      	cmp	r2, r3
  bcc  FillZerobss
 8000d9c:	d3f9      	bcc.n	8000d92 <FillZerobss>

/* Call the clock system intitialization function.*/
  bl  SystemInit   
 8000d9e:	f000 fa0b 	bl	80011b8 <SystemInit>
/* Call static constructors */
    bl __libc_init_array
 8000da2:	f000 fab9 	bl	8001318 <__libc_init_array>
/* Call the application's entry point.*/
  bl  main
 8000da6:	f7ff fe5b 	bl	8000a60 <main>
  bx  lr    
 8000daa:	4770      	bx	lr
  ldr   sp, =_estack    		 /* set stack pointer */
 8000dac:	20020000 	.word	0x20020000
  ldr  r3, =_sidata
 8000db0:	08001390 	.word	0x08001390
  ldr  r0, =_sdata
 8000db4:	20000000 	.word	0x20000000
  ldr  r3, =_edata
 8000db8:	20000004 	.word	0x20000004
  ldr  r2, =_sbss
 8000dbc:	20000004 	.word	0x20000004
  ldr  r3, = _ebss
 8000dc0:	20000024 	.word	0x20000024

08000dc4 <ADC_IRQHandler>:
 * @retval None       
*/
    .section  .text.Default_Handler,"ax",%progbits
Default_Handler:
Infinite_Loop:
  b  Infinite_Loop
 8000dc4:	e7fe      	b.n	8000dc4 <ADC_IRQHandler>
	...

08000dc8 <GPIOConfigurePin>:
 *      Author: Lapunik
 */
#include "stm_core.h"

bool GPIOConfigurePin(GPIO_TypeDef *gpio,uint32_t bitNumber, ioPortMode mode) // konfigurace GPIO do pøedpøipravených stavù
{
 8000dc8:	b480      	push	{r7}
 8000dca:	b087      	sub	sp, #28
 8000dcc:	af00      	add	r7, sp, #0
 8000dce:	60f8      	str	r0, [r7, #12]
 8000dd0:	60b9      	str	r1, [r7, #8]
 8000dd2:	4613      	mov	r3, r2
 8000dd4:	71fb      	strb	r3, [r7, #7]

	uint32_t enableMask = 0;
 8000dd6:	2300      	movs	r3, #0
 8000dd8:	617b      	str	r3, [r7, #20]
	uint32_t resetMask = 0;
 8000dda:	2300      	movs	r3, #0
 8000ddc:	613b      	str	r3, [r7, #16]

	switch((uint32_t)gpio) // je potøeba zapnout hodiny podle toho který gpio chceme vyuzivat => ulozime bity pro reset a pro zapnuti do masek a pote masku aplikujeme
 8000dde:	68fb      	ldr	r3, [r7, #12]
 8000de0:	4a99      	ldr	r2, [pc, #612]	; (8001048 <GPIOConfigurePin+0x280>)
 8000de2:	4293      	cmp	r3, r2
 8000de4:	d01d      	beq.n	8000e22 <GPIOConfigurePin+0x5a>
 8000de6:	4a98      	ldr	r2, [pc, #608]	; (8001048 <GPIOConfigurePin+0x280>)
 8000de8:	4293      	cmp	r3, r2
 8000dea:	d806      	bhi.n	8000dfa <GPIOConfigurePin+0x32>
 8000dec:	4a97      	ldr	r2, [pc, #604]	; (800104c <GPIOConfigurePin+0x284>)
 8000dee:	4293      	cmp	r3, r2
 8000df0:	d00d      	beq.n	8000e0e <GPIOConfigurePin+0x46>
 8000df2:	4a97      	ldr	r2, [pc, #604]	; (8001050 <GPIOConfigurePin+0x288>)
 8000df4:	4293      	cmp	r3, r2
 8000df6:	d00f      	beq.n	8000e18 <GPIOConfigurePin+0x50>
 8000df8:	e027      	b.n	8000e4a <GPIOConfigurePin+0x82>
 8000dfa:	4a96      	ldr	r2, [pc, #600]	; (8001054 <GPIOConfigurePin+0x28c>)
 8000dfc:	4293      	cmp	r3, r2
 8000dfe:	d01a      	beq.n	8000e36 <GPIOConfigurePin+0x6e>
 8000e00:	4a95      	ldr	r2, [pc, #596]	; (8001058 <GPIOConfigurePin+0x290>)
 8000e02:	4293      	cmp	r3, r2
 8000e04:	d01c      	beq.n	8000e40 <GPIOConfigurePin+0x78>
 8000e06:	4a95      	ldr	r2, [pc, #596]	; (800105c <GPIOConfigurePin+0x294>)
 8000e08:	4293      	cmp	r3, r2
 8000e0a:	d00f      	beq.n	8000e2c <GPIOConfigurePin+0x64>
 8000e0c:	e01d      	b.n	8000e4a <GPIOConfigurePin+0x82>
	{
	case (uint32_t)GPIOA: // GPIOA je definovana konstanta ve formátu "ukazatel", proto msím pøetypovat na celoèíselnou hodnotu
        enableMask = RCC_AHB1ENR_GPIOAEN;
 8000e0e:	2301      	movs	r3, #1
 8000e10:	617b      	str	r3, [r7, #20]
        resetMask = RCC_AHB1RSTR_GPIOARST;
 8000e12:	2301      	movs	r3, #1
 8000e14:	613b      	str	r3, [r7, #16]
	break;
 8000e16:	e018      	b.n	8000e4a <GPIOConfigurePin+0x82>

	case (uint32_t)GPIOB:
        enableMask = RCC_AHB1ENR_GPIOBEN;
 8000e18:	2302      	movs	r3, #2
 8000e1a:	617b      	str	r3, [r7, #20]
        resetMask = RCC_AHB1RSTR_GPIOBRST;
 8000e1c:	2302      	movs	r3, #2
 8000e1e:	613b      	str	r3, [r7, #16]
	break;
 8000e20:	e013      	b.n	8000e4a <GPIOConfigurePin+0x82>

	case (uint32_t)GPIOC:
        enableMask = RCC_AHB1ENR_GPIOCEN;
 8000e22:	2304      	movs	r3, #4
 8000e24:	617b      	str	r3, [r7, #20]
        resetMask = RCC_AHB1RSTR_GPIOCRST;
 8000e26:	2304      	movs	r3, #4
 8000e28:	613b      	str	r3, [r7, #16]
	break;
 8000e2a:	e00e      	b.n	8000e4a <GPIOConfigurePin+0x82>

	case (uint32_t)GPIOD:
        enableMask = RCC_AHB1ENR_GPIODEN;
 8000e2c:	2308      	movs	r3, #8
 8000e2e:	617b      	str	r3, [r7, #20]
        resetMask = RCC_AHB1RSTR_GPIODRST;
 8000e30:	2308      	movs	r3, #8
 8000e32:	613b      	str	r3, [r7, #16]
	break;
 8000e34:	e009      	b.n	8000e4a <GPIOConfigurePin+0x82>

	case (uint32_t)GPIOE:
        enableMask = RCC_AHB1ENR_GPIOEEN;
 8000e36:	2310      	movs	r3, #16
 8000e38:	617b      	str	r3, [r7, #20]
        resetMask = RCC_AHB1RSTR_GPIOERST;
 8000e3a:	2310      	movs	r3, #16
 8000e3c:	613b      	str	r3, [r7, #16]
	break;
 8000e3e:	e004      	b.n	8000e4a <GPIOConfigurePin+0x82>
        enableMask = RCC_AHB1ENR_GPIOGEN;
        resetMask = RCC_AHB1RSTR_GPIOGRST;
	break;
#endif
	case (uint32_t)GPIOH:
        enableMask = RCC_AHB1ENR_GPIOHEN;
 8000e40:	2380      	movs	r3, #128	; 0x80
 8000e42:	617b      	str	r3, [r7, #20]
        resetMask = RCC_AHB1RSTR_GPIOHRST;
 8000e44:	2380      	movs	r3, #128	; 0x80
 8000e46:	613b      	str	r3, [r7, #16]
	break;
 8000e48:	bf00      	nop

	}

	if((resetMask == 0)||(enableMask == 0)) // pokud se do masek neuložila žádná hodnota, ukonèi konfiguraci a vrat zpravu false o neúspìchu
 8000e4a:	693b      	ldr	r3, [r7, #16]
 8000e4c:	2b00      	cmp	r3, #0
 8000e4e:	d002      	beq.n	8000e56 <GPIOConfigurePin+0x8e>
 8000e50:	697b      	ldr	r3, [r7, #20]
 8000e52:	2b00      	cmp	r3, #0
 8000e54:	d101      	bne.n	8000e5a <GPIOConfigurePin+0x92>
	{
		return false;
 8000e56:	2300      	movs	r3, #0
 8000e58:	e12d      	b.n	80010b6 <GPIOConfigurePin+0x2ee>
	}
	else
	{
		  if(!(RCC -> AHB1ENR & enableMask)) // jestliže nejsou masky prázdné, použi je pro nastavení hodin
 8000e5a:	4b81      	ldr	r3, [pc, #516]	; (8001060 <GPIOConfigurePin+0x298>)
 8000e5c:	6b1a      	ldr	r2, [r3, #48]	; 0x30
 8000e5e:	697b      	ldr	r3, [r7, #20]
 8000e60:	4013      	ands	r3, r2
 8000e62:	2b00      	cmp	r3, #0
 8000e64:	d112      	bne.n	8000e8c <GPIOConfigurePin+0xc4>
		  {
		    RCC->AHB1ENR |= enableMask;
 8000e66:	497e      	ldr	r1, [pc, #504]	; (8001060 <GPIOConfigurePin+0x298>)
 8000e68:	4b7d      	ldr	r3, [pc, #500]	; (8001060 <GPIOConfigurePin+0x298>)
 8000e6a:	6b1a      	ldr	r2, [r3, #48]	; 0x30
 8000e6c:	697b      	ldr	r3, [r7, #20]
 8000e6e:	4313      	orrs	r3, r2
 8000e70:	630b      	str	r3, [r1, #48]	; 0x30
		    RCC->AHB1RSTR |= resetMask;
 8000e72:	497b      	ldr	r1, [pc, #492]	; (8001060 <GPIOConfigurePin+0x298>)
 8000e74:	4b7a      	ldr	r3, [pc, #488]	; (8001060 <GPIOConfigurePin+0x298>)
 8000e76:	691a      	ldr	r2, [r3, #16]
 8000e78:	693b      	ldr	r3, [r7, #16]
 8000e7a:	4313      	orrs	r3, r2
 8000e7c:	610b      	str	r3, [r1, #16]
		    RCC->AHB1RSTR &= ~resetMask;
 8000e7e:	4978      	ldr	r1, [pc, #480]	; (8001060 <GPIOConfigurePin+0x298>)
 8000e80:	4b77      	ldr	r3, [pc, #476]	; (8001060 <GPIOConfigurePin+0x298>)
 8000e82:	691a      	ldr	r2, [r3, #16]
 8000e84:	693b      	ldr	r3, [r7, #16]
 8000e86:	43db      	mvns	r3, r3
 8000e88:	4013      	ands	r3, r2
 8000e8a:	610b      	str	r3, [r1, #16]
		  }
	}

gpio -> MODER &= ~(0x03 << (bitNumber*2)); // vynulovani zdvojených bitu pøed nastavováním (kdyby nìkde byla kombinace 10 a já tam ORoval 01 tak vysledna kombinace je 11 misto 01)...u registru kde se nastavuje pouze jeden bit toho nehrozí
 8000e8c:	68fb      	ldr	r3, [r7, #12]
 8000e8e:	681b      	ldr	r3, [r3, #0]
 8000e90:	68ba      	ldr	r2, [r7, #8]
 8000e92:	0052      	lsls	r2, r2, #1
 8000e94:	2103      	movs	r1, #3
 8000e96:	fa01 f202 	lsl.w	r2, r1, r2
 8000e9a:	43d2      	mvns	r2, r2
 8000e9c:	401a      	ands	r2, r3
 8000e9e:	68fb      	ldr	r3, [r7, #12]
 8000ea0:	601a      	str	r2, [r3, #0]
gpio -> PUPDR &= ~(0x03 << (bitNumber*2));
 8000ea2:	68fb      	ldr	r3, [r7, #12]
 8000ea4:	68db      	ldr	r3, [r3, #12]
 8000ea6:	68ba      	ldr	r2, [r7, #8]
 8000ea8:	0052      	lsls	r2, r2, #1
 8000eaa:	2103      	movs	r1, #3
 8000eac:	fa01 f202 	lsl.w	r2, r1, r2
 8000eb0:	43d2      	mvns	r2, r2
 8000eb2:	401a      	ands	r2, r3
 8000eb4:	68fb      	ldr	r3, [r7, #12]
 8000eb6:	60da      	str	r2, [r3, #12]
gpio -> OSPEEDR &= ~(0x03 << (bitNumber*2));
 8000eb8:	68fb      	ldr	r3, [r7, #12]
 8000eba:	689b      	ldr	r3, [r3, #8]
 8000ebc:	68ba      	ldr	r2, [r7, #8]
 8000ebe:	0052      	lsls	r2, r2, #1
 8000ec0:	2103      	movs	r1, #3
 8000ec2:	fa01 f202 	lsl.w	r2, r1, r2
 8000ec6:	43d2      	mvns	r2, r2
 8000ec8:	401a      	ands	r2, r3
 8000eca:	68fb      	ldr	r3, [r7, #12]
 8000ecc:	609a      	str	r2, [r3, #8]


switch(mode)
 8000ece:	79fb      	ldrb	r3, [r7, #7]
 8000ed0:	2b07      	cmp	r3, #7
 8000ed2:	f200 80ef 	bhi.w	80010b4 <GPIOConfigurePin+0x2ec>
 8000ed6:	a201      	add	r2, pc, #4	; (adr r2, 8000edc <GPIOConfigurePin+0x114>)
 8000ed8:	f852 f023 	ldr.w	pc, [r2, r3, lsl #2]
 8000edc:	08000efd 	.word	0x08000efd
 8000ee0:	08000f4f 	.word	0x08000f4f
 8000ee4:	08000f9f 	.word	0x08000f9f
 8000ee8:	08000fb5 	.word	0x08000fb5
 8000eec:	08000fcb 	.word	0x08000fcb
 8000ef0:	08000fe1 	.word	0x08000fe1
 8000ef4:	08000ff7 	.word	0x08000ff7
 8000ef8:	08001065 	.word	0x08001065
{
case ioPortOutputPushPull:

	gpio->MODER |= 0x01<<(2*bitNumber); // output
 8000efc:	68fb      	ldr	r3, [r7, #12]
 8000efe:	681b      	ldr	r3, [r3, #0]
 8000f00:	68ba      	ldr	r2, [r7, #8]
 8000f02:	0052      	lsls	r2, r2, #1
 8000f04:	2101      	movs	r1, #1
 8000f06:	fa01 f202 	lsl.w	r2, r1, r2
 8000f0a:	431a      	orrs	r2, r3
 8000f0c:	68fb      	ldr	r3, [r7, #12]
 8000f0e:	601a      	str	r2, [r3, #0]
	gpio->OTYPER &= ~(0x01<<bitNumber); // push-pull
 8000f10:	68fb      	ldr	r3, [r7, #12]
 8000f12:	685b      	ldr	r3, [r3, #4]
 8000f14:	2101      	movs	r1, #1
 8000f16:	68ba      	ldr	r2, [r7, #8]
 8000f18:	fa01 f202 	lsl.w	r2, r1, r2
 8000f1c:	43d2      	mvns	r2, r2
 8000f1e:	401a      	ands	r2, r3
 8000f20:	68fb      	ldr	r3, [r7, #12]
 8000f22:	605a      	str	r2, [r3, #4]
	gpio->OSPEEDR |= 0x03<<(2*bitNumber); // height speed
 8000f24:	68fb      	ldr	r3, [r7, #12]
 8000f26:	689b      	ldr	r3, [r3, #8]
 8000f28:	68ba      	ldr	r2, [r7, #8]
 8000f2a:	0052      	lsls	r2, r2, #1
 8000f2c:	2103      	movs	r1, #3
 8000f2e:	fa01 f202 	lsl.w	r2, r1, r2
 8000f32:	431a      	orrs	r2, r3
 8000f34:	68fb      	ldr	r3, [r7, #12]
 8000f36:	609a      	str	r2, [r3, #8]
	gpio->PUPDR &= ~(0x03<<bitNumber); // no pull up, no pull down
 8000f38:	68fb      	ldr	r3, [r7, #12]
 8000f3a:	68db      	ldr	r3, [r3, #12]
 8000f3c:	2103      	movs	r1, #3
 8000f3e:	68ba      	ldr	r2, [r7, #8]
 8000f40:	fa01 f202 	lsl.w	r2, r1, r2
 8000f44:	43d2      	mvns	r2, r2
 8000f46:	401a      	ands	r2, r3
 8000f48:	68fb      	ldr	r3, [r7, #12]
 8000f4a:	60da      	str	r2, [r3, #12]
    break;
 8000f4c:	e0b2      	b.n	80010b4 <GPIOConfigurePin+0x2ec>

case ioPortOutputOpenDrain:

	gpio->MODER |= 0x01<<(2*bitNumber); // output
 8000f4e:	68fb      	ldr	r3, [r7, #12]
 8000f50:	681b      	ldr	r3, [r3, #0]
 8000f52:	68ba      	ldr	r2, [r7, #8]
 8000f54:	0052      	lsls	r2, r2, #1
 8000f56:	2101      	movs	r1, #1
 8000f58:	fa01 f202 	lsl.w	r2, r1, r2
 8000f5c:	431a      	orrs	r2, r3
 8000f5e:	68fb      	ldr	r3, [r7, #12]
 8000f60:	601a      	str	r2, [r3, #0]
	gpio->OTYPER |= (0x01<<bitNumber); // open drain
 8000f62:	68fb      	ldr	r3, [r7, #12]
 8000f64:	685b      	ldr	r3, [r3, #4]
 8000f66:	2101      	movs	r1, #1
 8000f68:	68ba      	ldr	r2, [r7, #8]
 8000f6a:	fa01 f202 	lsl.w	r2, r1, r2
 8000f6e:	431a      	orrs	r2, r3
 8000f70:	68fb      	ldr	r3, [r7, #12]
 8000f72:	605a      	str	r2, [r3, #4]
	gpio->OSPEEDR |= 0x03<<(2*bitNumber); // height speed
 8000f74:	68fb      	ldr	r3, [r7, #12]
 8000f76:	689b      	ldr	r3, [r3, #8]
 8000f78:	68ba      	ldr	r2, [r7, #8]
 8000f7a:	0052      	lsls	r2, r2, #1
 8000f7c:	2103      	movs	r1, #3
 8000f7e:	fa01 f202 	lsl.w	r2, r1, r2
 8000f82:	431a      	orrs	r2, r3
 8000f84:	68fb      	ldr	r3, [r7, #12]
 8000f86:	609a      	str	r2, [r3, #8]
	gpio->PUPDR &= ~(0x03<<bitNumber); // no pull up, no pull down
 8000f88:	68fb      	ldr	r3, [r7, #12]
 8000f8a:	68db      	ldr	r3, [r3, #12]
 8000f8c:	2103      	movs	r1, #3
 8000f8e:	68ba      	ldr	r2, [r7, #8]
 8000f90:	fa01 f202 	lsl.w	r2, r1, r2
 8000f94:	43d2      	mvns	r2, r2
 8000f96:	401a      	ands	r2, r3
 8000f98:	68fb      	ldr	r3, [r7, #12]
 8000f9a:	60da      	str	r2, [r3, #12]
    break;
 8000f9c:	e08a      	b.n	80010b4 <GPIOConfigurePin+0x2ec>

case ioPortAnalog:

	gpio->MODER |= 0x03<<(2*bitNumber); // analog
 8000f9e:	68fb      	ldr	r3, [r7, #12]
 8000fa0:	681b      	ldr	r3, [r3, #0]
 8000fa2:	68ba      	ldr	r2, [r7, #8]
 8000fa4:	0052      	lsls	r2, r2, #1
 8000fa6:	2103      	movs	r1, #3
 8000fa8:	fa01 f202 	lsl.w	r2, r1, r2
 8000fac:	431a      	orrs	r2, r3
 8000fae:	68fb      	ldr	r3, [r7, #12]
 8000fb0:	601a      	str	r2, [r3, #0]
    break;
 8000fb2:	e07f      	b.n	80010b4 <GPIOConfigurePin+0x2ec>

case ioPortInputFloat:

	gpio->PUPDR &= ~(0x03<<bitNumber); // no pull up, no pull down
 8000fb4:	68fb      	ldr	r3, [r7, #12]
 8000fb6:	68db      	ldr	r3, [r3, #12]
 8000fb8:	2103      	movs	r1, #3
 8000fba:	68ba      	ldr	r2, [r7, #8]
 8000fbc:	fa01 f202 	lsl.w	r2, r1, r2
 8000fc0:	43d2      	mvns	r2, r2
 8000fc2:	401a      	ands	r2, r3
 8000fc4:	68fb      	ldr	r3, [r7, #12]
 8000fc6:	60da      	str	r2, [r3, #12]
    break;
 8000fc8:	e074      	b.n	80010b4 <GPIOConfigurePin+0x2ec>

case ioPortInputPullUp:

	gpio->PUPDR |= ~(0x01<<bitNumber); // pull up
 8000fca:	68fb      	ldr	r3, [r7, #12]
 8000fcc:	68db      	ldr	r3, [r3, #12]
 8000fce:	2101      	movs	r1, #1
 8000fd0:	68ba      	ldr	r2, [r7, #8]
 8000fd2:	fa01 f202 	lsl.w	r2, r1, r2
 8000fd6:	43d2      	mvns	r2, r2
 8000fd8:	431a      	orrs	r2, r3
 8000fda:	68fb      	ldr	r3, [r7, #12]
 8000fdc:	60da      	str	r2, [r3, #12]
    break;
 8000fde:	e069      	b.n	80010b4 <GPIOConfigurePin+0x2ec>

case ioPortInputPullDown:

	gpio->PUPDR |= ~(0x02<<bitNumber); // pull down
 8000fe0:	68fb      	ldr	r3, [r7, #12]
 8000fe2:	68db      	ldr	r3, [r3, #12]
 8000fe4:	2102      	movs	r1, #2
 8000fe6:	68ba      	ldr	r2, [r7, #8]
 8000fe8:	fa01 f202 	lsl.w	r2, r1, r2
 8000fec:	43d2      	mvns	r2, r2
 8000fee:	431a      	orrs	r2, r3
 8000ff0:	68fb      	ldr	r3, [r7, #12]
 8000ff2:	60da      	str	r2, [r3, #12]
    break;
 8000ff4:	e05e      	b.n	80010b4 <GPIOConfigurePin+0x2ec>

case ioPortAlternatrPushPull:

	gpio->MODER |= 0x02<<(2*bitNumber); // alternate function
 8000ff6:	68fb      	ldr	r3, [r7, #12]
 8000ff8:	681b      	ldr	r3, [r3, #0]
 8000ffa:	68ba      	ldr	r2, [r7, #8]
 8000ffc:	0052      	lsls	r2, r2, #1
 8000ffe:	2102      	movs	r1, #2
 8001000:	fa01 f202 	lsl.w	r2, r1, r2
 8001004:	431a      	orrs	r2, r3
 8001006:	68fb      	ldr	r3, [r7, #12]
 8001008:	601a      	str	r2, [r3, #0]
	gpio->OTYPER &= ~(0x01<<bitNumber); // push pull
 800100a:	68fb      	ldr	r3, [r7, #12]
 800100c:	685b      	ldr	r3, [r3, #4]
 800100e:	2101      	movs	r1, #1
 8001010:	68ba      	ldr	r2, [r7, #8]
 8001012:	fa01 f202 	lsl.w	r2, r1, r2
 8001016:	43d2      	mvns	r2, r2
 8001018:	401a      	ands	r2, r3
 800101a:	68fb      	ldr	r3, [r7, #12]
 800101c:	605a      	str	r2, [r3, #4]
	gpio->OSPEEDR |= 0x03<<(2*bitNumber); // height speed
 800101e:	68fb      	ldr	r3, [r7, #12]
 8001020:	689b      	ldr	r3, [r3, #8]
 8001022:	68ba      	ldr	r2, [r7, #8]
 8001024:	0052      	lsls	r2, r2, #1
 8001026:	2103      	movs	r1, #3
 8001028:	fa01 f202 	lsl.w	r2, r1, r2
 800102c:	431a      	orrs	r2, r3
 800102e:	68fb      	ldr	r3, [r7, #12]
 8001030:	609a      	str	r2, [r3, #8]
	gpio->PUPDR &= ~(0x03<<bitNumber); // no pull up, no pull down
 8001032:	68fb      	ldr	r3, [r7, #12]
 8001034:	68db      	ldr	r3, [r3, #12]
 8001036:	2103      	movs	r1, #3
 8001038:	68ba      	ldr	r2, [r7, #8]
 800103a:	fa01 f202 	lsl.w	r2, r1, r2
 800103e:	43d2      	mvns	r2, r2
 8001040:	401a      	ands	r2, r3
 8001042:	68fb      	ldr	r3, [r7, #12]
 8001044:	60da      	str	r2, [r3, #12]
    break;
 8001046:	e035      	b.n	80010b4 <GPIOConfigurePin+0x2ec>
 8001048:	40020800 	.word	0x40020800
 800104c:	40020000 	.word	0x40020000
 8001050:	40020400 	.word	0x40020400
 8001054:	40021000 	.word	0x40021000
 8001058:	40021c00 	.word	0x40021c00
 800105c:	40020c00 	.word	0x40020c00
 8001060:	40023800 	.word	0x40023800

case ioPortAlternatrOpenDrain:

	gpio->MODER |= 0x02<<(2*bitNumber); // alternate function
 8001064:	68fb      	ldr	r3, [r7, #12]
 8001066:	681b      	ldr	r3, [r3, #0]
 8001068:	68ba      	ldr	r2, [r7, #8]
 800106a:	0052      	lsls	r2, r2, #1
 800106c:	2102      	movs	r1, #2
 800106e:	fa01 f202 	lsl.w	r2, r1, r2
 8001072:	431a      	orrs	r2, r3
 8001074:	68fb      	ldr	r3, [r7, #12]
 8001076:	601a      	str	r2, [r3, #0]
	gpio->OTYPER |= (0x01<<bitNumber); // open drain
 8001078:	68fb      	ldr	r3, [r7, #12]
 800107a:	685b      	ldr	r3, [r3, #4]
 800107c:	2101      	movs	r1, #1
 800107e:	68ba      	ldr	r2, [r7, #8]
 8001080:	fa01 f202 	lsl.w	r2, r1, r2
 8001084:	431a      	orrs	r2, r3
 8001086:	68fb      	ldr	r3, [r7, #12]
 8001088:	605a      	str	r2, [r3, #4]
	gpio->OSPEEDR |= 0x03<<(2*bitNumber); // height speed
 800108a:	68fb      	ldr	r3, [r7, #12]
 800108c:	689b      	ldr	r3, [r3, #8]
 800108e:	68ba      	ldr	r2, [r7, #8]
 8001090:	0052      	lsls	r2, r2, #1
 8001092:	2103      	movs	r1, #3
 8001094:	fa01 f202 	lsl.w	r2, r1, r2
 8001098:	431a      	orrs	r2, r3
 800109a:	68fb      	ldr	r3, [r7, #12]
 800109c:	609a      	str	r2, [r3, #8]
	gpio->PUPDR &= ~(0x03<<bitNumber); // no pull up, no pull down
 800109e:	68fb      	ldr	r3, [r7, #12]
 80010a0:	68db      	ldr	r3, [r3, #12]
 80010a2:	2103      	movs	r1, #3
 80010a4:	68ba      	ldr	r2, [r7, #8]
 80010a6:	fa01 f202 	lsl.w	r2, r1, r2
 80010aa:	43d2      	mvns	r2, r2
 80010ac:	401a      	ands	r2, r3
 80010ae:	68fb      	ldr	r3, [r7, #12]
 80010b0:	60da      	str	r2, [r3, #12]
    break;
 80010b2:	bf00      	nop


}
    return true;
 80010b4:	2301      	movs	r3, #1
}
 80010b6:	4618      	mov	r0, r3
 80010b8:	371c      	adds	r7, #28
 80010ba:	46bd      	mov	sp, r7
 80010bc:	f85d 7b04 	ldr.w	r7, [sp], #4
 80010c0:	4770      	bx	lr
 80010c2:	bf00      	nop

080010c4 <GPIOConfigureAlternativFunction>:

bool GPIOConfigureAlternativFunction(GPIO_TypeDef *gpio,uint32_t bitNumber, uint32_t afValue) // konfigurace GPIO do alternativní funkce
{
 80010c4:	b480      	push	{r7}
 80010c6:	b087      	sub	sp, #28
 80010c8:	af00      	add	r7, sp, #0
 80010ca:	60f8      	str	r0, [r7, #12]
 80010cc:	60b9      	str	r1, [r7, #8]
 80010ce:	607a      	str	r2, [r7, #4]
	// alternativni funkce se nastavuje pomoci registrù AFR,(to øíká která alternativní funkce je pøipojena), registry jsou dva(AFRL,AFRH) protože potøebujeme 64bit (je tam šestnáct alternativních kanálù na každej vstup a výstup(to zanemná 4 bity na jeden kanál))
	// v hlavièkových souborech neni AFRL a AFRH ale je tam dvouprvkove uint 32 bitove pole (AFR[0] = AFRL,AFR[1] = AFRH)
	uint8_t afr = (bitNumber < 8) ? 0 : 1 ;
 80010d0:	68bb      	ldr	r3, [r7, #8]
 80010d2:	2b07      	cmp	r3, #7
 80010d4:	bf8c      	ite	hi
 80010d6:	2301      	movhi	r3, #1
 80010d8:	2300      	movls	r3, #0
 80010da:	b2db      	uxtb	r3, r3
 80010dc:	75fb      	strb	r3, [r7, #23]

    gpio->AFR[afr] &= ~(0x0f << (4 * (bitNumber & 0x07))); // vynulujeme 4 bity naseho kanalu, pro jistotu maskuju bit number
 80010de:	7dfa      	ldrb	r2, [r7, #23]
 80010e0:	7df9      	ldrb	r1, [r7, #23]
 80010e2:	68fb      	ldr	r3, [r7, #12]
 80010e4:	3108      	adds	r1, #8
 80010e6:	f853 3021 	ldr.w	r3, [r3, r1, lsl #2]
 80010ea:	68b9      	ldr	r1, [r7, #8]
 80010ec:	f001 0107 	and.w	r1, r1, #7
 80010f0:	0089      	lsls	r1, r1, #2
 80010f2:	200f      	movs	r0, #15
 80010f4:	fa00 f101 	lsl.w	r1, r0, r1
 80010f8:	43c9      	mvns	r1, r1
 80010fa:	4019      	ands	r1, r3
 80010fc:	68fb      	ldr	r3, [r7, #12]
 80010fe:	3208      	adds	r2, #8
 8001100:	f843 1022 	str.w	r1, [r3, r2, lsl #2]
    gpio->AFR[afr] |= ((afValue & 0x0f) << (4 * (bitNumber & 0x07))); // nastavim pozadovanou hodnotu alternativni funkce, prom jistotu, kdyby byla afValue vetsi než 4 bity(nemìla by být) si maskujeme jenom dané 4 bity které chceme používat
 8001104:	7dfa      	ldrb	r2, [r7, #23]
 8001106:	7df9      	ldrb	r1, [r7, #23]
 8001108:	68fb      	ldr	r3, [r7, #12]
 800110a:	3108      	adds	r1, #8
 800110c:	f853 1021 	ldr.w	r1, [r3, r1, lsl #2]
 8001110:	687b      	ldr	r3, [r7, #4]
 8001112:	f003 000f 	and.w	r0, r3, #15
 8001116:	68bb      	ldr	r3, [r7, #8]
 8001118:	f003 0307 	and.w	r3, r3, #7
 800111c:	009b      	lsls	r3, r3, #2
 800111e:	fa00 f303 	lsl.w	r3, r0, r3
 8001122:	4319      	orrs	r1, r3
 8001124:	68fb      	ldr	r3, [r7, #12]
 8001126:	3208      	adds	r2, #8
 8001128:	f843 1022 	str.w	r1, [r3, r2, lsl #2]
    return true;
 800112c:	2301      	movs	r3, #1
  //  gpio->AFR[(bitNumber < 8) ? 0 : 1] &= ~(0x0f << (4 * (bitNumber & 0x07))); // vynuluj AF bity
  //  gpio->AFR[(bitNumber < 8) ? 0 : 1] |= ((afValue & 0x0f) << (4 * (bitNumber & 0x07))); // nastav AF bity



}
 800112e:	4618      	mov	r0, r3
 8001130:	371c      	adds	r7, #28
 8001132:	46bd      	mov	sp, r7
 8001134:	f85d 7b04 	ldr.w	r7, [sp], #4
 8001138:	4770      	bx	lr

0800113a <GPIORead>:
{
gpio -> ODR ^= (1<<bitNumber); // prostì jen zmìò hobnotu v ODR pro pøíslušný bit
}

bool GPIORead(GPIO_TypeDef *gpio, uint32_t bitNumber) // funkce pro zjištìní hodnoty na výstupu ODR pro bit na zadaném místì
{
 800113a:	b480      	push	{r7}
 800113c:	b083      	sub	sp, #12
 800113e:	af00      	add	r7, sp, #0
 8001140:	6078      	str	r0, [r7, #4]
 8001142:	6039      	str	r1, [r7, #0]
	if((gpio -> MODER & (0x03<<(bitNumber*2))) == 0x00) // jestliže je pin nastaven jako vstup
 8001144:	687b      	ldr	r3, [r7, #4]
 8001146:	681b      	ldr	r3, [r3, #0]
 8001148:	683a      	ldr	r2, [r7, #0]
 800114a:	0052      	lsls	r2, r2, #1
 800114c:	2103      	movs	r1, #3
 800114e:	fa01 f202 	lsl.w	r2, r1, r2
 8001152:	4013      	ands	r3, r2
 8001154:	2b00      	cmp	r3, #0
 8001156:	d10c      	bne.n	8001172 <GPIORead+0x38>
	{
		 return ((gpio -> IDR) & (1<<bitNumber)); // AND ODR s maskou vrátí 0 (false) pokud zkoumany bit je nula, a pokud neni nula a je to jakekoliv jine cislo, nezalezi na to jake, vrati (true)
 8001158:	687b      	ldr	r3, [r7, #4]
 800115a:	691b      	ldr	r3, [r3, #16]
 800115c:	2101      	movs	r1, #1
 800115e:	683a      	ldr	r2, [r7, #0]
 8001160:	fa01 f202 	lsl.w	r2, r1, r2
 8001164:	4013      	ands	r3, r2
 8001166:	2b00      	cmp	r3, #0
 8001168:	bf14      	ite	ne
 800116a:	2301      	movne	r3, #1
 800116c:	2300      	moveq	r3, #0
 800116e:	b2db      	uxtb	r3, r3
 8001170:	e01c      	b.n	80011ac <GPIORead+0x72>

	}else if ((gpio -> MODER & (0x03<<(bitNumber*2))) == (0x01<<(bitNumber*2))) // pokud ne, tak je na prislusnem bitNumber kombinace 01
 8001172:	687b      	ldr	r3, [r7, #4]
 8001174:	681b      	ldr	r3, [r3, #0]
 8001176:	683a      	ldr	r2, [r7, #0]
 8001178:	0052      	lsls	r2, r2, #1
 800117a:	2103      	movs	r1, #3
 800117c:	fa01 f202 	lsl.w	r2, r1, r2
 8001180:	4013      	ands	r3, r2
 8001182:	683a      	ldr	r2, [r7, #0]
 8001184:	0052      	lsls	r2, r2, #1
 8001186:	2101      	movs	r1, #1
 8001188:	fa01 f202 	lsl.w	r2, r1, r2
 800118c:	4293      	cmp	r3, r2
 800118e:	d10c      	bne.n	80011aa <GPIORead+0x70>
	{
		 return ((gpio -> ODR) & (1<<bitNumber)); // AND ODR s maskou vrátí 0 (false) pokud zkoumany bit je nula, a pokud neni nula a je to jakekoliv jine cislo, nezalezi na to jake, vrati (true)
 8001190:	687b      	ldr	r3, [r7, #4]
 8001192:	695b      	ldr	r3, [r3, #20]
 8001194:	2101      	movs	r1, #1
 8001196:	683a      	ldr	r2, [r7, #0]
 8001198:	fa01 f202 	lsl.w	r2, r1, r2
 800119c:	4013      	ands	r3, r2
 800119e:	2b00      	cmp	r3, #0
 80011a0:	bf14      	ite	ne
 80011a2:	2301      	movne	r3, #1
 80011a4:	2300      	moveq	r3, #0
 80011a6:	b2db      	uxtb	r3, r3
 80011a8:	e000      	b.n	80011ac <GPIORead+0x72>
	}else
	{
		return false; // je potøeba dodìlat!!!!! pro analog a alternativvní funkce nebude fungovat!!!!!!!!
 80011aa:	2300      	movs	r3, #0
	}

}
 80011ac:	4618      	mov	r0, r3
 80011ae:	370c      	adds	r7, #12
 80011b0:	46bd      	mov	sp, r7
 80011b2:	f85d 7b04 	ldr.w	r7, [sp], #4
 80011b6:	4770      	bx	lr

080011b8 <SystemInit>:
  *         configuration.
  * @param  None
  * @retval None
  */
void SystemInit(void)
{
 80011b8:	b480      	push	{r7}
 80011ba:	af00      	add	r7, sp, #0
  /* FPU settings ------------------------------------------------------------*/
  #if (__FPU_PRESENT == 1) && (__FPU_USED == 1)
    SCB->CPACR |= ((3UL << 10*2)|(3UL << 11*2));  /* set CP10 and CP11 Full Access */
 80011bc:	4a16      	ldr	r2, [pc, #88]	; (8001218 <SystemInit+0x60>)
 80011be:	4b16      	ldr	r3, [pc, #88]	; (8001218 <SystemInit+0x60>)
 80011c0:	f8d3 3088 	ldr.w	r3, [r3, #136]	; 0x88
 80011c4:	f443 0370 	orr.w	r3, r3, #15728640	; 0xf00000
 80011c8:	f8c2 3088 	str.w	r3, [r2, #136]	; 0x88
  #endif
  /* Reset the RCC clock configuration to the default reset state ------------*/
  /* Set HSION bit */
  RCC->CR |= (uint32_t)0x00000001;
 80011cc:	4a13      	ldr	r2, [pc, #76]	; (800121c <SystemInit+0x64>)
 80011ce:	4b13      	ldr	r3, [pc, #76]	; (800121c <SystemInit+0x64>)
 80011d0:	681b      	ldr	r3, [r3, #0]
 80011d2:	f043 0301 	orr.w	r3, r3, #1
 80011d6:	6013      	str	r3, [r2, #0]

  /* Reset CFGR register */
  RCC->CFGR = 0x00000000;
 80011d8:	4b10      	ldr	r3, [pc, #64]	; (800121c <SystemInit+0x64>)
 80011da:	2200      	movs	r2, #0
 80011dc:	609a      	str	r2, [r3, #8]

  /* Reset HSEON, CSSON and PLLON bits */
  RCC->CR &= (uint32_t)0xFEF6FFFF;
 80011de:	4a0f      	ldr	r2, [pc, #60]	; (800121c <SystemInit+0x64>)
 80011e0:	4b0e      	ldr	r3, [pc, #56]	; (800121c <SystemInit+0x64>)
 80011e2:	681b      	ldr	r3, [r3, #0]
 80011e4:	f023 7384 	bic.w	r3, r3, #17301504	; 0x1080000
 80011e8:	f423 3380 	bic.w	r3, r3, #65536	; 0x10000
 80011ec:	6013      	str	r3, [r2, #0]

  /* Reset PLLCFGR register */
  RCC->PLLCFGR = 0x24003010;
 80011ee:	4b0b      	ldr	r3, [pc, #44]	; (800121c <SystemInit+0x64>)
 80011f0:	4a0b      	ldr	r2, [pc, #44]	; (8001220 <SystemInit+0x68>)
 80011f2:	605a      	str	r2, [r3, #4]

  /* Reset HSEBYP bit */
  RCC->CR &= (uint32_t)0xFFFBFFFF;
 80011f4:	4a09      	ldr	r2, [pc, #36]	; (800121c <SystemInit+0x64>)
 80011f6:	4b09      	ldr	r3, [pc, #36]	; (800121c <SystemInit+0x64>)
 80011f8:	681b      	ldr	r3, [r3, #0]
 80011fa:	f423 2380 	bic.w	r3, r3, #262144	; 0x40000
 80011fe:	6013      	str	r3, [r2, #0]

  /* Disable all interrupts */
  RCC->CIR = 0x00000000;
 8001200:	4b06      	ldr	r3, [pc, #24]	; (800121c <SystemInit+0x64>)
 8001202:	2200      	movs	r2, #0
 8001204:	60da      	str	r2, [r3, #12]

  /* Configure the Vector Table location add offset address ------------------*/
#ifdef VECT_TAB_SRAM
  SCB->VTOR = SRAM_BASE | VECT_TAB_OFFSET; /* Vector Table Relocation in Internal SRAM */
#else
  SCB->VTOR = FLASH_BASE | VECT_TAB_OFFSET; /* Vector Table Relocation in Internal FLASH */
 8001206:	4b04      	ldr	r3, [pc, #16]	; (8001218 <SystemInit+0x60>)
 8001208:	f04f 6200 	mov.w	r2, #134217728	; 0x8000000
 800120c:	609a      	str	r2, [r3, #8]
#endif
}
 800120e:	bf00      	nop
 8001210:	46bd      	mov	sp, r7
 8001212:	f85d 7b04 	ldr.w	r7, [sp], #4
 8001216:	4770      	bx	lr
 8001218:	e000ed00 	.word	0xe000ed00
 800121c:	40023800 	.word	0x40023800
 8001220:	24003010 	.word	0x24003010

08001224 <SystemCoreClockUpdate>:
  *     
  * @param  None
  * @retval None
  */
void SystemCoreClockUpdate(void)
{
 8001224:	b480      	push	{r7}
 8001226:	b087      	sub	sp, #28
 8001228:	af00      	add	r7, sp, #0
  uint32_t tmp = 0, pllvco = 0, pllp = 2, pllsource = 0, pllm = 2;
 800122a:	2300      	movs	r3, #0
 800122c:	613b      	str	r3, [r7, #16]
 800122e:	2300      	movs	r3, #0
 8001230:	617b      	str	r3, [r7, #20]
 8001232:	2302      	movs	r3, #2
 8001234:	60fb      	str	r3, [r7, #12]
 8001236:	2300      	movs	r3, #0
 8001238:	60bb      	str	r3, [r7, #8]
 800123a:	2302      	movs	r3, #2
 800123c:	607b      	str	r3, [r7, #4]
  
  /* Get SYSCLK source -------------------------------------------------------*/
  tmp = RCC->CFGR & RCC_CFGR_SWS;
 800123e:	4b31      	ldr	r3, [pc, #196]	; (8001304 <SystemCoreClockUpdate+0xe0>)
 8001240:	689b      	ldr	r3, [r3, #8]
 8001242:	f003 030c 	and.w	r3, r3, #12
 8001246:	613b      	str	r3, [r7, #16]

  switch (tmp)
 8001248:	693b      	ldr	r3, [r7, #16]
 800124a:	2b04      	cmp	r3, #4
 800124c:	d007      	beq.n	800125e <SystemCoreClockUpdate+0x3a>
 800124e:	2b08      	cmp	r3, #8
 8001250:	d009      	beq.n	8001266 <SystemCoreClockUpdate+0x42>
 8001252:	2b00      	cmp	r3, #0
 8001254:	d13d      	bne.n	80012d2 <SystemCoreClockUpdate+0xae>
  {
    case 0x00:  /* HSI used as system clock source */
      SystemCoreClock = HSI_VALUE;
 8001256:	4b2c      	ldr	r3, [pc, #176]	; (8001308 <SystemCoreClockUpdate+0xe4>)
 8001258:	4a2c      	ldr	r2, [pc, #176]	; (800130c <SystemCoreClockUpdate+0xe8>)
 800125a:	601a      	str	r2, [r3, #0]
      break;
 800125c:	e03d      	b.n	80012da <SystemCoreClockUpdate+0xb6>
    case 0x04:  /* HSE used as system clock source */
      SystemCoreClock = HSE_VALUE;
 800125e:	4b2a      	ldr	r3, [pc, #168]	; (8001308 <SystemCoreClockUpdate+0xe4>)
 8001260:	4a2b      	ldr	r2, [pc, #172]	; (8001310 <SystemCoreClockUpdate+0xec>)
 8001262:	601a      	str	r2, [r3, #0]
      break;
 8001264:	e039      	b.n	80012da <SystemCoreClockUpdate+0xb6>
    case 0x08:  /* PLL used as system clock source */

      /* PLL_VCO = (HSE_VALUE or HSI_VALUE / PLL_M) * PLL_N
         SYSCLK = PLL_VCO / PLL_P
         */    
      pllsource = (RCC->PLLCFGR & RCC_PLLCFGR_PLLSRC) >> 22;
 8001266:	4b27      	ldr	r3, [pc, #156]	; (8001304 <SystemCoreClockUpdate+0xe0>)
 8001268:	685b      	ldr	r3, [r3, #4]
 800126a:	0d9b      	lsrs	r3, r3, #22
 800126c:	f003 0301 	and.w	r3, r3, #1
 8001270:	60bb      	str	r3, [r7, #8]
      pllm = RCC->PLLCFGR & RCC_PLLCFGR_PLLM;
 8001272:	4b24      	ldr	r3, [pc, #144]	; (8001304 <SystemCoreClockUpdate+0xe0>)
 8001274:	685b      	ldr	r3, [r3, #4]
 8001276:	f003 033f 	and.w	r3, r3, #63	; 0x3f
 800127a:	607b      	str	r3, [r7, #4]
      
      if (pllsource != 0)
 800127c:	68bb      	ldr	r3, [r7, #8]
 800127e:	2b00      	cmp	r3, #0
 8001280:	d00c      	beq.n	800129c <SystemCoreClockUpdate+0x78>
      {
        /* HSE used as PLL clock source */
        pllvco = (HSE_VALUE / pllm) * ((RCC->PLLCFGR & RCC_PLLCFGR_PLLN) >> 6);
 8001282:	4a23      	ldr	r2, [pc, #140]	; (8001310 <SystemCoreClockUpdate+0xec>)
 8001284:	687b      	ldr	r3, [r7, #4]
 8001286:	fbb2 f3f3 	udiv	r3, r2, r3
 800128a:	4a1e      	ldr	r2, [pc, #120]	; (8001304 <SystemCoreClockUpdate+0xe0>)
 800128c:	6852      	ldr	r2, [r2, #4]
 800128e:	0992      	lsrs	r2, r2, #6
 8001290:	f3c2 0208 	ubfx	r2, r2, #0, #9
 8001294:	fb02 f303 	mul.w	r3, r2, r3
 8001298:	617b      	str	r3, [r7, #20]
 800129a:	e00b      	b.n	80012b4 <SystemCoreClockUpdate+0x90>
      }
      else
      {
        /* HSI used as PLL clock source */
        pllvco = (HSI_VALUE / pllm) * ((RCC->PLLCFGR & RCC_PLLCFGR_PLLN) >> 6);
 800129c:	4a1b      	ldr	r2, [pc, #108]	; (800130c <SystemCoreClockUpdate+0xe8>)
 800129e:	687b      	ldr	r3, [r7, #4]
 80012a0:	fbb2 f3f3 	udiv	r3, r2, r3
 80012a4:	4a17      	ldr	r2, [pc, #92]	; (8001304 <SystemCoreClockUpdate+0xe0>)
 80012a6:	6852      	ldr	r2, [r2, #4]
 80012a8:	0992      	lsrs	r2, r2, #6
 80012aa:	f3c2 0208 	ubfx	r2, r2, #0, #9
 80012ae:	fb02 f303 	mul.w	r3, r2, r3
 80012b2:	617b      	str	r3, [r7, #20]
      }

      pllp = (((RCC->PLLCFGR & RCC_PLLCFGR_PLLP) >>16) + 1 ) *2;
 80012b4:	4b13      	ldr	r3, [pc, #76]	; (8001304 <SystemCoreClockUpdate+0xe0>)
 80012b6:	685b      	ldr	r3, [r3, #4]
 80012b8:	0c1b      	lsrs	r3, r3, #16
 80012ba:	f003 0303 	and.w	r3, r3, #3
 80012be:	3301      	adds	r3, #1
 80012c0:	005b      	lsls	r3, r3, #1
 80012c2:	60fb      	str	r3, [r7, #12]
      SystemCoreClock = pllvco/pllp;
 80012c4:	697a      	ldr	r2, [r7, #20]
 80012c6:	68fb      	ldr	r3, [r7, #12]
 80012c8:	fbb2 f3f3 	udiv	r3, r2, r3
 80012cc:	4a0e      	ldr	r2, [pc, #56]	; (8001308 <SystemCoreClockUpdate+0xe4>)
 80012ce:	6013      	str	r3, [r2, #0]
      break;
 80012d0:	e003      	b.n	80012da <SystemCoreClockUpdate+0xb6>
    default:
      SystemCoreClock = HSI_VALUE;
 80012d2:	4b0d      	ldr	r3, [pc, #52]	; (8001308 <SystemCoreClockUpdate+0xe4>)
 80012d4:	4a0d      	ldr	r2, [pc, #52]	; (800130c <SystemCoreClockUpdate+0xe8>)
 80012d6:	601a      	str	r2, [r3, #0]
      break;
 80012d8:	bf00      	nop
  }
  /* Compute HCLK frequency --------------------------------------------------*/
  /* Get HCLK prescaler */
  tmp = AHBPrescTable[((RCC->CFGR & RCC_CFGR_HPRE) >> 4)];
 80012da:	4b0a      	ldr	r3, [pc, #40]	; (8001304 <SystemCoreClockUpdate+0xe0>)
 80012dc:	689b      	ldr	r3, [r3, #8]
 80012de:	091b      	lsrs	r3, r3, #4
 80012e0:	f003 030f 	and.w	r3, r3, #15
 80012e4:	4a0b      	ldr	r2, [pc, #44]	; (8001314 <SystemCoreClockUpdate+0xf0>)
 80012e6:	5cd3      	ldrb	r3, [r2, r3]
 80012e8:	613b      	str	r3, [r7, #16]
  /* HCLK frequency */
  SystemCoreClock >>= tmp;
 80012ea:	4b07      	ldr	r3, [pc, #28]	; (8001308 <SystemCoreClockUpdate+0xe4>)
 80012ec:	681a      	ldr	r2, [r3, #0]
 80012ee:	693b      	ldr	r3, [r7, #16]
 80012f0:	fa22 f303 	lsr.w	r3, r2, r3
 80012f4:	4a04      	ldr	r2, [pc, #16]	; (8001308 <SystemCoreClockUpdate+0xe4>)
 80012f6:	6013      	str	r3, [r2, #0]
}
 80012f8:	bf00      	nop
 80012fa:	371c      	adds	r7, #28
 80012fc:	46bd      	mov	sp, r7
 80012fe:	f85d 7b04 	ldr.w	r7, [sp], #4
 8001302:	4770      	bx	lr
 8001304:	40023800 	.word	0x40023800
 8001308:	20000000 	.word	0x20000000
 800130c:	00f42400 	.word	0x00f42400
 8001310:	017d7840 	.word	0x017d7840
 8001314:	08001378 	.word	0x08001378

08001318 <__libc_init_array>:
 8001318:	b570      	push	{r4, r5, r6, lr}
 800131a:	4e0d      	ldr	r6, [pc, #52]	; (8001350 <__libc_init_array+0x38>)
 800131c:	4c0d      	ldr	r4, [pc, #52]	; (8001354 <__libc_init_array+0x3c>)
 800131e:	1ba4      	subs	r4, r4, r6
 8001320:	10a4      	asrs	r4, r4, #2
 8001322:	2500      	movs	r5, #0
 8001324:	42a5      	cmp	r5, r4
 8001326:	d109      	bne.n	800133c <__libc_init_array+0x24>
 8001328:	4e0b      	ldr	r6, [pc, #44]	; (8001358 <__libc_init_array+0x40>)
 800132a:	4c0c      	ldr	r4, [pc, #48]	; (800135c <__libc_init_array+0x44>)
 800132c:	f000 f818 	bl	8001360 <_init>
 8001330:	1ba4      	subs	r4, r4, r6
 8001332:	10a4      	asrs	r4, r4, #2
 8001334:	2500      	movs	r5, #0
 8001336:	42a5      	cmp	r5, r4
 8001338:	d105      	bne.n	8001346 <__libc_init_array+0x2e>
 800133a:	bd70      	pop	{r4, r5, r6, pc}
 800133c:	f856 3025 	ldr.w	r3, [r6, r5, lsl #2]
 8001340:	4798      	blx	r3
 8001342:	3501      	adds	r5, #1
 8001344:	e7ee      	b.n	8001324 <__libc_init_array+0xc>
 8001346:	f856 3025 	ldr.w	r3, [r6, r5, lsl #2]
 800134a:	4798      	blx	r3
 800134c:	3501      	adds	r5, #1
 800134e:	e7f2      	b.n	8001336 <__libc_init_array+0x1e>
 8001350:	08001388 	.word	0x08001388
 8001354:	08001388 	.word	0x08001388
 8001358:	08001388 	.word	0x08001388
 800135c:	0800138c 	.word	0x0800138c

08001360 <_init>:
 8001360:	b5f8      	push	{r3, r4, r5, r6, r7, lr}
 8001362:	bf00      	nop
 8001364:	bcf8      	pop	{r3, r4, r5, r6, r7}
 8001366:	bc08      	pop	{r3}
 8001368:	469e      	mov	lr, r3
 800136a:	4770      	bx	lr

0800136c <_fini>:
 800136c:	b5f8      	push	{r3, r4, r5, r6, r7, lr}
 800136e:	bf00      	nop
 8001370:	bcf8      	pop	{r3, r4, r5, r6, r7}
 8001372:	bc08      	pop	{r3}
 8001374:	469e      	mov	lr, r3
 8001376:	4770      	bx	lr
